ARM GAS  C:\Users\LASER_2\AppData\Local\Temp\cc2Ms9Th.s 			page 1


   1              		.syntax unified
   2              		.cpu cortex-m3
   3              		.fpu softvfp
   4              		.eabi_attribute 20, 1
   5              		.eabi_attribute 21, 1
   6              		.eabi_attribute 23, 3
   7              		.eabi_attribute 24, 1
   8              		.eabi_attribute 25, 1
   9              		.eabi_attribute 26, 1
  10              		.eabi_attribute 30, 1
  11              		.eabi_attribute 34, 1
  12              		.eabi_attribute 18, 4
  13              		.thumb
  14              		.syntax unified
  15              		.file	"cyfitter_cfg.c"
  16              		.text
  17              	.Ltext0:
  18              		.cfi_sections	.debug_frame
  19              		.section	.text.cfg_write_bytes32,"ax",%progbits
  20              		.align	2
  21              		.thumb
  22              		.thumb_func
  23              		.type	cfg_write_bytes32, %function
  24              	cfg_write_bytes32:
  25              	.LFB3:
  26              		.file 1 "Generated_Source\\PSoC5\\cyfitter_cfg.c"
   1:Generated_Source\PSoC5/cyfitter_cfg.c **** 
   2:Generated_Source\PSoC5/cyfitter_cfg.c **** /*******************************************************************************
   3:Generated_Source\PSoC5/cyfitter_cfg.c **** * File Name: cyfitter_cfg.c
   4:Generated_Source\PSoC5/cyfitter_cfg.c **** * 
   5:Generated_Source\PSoC5/cyfitter_cfg.c **** * PSoC Creator  4.2
   6:Generated_Source\PSoC5/cyfitter_cfg.c **** *
   7:Generated_Source\PSoC5/cyfitter_cfg.c **** * Description:
   8:Generated_Source\PSoC5/cyfitter_cfg.c **** * This file contains device initialization code.
   9:Generated_Source\PSoC5/cyfitter_cfg.c **** * Except for the user defined sections in CyClockStartupError(), this file should not be modified.
  10:Generated_Source\PSoC5/cyfitter_cfg.c **** * This file is automatically generated by PSoC Creator.
  11:Generated_Source\PSoC5/cyfitter_cfg.c **** *
  12:Generated_Source\PSoC5/cyfitter_cfg.c **** ********************************************************************************
  13:Generated_Source\PSoC5/cyfitter_cfg.c **** * Copyright (c) 2007-2018 Cypress Semiconductor.  All rights reserved.
  14:Generated_Source\PSoC5/cyfitter_cfg.c **** * You may use this file only in accordance with the license, terms, conditions, 
  15:Generated_Source\PSoC5/cyfitter_cfg.c **** * disclaimers, and limitations in the end user license agreement accompanying 
  16:Generated_Source\PSoC5/cyfitter_cfg.c **** * the software package with which this file was provided.
  17:Generated_Source\PSoC5/cyfitter_cfg.c **** ********************************************************************************/
  18:Generated_Source\PSoC5/cyfitter_cfg.c **** 
  19:Generated_Source\PSoC5/cyfitter_cfg.c **** #include <string.h>
  20:Generated_Source\PSoC5/cyfitter_cfg.c **** #include "cytypes.h"
  21:Generated_Source\PSoC5/cyfitter_cfg.c **** #include "cydevice_trm.h"
  22:Generated_Source\PSoC5/cyfitter_cfg.c **** #include "cyfitter.h"
  23:Generated_Source\PSoC5/cyfitter_cfg.c **** #include "CyLib.h"
  24:Generated_Source\PSoC5/cyfitter_cfg.c **** #include "cyfitter_cfg.h"
  25:Generated_Source\PSoC5/cyfitter_cfg.c **** #include "cyapicallbacks.h"
  26:Generated_Source\PSoC5/cyfitter_cfg.c **** 
  27:Generated_Source\PSoC5/cyfitter_cfg.c **** 
  28:Generated_Source\PSoC5/cyfitter_cfg.c **** #if defined(__GNUC__) || defined(__ARMCC_VERSION)
  29:Generated_Source\PSoC5/cyfitter_cfg.c ****     #define CYPACKED 
  30:Generated_Source\PSoC5/cyfitter_cfg.c ****     #define CYPACKED_ATTR __attribute__ ((packed))
  31:Generated_Source\PSoC5/cyfitter_cfg.c ****     #define CYALIGNED __attribute__ ((aligned))
ARM GAS  C:\Users\LASER_2\AppData\Local\Temp\cc2Ms9Th.s 			page 2


  32:Generated_Source\PSoC5/cyfitter_cfg.c ****     #define CY_CFG_UNUSED __attribute__ ((unused))
  33:Generated_Source\PSoC5/cyfitter_cfg.c ****     #ifndef CY_CFG_SECTION
  34:Generated_Source\PSoC5/cyfitter_cfg.c ****         #define CY_CFG_SECTION __attribute__ ((section(".psocinit")))
  35:Generated_Source\PSoC5/cyfitter_cfg.c ****     #endif
  36:Generated_Source\PSoC5/cyfitter_cfg.c ****     
  37:Generated_Source\PSoC5/cyfitter_cfg.c ****     #if defined(__ARMCC_VERSION)
  38:Generated_Source\PSoC5/cyfitter_cfg.c ****         #define CY_CFG_MEMORY_BARRIER() __memory_changed()
  39:Generated_Source\PSoC5/cyfitter_cfg.c ****     #else
  40:Generated_Source\PSoC5/cyfitter_cfg.c ****         #define CY_CFG_MEMORY_BARRIER() __sync_synchronize()
  41:Generated_Source\PSoC5/cyfitter_cfg.c ****     #endif
  42:Generated_Source\PSoC5/cyfitter_cfg.c ****     
  43:Generated_Source\PSoC5/cyfitter_cfg.c **** #elif defined(__ICCARM__)
  44:Generated_Source\PSoC5/cyfitter_cfg.c ****     #include <intrinsics.h>
  45:Generated_Source\PSoC5/cyfitter_cfg.c **** 
  46:Generated_Source\PSoC5/cyfitter_cfg.c ****     #define CYPACKED __packed
  47:Generated_Source\PSoC5/cyfitter_cfg.c ****     #define CYPACKED_ATTR 
  48:Generated_Source\PSoC5/cyfitter_cfg.c ****     #define CYALIGNED _Pragma("data_alignment=4")
  49:Generated_Source\PSoC5/cyfitter_cfg.c ****     #define CY_CFG_UNUSED _Pragma("diag_suppress=Pe177")
  50:Generated_Source\PSoC5/cyfitter_cfg.c ****     #define CY_CFG_SECTION _Pragma("location=\".psocinit\"")
  51:Generated_Source\PSoC5/cyfitter_cfg.c ****     
  52:Generated_Source\PSoC5/cyfitter_cfg.c ****     #define CY_CFG_MEMORY_BARRIER() __DMB()
  53:Generated_Source\PSoC5/cyfitter_cfg.c ****     
  54:Generated_Source\PSoC5/cyfitter_cfg.c **** #else
  55:Generated_Source\PSoC5/cyfitter_cfg.c ****     #error Unsupported toolchain
  56:Generated_Source\PSoC5/cyfitter_cfg.c **** #endif
  57:Generated_Source\PSoC5/cyfitter_cfg.c **** 
  58:Generated_Source\PSoC5/cyfitter_cfg.c **** #ifndef CYCODE
  59:Generated_Source\PSoC5/cyfitter_cfg.c ****     #define CYCODE
  60:Generated_Source\PSoC5/cyfitter_cfg.c **** #endif
  61:Generated_Source\PSoC5/cyfitter_cfg.c **** #ifndef CYDATA
  62:Generated_Source\PSoC5/cyfitter_cfg.c ****     #define CYDATA
  63:Generated_Source\PSoC5/cyfitter_cfg.c **** #endif
  64:Generated_Source\PSoC5/cyfitter_cfg.c **** #ifndef CYFAR
  65:Generated_Source\PSoC5/cyfitter_cfg.c ****     #define CYFAR
  66:Generated_Source\PSoC5/cyfitter_cfg.c **** #endif
  67:Generated_Source\PSoC5/cyfitter_cfg.c **** #ifndef CYXDATA
  68:Generated_Source\PSoC5/cyfitter_cfg.c ****     #define CYXDATA
  69:Generated_Source\PSoC5/cyfitter_cfg.c **** #endif
  70:Generated_Source\PSoC5/cyfitter_cfg.c **** 
  71:Generated_Source\PSoC5/cyfitter_cfg.c **** 
  72:Generated_Source\PSoC5/cyfitter_cfg.c **** CY_CFG_UNUSED
  73:Generated_Source\PSoC5/cyfitter_cfg.c **** static void CYMEMZERO(void *s, size_t n);
  74:Generated_Source\PSoC5/cyfitter_cfg.c **** CY_CFG_UNUSED
  75:Generated_Source\PSoC5/cyfitter_cfg.c **** static void CYMEMZERO(void *s, size_t n)
  76:Generated_Source\PSoC5/cyfitter_cfg.c **** {
  77:Generated_Source\PSoC5/cyfitter_cfg.c **** 	(void)memset(s, 0, n);
  78:Generated_Source\PSoC5/cyfitter_cfg.c **** }
  79:Generated_Source\PSoC5/cyfitter_cfg.c **** CY_CFG_UNUSED
  80:Generated_Source\PSoC5/cyfitter_cfg.c **** static void CYCONFIGCPY(void *dest, const void *src, size_t n);
  81:Generated_Source\PSoC5/cyfitter_cfg.c **** CY_CFG_UNUSED
  82:Generated_Source\PSoC5/cyfitter_cfg.c **** static void CYCONFIGCPY(void *dest, const void *src, size_t n)
  83:Generated_Source\PSoC5/cyfitter_cfg.c **** {
  84:Generated_Source\PSoC5/cyfitter_cfg.c **** 	(void)memcpy(dest, src, n);
  85:Generated_Source\PSoC5/cyfitter_cfg.c **** }
  86:Generated_Source\PSoC5/cyfitter_cfg.c **** CY_CFG_UNUSED
  87:Generated_Source\PSoC5/cyfitter_cfg.c **** static void CYCONFIGCPYCODE(void *dest, const void *src, size_t n);
  88:Generated_Source\PSoC5/cyfitter_cfg.c **** CY_CFG_UNUSED
ARM GAS  C:\Users\LASER_2\AppData\Local\Temp\cc2Ms9Th.s 			page 3


  89:Generated_Source\PSoC5/cyfitter_cfg.c **** static void CYCONFIGCPYCODE(void *dest, const void *src, size_t n)
  90:Generated_Source\PSoC5/cyfitter_cfg.c **** {
  91:Generated_Source\PSoC5/cyfitter_cfg.c **** 	(void)memcpy(dest, src, n);
  92:Generated_Source\PSoC5/cyfitter_cfg.c **** }
  93:Generated_Source\PSoC5/cyfitter_cfg.c **** 
  94:Generated_Source\PSoC5/cyfitter_cfg.c **** 
  95:Generated_Source\PSoC5/cyfitter_cfg.c **** 
  96:Generated_Source\PSoC5/cyfitter_cfg.c **** 
  97:Generated_Source\PSoC5/cyfitter_cfg.c **** /* Clock startup error codes                                                   */
  98:Generated_Source\PSoC5/cyfitter_cfg.c **** #define CYCLOCKSTART_NO_ERROR    0u
  99:Generated_Source\PSoC5/cyfitter_cfg.c **** #define CYCLOCKSTART_XTAL_ERROR  1u
 100:Generated_Source\PSoC5/cyfitter_cfg.c **** #define CYCLOCKSTART_32KHZ_ERROR 2u
 101:Generated_Source\PSoC5/cyfitter_cfg.c **** #define CYCLOCKSTART_PLL_ERROR   3u
 102:Generated_Source\PSoC5/cyfitter_cfg.c **** #define CYCLOCKSTART_FLL_ERROR   4u
 103:Generated_Source\PSoC5/cyfitter_cfg.c **** #define CYCLOCKSTART_WCO_ERROR   5u
 104:Generated_Source\PSoC5/cyfitter_cfg.c **** 
 105:Generated_Source\PSoC5/cyfitter_cfg.c **** 
 106:Generated_Source\PSoC5/cyfitter_cfg.c **** #ifdef CY_NEED_CYCLOCKSTARTUPERROR
 107:Generated_Source\PSoC5/cyfitter_cfg.c **** /*******************************************************************************
 108:Generated_Source\PSoC5/cyfitter_cfg.c **** * Function Name: CyClockStartupError
 109:Generated_Source\PSoC5/cyfitter_cfg.c **** ********************************************************************************
 110:Generated_Source\PSoC5/cyfitter_cfg.c **** * Summary:
 111:Generated_Source\PSoC5/cyfitter_cfg.c **** *  If an error is encountered during clock configuration (crystal startup error,
 112:Generated_Source\PSoC5/cyfitter_cfg.c **** *  PLL lock error, etc.), the system will end up here.  Unless reimplemented by
 113:Generated_Source\PSoC5/cyfitter_cfg.c **** *  the customer, this function will stop in an infinite loop.
 114:Generated_Source\PSoC5/cyfitter_cfg.c **** *
 115:Generated_Source\PSoC5/cyfitter_cfg.c **** * Parameters:
 116:Generated_Source\PSoC5/cyfitter_cfg.c **** *   void
 117:Generated_Source\PSoC5/cyfitter_cfg.c **** *
 118:Generated_Source\PSoC5/cyfitter_cfg.c **** * Return:
 119:Generated_Source\PSoC5/cyfitter_cfg.c **** *   void
 120:Generated_Source\PSoC5/cyfitter_cfg.c **** *
 121:Generated_Source\PSoC5/cyfitter_cfg.c **** *******************************************************************************/
 122:Generated_Source\PSoC5/cyfitter_cfg.c **** CY_CFG_UNUSED
 123:Generated_Source\PSoC5/cyfitter_cfg.c **** static void CyClockStartupError(uint8 errorCode);
 124:Generated_Source\PSoC5/cyfitter_cfg.c **** CY_CFG_UNUSED
 125:Generated_Source\PSoC5/cyfitter_cfg.c **** static void CyClockStartupError(uint8 errorCode)
 126:Generated_Source\PSoC5/cyfitter_cfg.c **** {
 127:Generated_Source\PSoC5/cyfitter_cfg.c ****     /* To remove the compiler warning if errorCode not used.                */
 128:Generated_Source\PSoC5/cyfitter_cfg.c ****     errorCode = errorCode;
 129:Generated_Source\PSoC5/cyfitter_cfg.c **** 
 130:Generated_Source\PSoC5/cyfitter_cfg.c ****     /* If we have a clock startup error (bad MHz crystal, PLL lock, etc.),  */
 131:Generated_Source\PSoC5/cyfitter_cfg.c ****     /* we will end up here to allow the customer to implement something to  */
 132:Generated_Source\PSoC5/cyfitter_cfg.c ****     /* deal with the clock condition.                                       */
 133:Generated_Source\PSoC5/cyfitter_cfg.c **** 
 134:Generated_Source\PSoC5/cyfitter_cfg.c **** #ifdef CY_CFG_CLOCK_STARTUP_ERROR_CALLBACK
 135:Generated_Source\PSoC5/cyfitter_cfg.c ****     CY_CFG_Clock_Startup_ErrorCallback();
 136:Generated_Source\PSoC5/cyfitter_cfg.c **** #else
 137:Generated_Source\PSoC5/cyfitter_cfg.c ****     /*  If not using CY_CFG_CLOCK_STARTUP_ERROR_CALLBACK, place your clock startup code here. */
 138:Generated_Source\PSoC5/cyfitter_cfg.c ****     /* `#START CyClockStartupError` */
 139:Generated_Source\PSoC5/cyfitter_cfg.c **** 
 140:Generated_Source\PSoC5/cyfitter_cfg.c **** 
 141:Generated_Source\PSoC5/cyfitter_cfg.c **** 
 142:Generated_Source\PSoC5/cyfitter_cfg.c ****     /* `#END` */
 143:Generated_Source\PSoC5/cyfitter_cfg.c **** 
 144:Generated_Source\PSoC5/cyfitter_cfg.c ****     while(1) {}
 145:Generated_Source\PSoC5/cyfitter_cfg.c **** #endif /* CY_CFG_CLOCK_STARTUP_ERROR_CALLBACK */
ARM GAS  C:\Users\LASER_2\AppData\Local\Temp\cc2Ms9Th.s 			page 4


 146:Generated_Source\PSoC5/cyfitter_cfg.c **** }
 147:Generated_Source\PSoC5/cyfitter_cfg.c **** #endif
 148:Generated_Source\PSoC5/cyfitter_cfg.c **** 
 149:Generated_Source\PSoC5/cyfitter_cfg.c **** #define CY_CFG_BASE_ADDR_COUNT 20u
 150:Generated_Source\PSoC5/cyfitter_cfg.c **** CYPACKED typedef struct
 151:Generated_Source\PSoC5/cyfitter_cfg.c **** {
 152:Generated_Source\PSoC5/cyfitter_cfg.c **** 	uint8 offset;
 153:Generated_Source\PSoC5/cyfitter_cfg.c **** 	uint8 value;
 154:Generated_Source\PSoC5/cyfitter_cfg.c **** } CYPACKED_ATTR cy_cfg_addrvalue_t;
 155:Generated_Source\PSoC5/cyfitter_cfg.c **** 
 156:Generated_Source\PSoC5/cyfitter_cfg.c **** #define cy_cfg_addr_table ((const uint32 CYFAR *)0x48000000u)
 157:Generated_Source\PSoC5/cyfitter_cfg.c **** #define cy_cfg_data_table ((const cy_cfg_addrvalue_t CYFAR *)0x48000050u)
 158:Generated_Source\PSoC5/cyfitter_cfg.c **** 
 159:Generated_Source\PSoC5/cyfitter_cfg.c **** /* IOPINS0_7 Address: CYREG_PRT12_DM0 Size (bytes): 8 */
 160:Generated_Source\PSoC5/cyfitter_cfg.c **** #define BS_IOPINS0_7_VAL ((const uint8 CYFAR *)0x48000128u)
 161:Generated_Source\PSoC5/cyfitter_cfg.c **** 
 162:Generated_Source\PSoC5/cyfitter_cfg.c **** /* IOPINS0_1 Address: CYREG_PRT1_DM0 Size (bytes): 8 */
 163:Generated_Source\PSoC5/cyfitter_cfg.c **** #define BS_IOPINS0_1_VAL ((const uint8 CYFAR *)0x48000130u)
 164:Generated_Source\PSoC5/cyfitter_cfg.c **** 
 165:Generated_Source\PSoC5/cyfitter_cfg.c **** /* IOPINS0_2 Address: CYREG_PRT2_DR Size (bytes): 10 */
 166:Generated_Source\PSoC5/cyfitter_cfg.c **** #define BS_IOPINS0_2_VAL ((const uint8 CYFAR *)0x48000138u)
 167:Generated_Source\PSoC5/cyfitter_cfg.c **** 
 168:Generated_Source\PSoC5/cyfitter_cfg.c **** /* IOPINS0_3 Address: CYREG_PRT3_DM0 Size (bytes): 8 */
 169:Generated_Source\PSoC5/cyfitter_cfg.c **** #define BS_IOPINS0_3_VAL ((const uint8 CYFAR *)0x48000144u)
 170:Generated_Source\PSoC5/cyfitter_cfg.c **** 
 171:Generated_Source\PSoC5/cyfitter_cfg.c **** /* CYDEV_CLKDIST_ACFG0_CFG0 Address: CYREG_CLKDIST_ACFG0_CFG0 Size (bytes): 4 */
 172:Generated_Source\PSoC5/cyfitter_cfg.c **** #define BS_CYDEV_CLKDIST_ACFG0_CFG0_VAL ((const uint8 CYFAR *)0x4800014Cu)
 173:Generated_Source\PSoC5/cyfitter_cfg.c **** 
 174:Generated_Source\PSoC5/cyfitter_cfg.c **** 
 175:Generated_Source\PSoC5/cyfitter_cfg.c **** /*******************************************************************************
 176:Generated_Source\PSoC5/cyfitter_cfg.c **** * Function Name: cfg_write_bytes32
 177:Generated_Source\PSoC5/cyfitter_cfg.c **** ********************************************************************************
 178:Generated_Source\PSoC5/cyfitter_cfg.c **** * Summary:
 179:Generated_Source\PSoC5/cyfitter_cfg.c **** *  This function is used for setting up the chip configuration areas that
 180:Generated_Source\PSoC5/cyfitter_cfg.c **** *  contain relatively sparse data.
 181:Generated_Source\PSoC5/cyfitter_cfg.c **** *
 182:Generated_Source\PSoC5/cyfitter_cfg.c **** * Parameters:
 183:Generated_Source\PSoC5/cyfitter_cfg.c **** *   void
 184:Generated_Source\PSoC5/cyfitter_cfg.c **** *
 185:Generated_Source\PSoC5/cyfitter_cfg.c **** * Return:
 186:Generated_Source\PSoC5/cyfitter_cfg.c **** *   void
 187:Generated_Source\PSoC5/cyfitter_cfg.c **** *
 188:Generated_Source\PSoC5/cyfitter_cfg.c **** *******************************************************************************/
 189:Generated_Source\PSoC5/cyfitter_cfg.c **** static void cfg_write_bytes32(const uint32 addr_table[], const cy_cfg_addrvalue_t data_table[]);
 190:Generated_Source\PSoC5/cyfitter_cfg.c **** static void cfg_write_bytes32(const uint32 addr_table[], const cy_cfg_addrvalue_t data_table[])
 191:Generated_Source\PSoC5/cyfitter_cfg.c **** {
  27              		.loc 1 191 0
  28              		.cfi_startproc
  29              		@ args = 0, pretend = 0, frame = 0
  30              		@ frame_needed = 0, uses_anonymous_args = 0
  31              		@ link register save eliminated.
  32              	.LVL0:
  33 0000 F0B4     		push	{r4, r5, r6, r7}
  34              		.cfi_def_cfa_offset 16
  35              		.cfi_offset 4, -16
  36              		.cfi_offset 5, -12
  37              		.cfi_offset 6, -8
ARM GAS  C:\Users\LASER_2\AppData\Local\Temp\cc2Ms9Th.s 			page 5


  38              		.cfi_offset 7, -4
  39              	.LVL1:
 192:Generated_Source\PSoC5/cyfitter_cfg.c **** 	/* For 32-bit little-endian architectures */
 193:Generated_Source\PSoC5/cyfitter_cfg.c **** 	uint32 i, j = 0u;
  40              		.loc 1 193 0
  41 0002 0022     		movs	r2, #0
 194:Generated_Source\PSoC5/cyfitter_cfg.c **** 	for (i = 0u; i < CY_CFG_BASE_ADDR_COUNT; i++)
  42              		.loc 1 194 0
  43 0004 1746     		mov	r7, r2
  44 0006 11E0     		b	.L2
  45              	.LVL2:
  46              	.L5:
  47              	.LBB2:
 195:Generated_Source\PSoC5/cyfitter_cfg.c **** 	{
 196:Generated_Source\PSoC5/cyfitter_cfg.c **** 		uint32 baseAddr = addr_table[i];
  48              		.loc 1 196 0
  49 0008 50F82760 		ldr	r6, [r0, r7, lsl #2]
  50              	.LVL3:
 197:Generated_Source\PSoC5/cyfitter_cfg.c **** 		uint8 count = (uint8)baseAddr;
  51              		.loc 1 197 0
  52 000c F3B2     		uxtb	r3, r6
  53              	.LVL4:
 198:Generated_Source\PSoC5/cyfitter_cfg.c **** 		baseAddr &= 0xFFFFFF00u;
  54              		.loc 1 198 0
  55 000e 26F0FF06 		bic	r6, r6, #255
  56              	.LVL5:
 199:Generated_Source\PSoC5/cyfitter_cfg.c **** 		while (count != 0u)
  57              		.loc 1 199 0
  58 0012 08E0     		b	.L3
  59              	.L4:
 200:Generated_Source\PSoC5/cyfitter_cfg.c **** 		{
 201:Generated_Source\PSoC5/cyfitter_cfg.c **** 			CY_SET_REG8((void *)(baseAddr + data_table[j].offset), data_table[j].value);
  60              		.loc 1 201 0
  61 0014 01EB4205 		add	r5, r1, r2, lsl #1
  62 0018 11F81240 		ldrb	r4, [r1, r2, lsl #1]	@ zero_extendqisi2
  63 001c 6D78     		ldrb	r5, [r5, #1]	@ zero_extendqisi2
  64 001e A555     		strb	r5, [r4, r6]
 202:Generated_Source\PSoC5/cyfitter_cfg.c **** 			j++;
  65              		.loc 1 202 0
  66 0020 0132     		adds	r2, r2, #1
  67              	.LVL6:
 203:Generated_Source\PSoC5/cyfitter_cfg.c **** 			count--;
  68              		.loc 1 203 0
  69 0022 013B     		subs	r3, r3, #1
  70              	.LVL7:
  71 0024 DBB2     		uxtb	r3, r3
  72              	.LVL8:
  73              	.L3:
 199:Generated_Source\PSoC5/cyfitter_cfg.c **** 		{
  74              		.loc 1 199 0
  75 0026 002B     		cmp	r3, #0
  76 0028 F4D1     		bne	.L4
  77              	.LBE2:
 194:Generated_Source\PSoC5/cyfitter_cfg.c **** 	{
  78              		.loc 1 194 0 discriminator 2
  79 002a 0137     		adds	r7, r7, #1
  80              	.LVL9:
ARM GAS  C:\Users\LASER_2\AppData\Local\Temp\cc2Ms9Th.s 			page 6


  81              	.L2:
 194:Generated_Source\PSoC5/cyfitter_cfg.c **** 	{
  82              		.loc 1 194 0 is_stmt 0 discriminator 1
  83 002c 132F     		cmp	r7, #19
  84 002e EBD9     		bls	.L5
 204:Generated_Source\PSoC5/cyfitter_cfg.c **** 		}
 205:Generated_Source\PSoC5/cyfitter_cfg.c **** 	}
 206:Generated_Source\PSoC5/cyfitter_cfg.c **** }
  85              		.loc 1 206 0 is_stmt 1
  86 0030 F0BC     		pop	{r4, r5, r6, r7}
  87              		.cfi_restore 7
  88              		.cfi_restore 6
  89              		.cfi_restore 5
  90              		.cfi_restore 4
  91              		.cfi_def_cfa_offset 0
  92              	.LVL10:
  93 0032 7047     		bx	lr
  94              		.cfi_endproc
  95              	.LFE3:
  96              		.size	cfg_write_bytes32, .-cfg_write_bytes32
  97              		.section	.text.CYMEMZERO,"ax",%progbits
  98              		.align	2
  99              		.thumb
 100              		.thumb_func
 101              		.type	CYMEMZERO, %function
 102              	CYMEMZERO:
 103              	.LFB0:
  76:Generated_Source\PSoC5/cyfitter_cfg.c **** 	(void)memset(s, 0, n);
 104              		.loc 1 76 0
 105              		.cfi_startproc
 106              		@ args = 0, pretend = 0, frame = 0
 107              		@ frame_needed = 0, uses_anonymous_args = 0
 108              	.LVL11:
 109 0000 08B5     		push	{r3, lr}
 110              		.cfi_def_cfa_offset 8
 111              		.cfi_offset 3, -8
 112              		.cfi_offset 14, -4
  77:Generated_Source\PSoC5/cyfitter_cfg.c **** }
 113              		.loc 1 77 0
 114 0002 0A46     		mov	r2, r1
 115 0004 0021     		movs	r1, #0
 116              	.LVL12:
 117 0006 FFF7FEFF 		bl	memset
 118              	.LVL13:
 119 000a 08BD     		pop	{r3, pc}
 120              		.cfi_endproc
 121              	.LFE0:
 122              		.size	CYMEMZERO, .-CYMEMZERO
 123              		.section	.text.AnalogSetDefault,"ax",%progbits
 124              		.align	2
 125              		.thumb
 126              		.thumb_func
 127              		.type	AnalogSetDefault, %function
 128              	AnalogSetDefault:
 129              	.LFB5:
 207:Generated_Source\PSoC5/cyfitter_cfg.c **** 
 208:Generated_Source\PSoC5/cyfitter_cfg.c **** /*******************************************************************************
ARM GAS  C:\Users\LASER_2\AppData\Local\Temp\cc2Ms9Th.s 			page 7


 209:Generated_Source\PSoC5/cyfitter_cfg.c **** * Function Name: ClockSetup
 210:Generated_Source\PSoC5/cyfitter_cfg.c **** ********************************************************************************
 211:Generated_Source\PSoC5/cyfitter_cfg.c **** *
 212:Generated_Source\PSoC5/cyfitter_cfg.c **** * Summary:
 213:Generated_Source\PSoC5/cyfitter_cfg.c **** *  Performs the initialization of all of the clocks in the device based on the
 214:Generated_Source\PSoC5/cyfitter_cfg.c **** *  settings in the Clock tab of the DWR.  This includes enabling the requested
 215:Generated_Source\PSoC5/cyfitter_cfg.c **** *  clocks and setting the necessary dividers to produce the desired frequency. 
 216:Generated_Source\PSoC5/cyfitter_cfg.c **** *
 217:Generated_Source\PSoC5/cyfitter_cfg.c **** * Parameters:
 218:Generated_Source\PSoC5/cyfitter_cfg.c **** *  void
 219:Generated_Source\PSoC5/cyfitter_cfg.c **** *
 220:Generated_Source\PSoC5/cyfitter_cfg.c **** * Return:
 221:Generated_Source\PSoC5/cyfitter_cfg.c **** *  void
 222:Generated_Source\PSoC5/cyfitter_cfg.c **** *
 223:Generated_Source\PSoC5/cyfitter_cfg.c **** *******************************************************************************/
 224:Generated_Source\PSoC5/cyfitter_cfg.c **** static void ClockSetup(void);
 225:Generated_Source\PSoC5/cyfitter_cfg.c **** static void ClockSetup(void)
 226:Generated_Source\PSoC5/cyfitter_cfg.c **** {
 227:Generated_Source\PSoC5/cyfitter_cfg.c **** 
 228:Generated_Source\PSoC5/cyfitter_cfg.c **** 
 229:Generated_Source\PSoC5/cyfitter_cfg.c **** 	/* Configure Digital Clocks based on settings from Clock DWR */
 230:Generated_Source\PSoC5/cyfitter_cfg.c **** 	CY_SET_XTND_REG16((void CYFAR *)(CYREG_CLKDIST_DCFG0_CFG0), 0x02EAu);
 231:Generated_Source\PSoC5/cyfitter_cfg.c **** 	CY_SET_XTND_REG8((void CYFAR *)(CYREG_CLKDIST_DCFG0_CFG0 + 0x2u), 0x18u);
 232:Generated_Source\PSoC5/cyfitter_cfg.c **** 	CY_SET_XTND_REG16((void CYFAR *)(CYREG_CLKDIST_DCFG1_CFG0), 0x1D2Du);
 233:Generated_Source\PSoC5/cyfitter_cfg.c **** 	CY_SET_XTND_REG8((void CYFAR *)(CYREG_CLKDIST_DCFG1_CFG0 + 0x2u), 0x18u);
 234:Generated_Source\PSoC5/cyfitter_cfg.c **** 
 235:Generated_Source\PSoC5/cyfitter_cfg.c **** 	/* Configure Analog Clocks based on settings from Clock DWR */
 236:Generated_Source\PSoC5/cyfitter_cfg.c **** 	CYCONFIGCPY((void CYFAR *)(CYREG_CLKDIST_ACFG0_CFG0), (const void CYFAR *)(BS_CYDEV_CLKDIST_ACFG0_
 237:Generated_Source\PSoC5/cyfitter_cfg.c **** 
 238:Generated_Source\PSoC5/cyfitter_cfg.c **** 	/* Configure ILO based on settings from Clock DWR */
 239:Generated_Source\PSoC5/cyfitter_cfg.c **** 	CY_SET_XTND_REG8((void CYFAR *)(CYREG_SLOWCLK_ILO_CR0), 0x02u);
 240:Generated_Source\PSoC5/cyfitter_cfg.c **** 	CY_SET_XTND_REG8((void CYFAR *)(CYREG_CLKDIST_CR), 0x08u);
 241:Generated_Source\PSoC5/cyfitter_cfg.c **** 
 242:Generated_Source\PSoC5/cyfitter_cfg.c **** 	/* Configure IMO based on settings from Clock DWR */
 243:Generated_Source\PSoC5/cyfitter_cfg.c **** 	CY_SET_XTND_REG8((void CYFAR *)(CYREG_IMO_TR1), (CY_GET_XTND_REG8((void CYFAR *)CYREG_FLSHID_CUST_
 244:Generated_Source\PSoC5/cyfitter_cfg.c **** 	CY_SET_XTND_REG8((void CYFAR *)(CYREG_FASTCLK_IMO_CR), 0x06u);
 245:Generated_Source\PSoC5/cyfitter_cfg.c **** 
 246:Generated_Source\PSoC5/cyfitter_cfg.c **** 	/* Configure Bus/Master Clock based on settings from Clock DWR */
 247:Generated_Source\PSoC5/cyfitter_cfg.c **** 	CY_SET_XTND_REG16((void CYFAR *)(CYREG_CLKDIST_MSTR0), 0x0000u);
 248:Generated_Source\PSoC5/cyfitter_cfg.c **** 	CY_SET_XTND_REG8((void CYFAR *)(CYREG_CLKDIST_MSTR0), 0x07u);
 249:Generated_Source\PSoC5/cyfitter_cfg.c **** 	CY_SET_XTND_REG8((void CYFAR *)(CYREG_CLKDIST_BCFG0), 0x00u);
 250:Generated_Source\PSoC5/cyfitter_cfg.c **** 	CY_SET_XTND_REG8((void CYFAR *)(CYREG_CLKDIST_BCFG2), 0x48u);
 251:Generated_Source\PSoC5/cyfitter_cfg.c **** 	CY_SET_XTND_REG8((void CYFAR *)(CYREG_CLKDIST_MSTR0), 0x00u);
 252:Generated_Source\PSoC5/cyfitter_cfg.c **** 	CY_SET_XTND_REG8((void CYFAR *)(CYREG_CLKDIST_LD), 0x02u);
 253:Generated_Source\PSoC5/cyfitter_cfg.c **** 	CY_SET_XTND_REG8((void CYFAR *)(CYREG_CLKDIST_DLY1), 0x04u);
 254:Generated_Source\PSoC5/cyfitter_cfg.c **** 
 255:Generated_Source\PSoC5/cyfitter_cfg.c **** 	CY_SET_XTND_REG8((void CYFAR *)(CYREG_PM_ACT_CFG2), ((CY_GET_XTND_REG8((void CYFAR *)CYREG_PM_ACT_
 256:Generated_Source\PSoC5/cyfitter_cfg.c **** 	CY_SET_XTND_REG8((void CYFAR *)(CYREG_PM_ACT_CFG1), ((CY_GET_XTND_REG8((void CYFAR *)CYREG_PM_ACT_
 257:Generated_Source\PSoC5/cyfitter_cfg.c **** 	CY_SET_XTND_REG8((void CYFAR *)(CYREG_PM_ACT_CFG0), ((CY_GET_XTND_REG8((void CYFAR *)CYREG_PM_ACT_
 258:Generated_Source\PSoC5/cyfitter_cfg.c **** }
 259:Generated_Source\PSoC5/cyfitter_cfg.c **** 
 260:Generated_Source\PSoC5/cyfitter_cfg.c **** 
 261:Generated_Source\PSoC5/cyfitter_cfg.c **** /* Analog API Functions */
 262:Generated_Source\PSoC5/cyfitter_cfg.c **** 
 263:Generated_Source\PSoC5/cyfitter_cfg.c **** 
 264:Generated_Source\PSoC5/cyfitter_cfg.c **** /*******************************************************************************
 265:Generated_Source\PSoC5/cyfitter_cfg.c **** * Function Name: AnalogSetDefault
ARM GAS  C:\Users\LASER_2\AppData\Local\Temp\cc2Ms9Th.s 			page 8


 266:Generated_Source\PSoC5/cyfitter_cfg.c **** ********************************************************************************
 267:Generated_Source\PSoC5/cyfitter_cfg.c **** *
 268:Generated_Source\PSoC5/cyfitter_cfg.c **** * Summary:
 269:Generated_Source\PSoC5/cyfitter_cfg.c **** *  Sets up the analog portions of the chip to default values based on chip
 270:Generated_Source\PSoC5/cyfitter_cfg.c **** *  configuration options from the project.
 271:Generated_Source\PSoC5/cyfitter_cfg.c **** *
 272:Generated_Source\PSoC5/cyfitter_cfg.c **** * Parameters:
 273:Generated_Source\PSoC5/cyfitter_cfg.c **** *  void
 274:Generated_Source\PSoC5/cyfitter_cfg.c **** *
 275:Generated_Source\PSoC5/cyfitter_cfg.c **** * Return:
 276:Generated_Source\PSoC5/cyfitter_cfg.c **** *  void
 277:Generated_Source\PSoC5/cyfitter_cfg.c **** *
 278:Generated_Source\PSoC5/cyfitter_cfg.c **** *******************************************************************************/
 279:Generated_Source\PSoC5/cyfitter_cfg.c **** static void AnalogSetDefault(void);
 280:Generated_Source\PSoC5/cyfitter_cfg.c **** static void AnalogSetDefault(void)
 281:Generated_Source\PSoC5/cyfitter_cfg.c **** {
 130              		.loc 1 281 0
 131              		.cfi_startproc
 132              		@ args = 0, pretend = 0, frame = 0
 133              		@ frame_needed = 0, uses_anonymous_args = 0
 134 0000 F8B5     		push	{r3, r4, r5, r6, r7, lr}
 135              		.cfi_def_cfa_offset 24
 136              		.cfi_offset 3, -24
 137              		.cfi_offset 4, -20
 138              		.cfi_offset 5, -16
 139              		.cfi_offset 6, -12
 140              		.cfi_offset 7, -8
 141              		.cfi_offset 14, -4
 282:Generated_Source\PSoC5/cyfitter_cfg.c **** 	uint8 bg_xover_inl_trim = CY_GET_XTND_REG8((void CYFAR *)(CYREG_FLSHID_MFG_CFG_BG_XOVER_INL_TRIM +
 142              		.loc 1 282 0
 143 0002 1B4B     		ldr	r3, .L11
 144 0004 1B78     		ldrb	r3, [r3]	@ zero_extendqisi2
 145 0006 DBB2     		uxtb	r3, r3
 146              	.LVL14:
 283:Generated_Source\PSoC5/cyfitter_cfg.c **** 	uint8 cr4 = CY_GET_XTND_REG8((void CYFAR *)(CYREG_RESET_CR4));
 147              		.loc 1 283 0
 148 0008 1A4E     		ldr	r6, .L11+4
 149 000a 3478     		ldrb	r4, [r6]	@ zero_extendqisi2
 150 000c E4B2     		uxtb	r4, r4
 151              	.LVL15:
 284:Generated_Source\PSoC5/cyfitter_cfg.c **** 	uint8 cr5 = CY_GET_XTND_REG8((void CYFAR *)(CYREG_RESET_CR5));
 152              		.loc 1 284 0
 153 000e 1A4F     		ldr	r7, .L11+8
 154 0010 3D78     		ldrb	r5, [r7]	@ zero_extendqisi2
 155 0012 EDB2     		uxtb	r5, r5
 156              	.LVL16:
 285:Generated_Source\PSoC5/cyfitter_cfg.c **** 	CY_SET_XTND_REG8((void CYFAR *)(CYREG_BG_DFT0), (bg_xover_inl_trim & 0x07u));
 157              		.loc 1 285 0
 158 0014 03F00701 		and	r1, r3, #7
 159 0018 184A     		ldr	r2, .L11+12
 160 001a 1170     		strb	r1, [r2]
 286:Generated_Source\PSoC5/cyfitter_cfg.c **** 	CY_SET_XTND_REG8((void CYFAR *)(CYREG_BG_DFT1), ((bg_xover_inl_trim >> 4) & 0x0Fu));
 161              		.loc 1 286 0
 162 001c 1B09     		lsrs	r3, r3, #4
 163              	.LVL17:
 164 001e 0132     		adds	r2, r2, #1
 165 0020 1370     		strb	r3, [r2]
ARM GAS  C:\Users\LASER_2\AppData\Local\Temp\cc2Ms9Th.s 			page 9


 287:Generated_Source\PSoC5/cyfitter_cfg.c **** 	/* Disable PRES while setting up SAR voltage reference */
 288:Generated_Source\PSoC5/cyfitter_cfg.c **** 	CY_SET_XTND_REG8((void CYFAR *)(CYREG_RESET_CR4), (cr4 | 0x03u));
 166              		.loc 1 288 0
 167 0022 44F00303 		orr	r3, r4, #3
 168 0026 3370     		strb	r3, [r6]
 289:Generated_Source\PSoC5/cyfitter_cfg.c **** 	CY_SET_XTND_REG8((void CYFAR *)(CYREG_RESET_CR5), (cr5 | 0x03u));
 169              		.loc 1 289 0
 170 0028 45F00303 		orr	r3, r5, #3
 171 002c 3B70     		strb	r3, [r7]
 290:Generated_Source\PSoC5/cyfitter_cfg.c **** 	CY_SET_XTND_REG16((void CYFAR *)CYREG_PRT1_AMUX, 0x8040u);
 172              		.loc 1 290 0
 173 002e 48F24002 		movw	r2, #32832
 174 0032 134B     		ldr	r3, .L11+16
 175 0034 1A80     		strh	r2, [r3]	@ movhi
 291:Generated_Source\PSoC5/cyfitter_cfg.c **** 	CY_SET_XTND_REG8((void CYFAR *)CYREG_PRT3_AG, 0x02u);
 176              		.loc 1 291 0
 177 0036 0222     		movs	r2, #2
 178 0038 2133     		adds	r3, r3, #33
 179 003a 1A70     		strb	r2, [r3]
 292:Generated_Source\PSoC5/cyfitter_cfg.c **** 	CY_SET_XTND_REG8((void CYFAR *)CYREG_SAR1_CSR1, 0x40u);
 180              		.loc 1 292 0
 181 003c 4023     		movs	r3, #64
 182 003e 114A     		ldr	r2, .L11+20
 183 0040 1370     		strb	r3, [r2]
 293:Generated_Source\PSoC5/cyfitter_cfg.c **** 	CY_SET_XTND_REG8((void CYFAR *)CYREG_SAR1_CSR3, 0x40u);
 184              		.loc 1 293 0
 185 0042 0232     		adds	r2, r2, #2
 186 0044 1370     		strb	r3, [r2]
 294:Generated_Source\PSoC5/cyfitter_cfg.c **** 	CY_SET_XTND_REG8((void CYFAR *)CYREG_DAC1_SW3, 0x01u);
 187              		.loc 1 294 0
 188 0046 0122     		movs	r2, #1
 189 0048 0F4B     		ldr	r3, .L11+24
 190 004a 1A70     		strb	r2, [r3]
 295:Generated_Source\PSoC5/cyfitter_cfg.c **** 	CY_SET_XTND_REG8((void CYFAR *)CYREG_DAC3_SW0, 0x20u);
 191              		.loc 1 295 0
 192 004c 2023     		movs	r3, #32
 193 004e 0F4A     		ldr	r2, .L11+28
 194 0050 1370     		strb	r3, [r2]
 296:Generated_Source\PSoC5/cyfitter_cfg.c **** 	CY_SET_XTND_REG8((void CYFAR *)CYREG_SAR1_SW0, 0x08u);
 195              		.loc 1 296 0
 196 0052 0821     		movs	r1, #8
 197 0054 9032     		adds	r2, r2, #144
 198 0056 1170     		strb	r1, [r2]
 297:Generated_Source\PSoC5/cyfitter_cfg.c **** 	CY_SET_XTND_REG8((void CYFAR *)CYREG_SAR1_SW3, 0x20u);
 199              		.loc 1 297 0
 200 0058 0332     		adds	r2, r2, #3
 201 005a 1370     		strb	r3, [r2]
 298:Generated_Source\PSoC5/cyfitter_cfg.c **** 	CyDelayUs(10u); /* Allow vref to settle before re-enabling PRES */
 202              		.loc 1 298 0
 203 005c 0A20     		movs	r0, #10
 204 005e FFF7FEFF 		bl	CyDelayUs
 205              	.LVL18:
 299:Generated_Source\PSoC5/cyfitter_cfg.c **** 	CY_SET_XTND_REG8((void CYFAR *)(CYREG_RESET_CR5), (cr5));
 206              		.loc 1 299 0
 207 0062 3D70     		strb	r5, [r7]
 300:Generated_Source\PSoC5/cyfitter_cfg.c **** 	CY_SET_XTND_REG8((void CYFAR *)(CYREG_RESET_CR4), (cr4));
 208              		.loc 1 300 0
ARM GAS  C:\Users\LASER_2\AppData\Local\Temp\cc2Ms9Th.s 			page 10


 209 0064 3470     		strb	r4, [r6]
 301:Generated_Source\PSoC5/cyfitter_cfg.c **** 	CY_SET_XTND_REG8((void CYFAR *)CYREG_PUMP_CR0, 0x44u);
 210              		.loc 1 301 0
 211 0066 4422     		movs	r2, #68
 212 0068 094B     		ldr	r3, .L11+32
 213 006a 1A70     		strb	r2, [r3]
 214 006c F8BD     		pop	{r3, r4, r5, r6, r7, pc}
 215              	.LVL19:
 216              	.L12:
 217 006e 00BF     		.align	2
 218              	.L11:
 219 0070 CF010049 		.word	1224737231
 220 0074 F8460040 		.word	1073759992
 221 0078 F9460040 		.word	1073759993
 222 007c 6E580040 		.word	1073764462
 223 0080 1C510040 		.word	1073762588
 224 0084 09590040 		.word	1073764617
 225 0088 8B5A0040 		.word	1073765003
 226 008c 985A0040 		.word	1073765016
 227 0090 76580040 		.word	1073764470
 228              		.cfi_endproc
 229              	.LFE5:
 230              		.size	AnalogSetDefault, .-AnalogSetDefault
 231              		.section	.text.CYCONFIGCPY,"ax",%progbits
 232              		.align	2
 233              		.thumb
 234              		.thumb_func
 235              		.type	CYCONFIGCPY, %function
 236              	CYCONFIGCPY:
 237              	.LFB1:
  83:Generated_Source\PSoC5/cyfitter_cfg.c **** 	(void)memcpy(dest, src, n);
 238              		.loc 1 83 0
 239              		.cfi_startproc
 240              		@ args = 0, pretend = 0, frame = 0
 241              		@ frame_needed = 0, uses_anonymous_args = 0
 242              	.LVL20:
 243 0000 08B5     		push	{r3, lr}
 244              		.cfi_def_cfa_offset 8
 245              		.cfi_offset 3, -8
 246              		.cfi_offset 14, -4
  84:Generated_Source\PSoC5/cyfitter_cfg.c **** }
 247              		.loc 1 84 0
 248 0002 FFF7FEFF 		bl	memcpy
 249              	.LVL21:
 250 0006 08BD     		pop	{r3, pc}
 251              		.cfi_endproc
 252              	.LFE1:
 253              		.size	CYCONFIGCPY, .-CYCONFIGCPY
 254              		.section	.text.ClockSetup,"ax",%progbits
 255              		.align	2
 256              		.thumb
 257              		.thumb_func
 258              		.type	ClockSetup, %function
 259              	ClockSetup:
 260              	.LFB4:
 226:Generated_Source\PSoC5/cyfitter_cfg.c **** 
 261              		.loc 1 226 0
ARM GAS  C:\Users\LASER_2\AppData\Local\Temp\cc2Ms9Th.s 			page 11


 262              		.cfi_startproc
 263              		@ args = 0, pretend = 0, frame = 0
 264              		@ frame_needed = 0, uses_anonymous_args = 0
 265 0000 10B5     		push	{r4, lr}
 266              		.cfi_def_cfa_offset 8
 267              		.cfi_offset 4, -8
 268              		.cfi_offset 14, -4
 230:Generated_Source\PSoC5/cyfitter_cfg.c **** 	CY_SET_XTND_REG8((void CYFAR *)(CYREG_CLKDIST_DCFG0_CFG0 + 0x2u), 0x18u);
 269              		.loc 1 230 0
 270 0002 40F2EA22 		movw	r2, #746
 271 0006 204B     		ldr	r3, .L17
 272 0008 1A80     		strh	r2, [r3]	@ movhi
 231:Generated_Source\PSoC5/cyfitter_cfg.c **** 	CY_SET_XTND_REG16((void CYFAR *)(CYREG_CLKDIST_DCFG1_CFG0), 0x1D2Du);
 273              		.loc 1 231 0
 274 000a 1823     		movs	r3, #24
 275 000c 1F4A     		ldr	r2, .L17+4
 276 000e 1370     		strb	r3, [r2]
 232:Generated_Source\PSoC5/cyfitter_cfg.c **** 	CY_SET_XTND_REG8((void CYFAR *)(CYREG_CLKDIST_DCFG1_CFG0 + 0x2u), 0x18u);
 277              		.loc 1 232 0
 278 0010 41F62D51 		movw	r1, #7469
 279 0014 0232     		adds	r2, r2, #2
 280 0016 1180     		strh	r1, [r2]	@ movhi
 233:Generated_Source\PSoC5/cyfitter_cfg.c **** 
 281              		.loc 1 233 0
 282 0018 0232     		adds	r2, r2, #2
 283 001a 1370     		strb	r3, [r2]
 236:Generated_Source\PSoC5/cyfitter_cfg.c **** 
 284              		.loc 1 236 0
 285 001c 0422     		movs	r2, #4
 286 001e 1C49     		ldr	r1, .L17+8
 287 0020 1C48     		ldr	r0, .L17+12
 288 0022 FFF7FEFF 		bl	CYCONFIGCPY
 289              	.LVL22:
 239:Generated_Source\PSoC5/cyfitter_cfg.c **** 	CY_SET_XTND_REG8((void CYFAR *)(CYREG_CLKDIST_CR), 0x08u);
 290              		.loc 1 239 0
 291 0026 0221     		movs	r1, #2
 292 0028 1B4B     		ldr	r3, .L17+16
 293 002a 1970     		strb	r1, [r3]
 240:Generated_Source\PSoC5/cyfitter_cfg.c **** 
 294              		.loc 1 240 0
 295 002c 0822     		movs	r2, #8
 296 002e 4FF04023 		mov	r3, #1073758208
 297 0032 1A70     		strb	r2, [r3]
 243:Generated_Source\PSoC5/cyfitter_cfg.c **** 	CY_SET_XTND_REG8((void CYFAR *)(CYREG_FASTCLK_IMO_CR), 0x06u);
 298              		.loc 1 243 0
 299 0034 194B     		ldr	r3, .L17+20
 300 0036 1B78     		ldrb	r3, [r3]	@ zero_extendqisi2
 301 0038 DBB2     		uxtb	r3, r3
 302 003a 194A     		ldr	r2, .L17+24
 303 003c 1370     		strb	r3, [r2]
 244:Generated_Source\PSoC5/cyfitter_cfg.c **** 
 304              		.loc 1 244 0
 305 003e 0622     		movs	r2, #6
 306 0040 184B     		ldr	r3, .L17+28
 307 0042 1A70     		strb	r2, [r3]
 247:Generated_Source\PSoC5/cyfitter_cfg.c **** 	CY_SET_XTND_REG8((void CYFAR *)(CYREG_CLKDIST_MSTR0), 0x07u);
 308              		.loc 1 247 0
ARM GAS  C:\Users\LASER_2\AppData\Local\Temp\cc2Ms9Th.s 			page 12


 309 0044 A3F5FE73 		sub	r3, r3, #508
 310 0048 0022     		movs	r2, #0
 311 004a 1A80     		strh	r2, [r3]	@ movhi
 248:Generated_Source\PSoC5/cyfitter_cfg.c **** 	CY_SET_XTND_REG8((void CYFAR *)(CYREG_CLKDIST_BCFG0), 0x00u);
 312              		.loc 1 248 0
 313 004c 0720     		movs	r0, #7
 314 004e 1870     		strb	r0, [r3]
 249:Generated_Source\PSoC5/cyfitter_cfg.c **** 	CY_SET_XTND_REG8((void CYFAR *)(CYREG_CLKDIST_BCFG2), 0x48u);
 315              		.loc 1 249 0
 316 0050 1548     		ldr	r0, .L17+32
 317 0052 0270     		strb	r2, [r0]
 250:Generated_Source\PSoC5/cyfitter_cfg.c **** 	CY_SET_XTND_REG8((void CYFAR *)(CYREG_CLKDIST_MSTR0), 0x00u);
 318              		.loc 1 250 0
 319 0054 4824     		movs	r4, #72
 320 0056 0230     		adds	r0, r0, #2
 321 0058 0470     		strb	r4, [r0]
 251:Generated_Source\PSoC5/cyfitter_cfg.c **** 	CY_SET_XTND_REG8((void CYFAR *)(CYREG_CLKDIST_LD), 0x02u);
 322              		.loc 1 251 0
 323 005a 1A70     		strb	r2, [r3]
 252:Generated_Source\PSoC5/cyfitter_cfg.c **** 	CY_SET_XTND_REG8((void CYFAR *)(CYREG_CLKDIST_DLY1), 0x04u);
 324              		.loc 1 252 0
 325 005c 033B     		subs	r3, r3, #3
 326 005e 1970     		strb	r1, [r3]
 253:Generated_Source\PSoC5/cyfitter_cfg.c **** 
 327              		.loc 1 253 0
 328 0060 0422     		movs	r2, #4
 329 0062 0A33     		adds	r3, r3, #10
 330 0064 1A70     		strb	r2, [r3]
 255:Generated_Source\PSoC5/cyfitter_cfg.c **** 	CY_SET_XTND_REG8((void CYFAR *)(CYREG_PM_ACT_CFG1), ((CY_GET_XTND_REG8((void CYFAR *)CYREG_PM_ACT_
 331              		.loc 1 255 0
 332 0066 114A     		ldr	r2, .L17+36
 333 0068 1378     		ldrb	r3, [r2]	@ zero_extendqisi2
 334 006a 43F00303 		orr	r3, r3, #3
 335 006e 1370     		strb	r3, [r2]
 256:Generated_Source\PSoC5/cyfitter_cfg.c **** 	CY_SET_XTND_REG8((void CYFAR *)(CYREG_PM_ACT_CFG0), ((CY_GET_XTND_REG8((void CYFAR *)CYREG_PM_ACT_
 336              		.loc 1 256 0
 337 0070 013A     		subs	r2, r2, #1
 338 0072 1378     		ldrb	r3, [r2]	@ zero_extendqisi2
 339 0074 43F00103 		orr	r3, r3, #1
 340 0078 1370     		strb	r3, [r2]
 257:Generated_Source\PSoC5/cyfitter_cfg.c **** }
 341              		.loc 1 257 0
 342 007a 013A     		subs	r2, r2, #1
 343 007c 1378     		ldrb	r3, [r2]	@ zero_extendqisi2
 344 007e 43F08003 		orr	r3, r3, #128
 345 0082 1370     		strb	r3, [r2]
 346 0084 10BD     		pop	{r4, pc}
 347              	.L18:
 348 0086 00BF     		.align	2
 349              	.L17:
 350 0088 80400040 		.word	1073758336
 351 008c 82400040 		.word	1073758338
 352 0090 4C010048 		.word	1207959884
 353 0094 00410040 		.word	1073758464
 354 0098 00430040 		.word	1073758976
 355 009c 0D010049 		.word	1224737037
 356 00a0 A1460040 		.word	1073759905
ARM GAS  C:\Users\LASER_2\AppData\Local\Temp\cc2Ms9Th.s 			page 13


 357 00a4 00420040 		.word	1073758720
 358 00a8 06400040 		.word	1073758214
 359 00ac A2430040 		.word	1073759138
 360              		.cfi_endproc
 361              	.LFE4:
 362              		.size	ClockSetup, .-ClockSetup
 363              		.section	.text.SetAnalogRoutingPumps,"ax",%progbits
 364              		.align	2
 365              		.global	SetAnalogRoutingPumps
 366              		.thumb
 367              		.thumb_func
 368              		.type	SetAnalogRoutingPumps, %function
 369              	SetAnalogRoutingPumps:
 370              	.LFB6:
 302:Generated_Source\PSoC5/cyfitter_cfg.c **** }
 303:Generated_Source\PSoC5/cyfitter_cfg.c **** 
 304:Generated_Source\PSoC5/cyfitter_cfg.c **** 
 305:Generated_Source\PSoC5/cyfitter_cfg.c **** /*******************************************************************************
 306:Generated_Source\PSoC5/cyfitter_cfg.c **** * Function Name: SetAnalogRoutingPumps
 307:Generated_Source\PSoC5/cyfitter_cfg.c **** ********************************************************************************
 308:Generated_Source\PSoC5/cyfitter_cfg.c **** *
 309:Generated_Source\PSoC5/cyfitter_cfg.c **** * Summary:
 310:Generated_Source\PSoC5/cyfitter_cfg.c **** * Enables or disables the analog pumps feeding analog routing switches.
 311:Generated_Source\PSoC5/cyfitter_cfg.c **** * Intended to be called at startup, based on the Vdda system configuration;
 312:Generated_Source\PSoC5/cyfitter_cfg.c **** * may be called during operation when the user informs us that the Vdda voltage
 313:Generated_Source\PSoC5/cyfitter_cfg.c **** * crossed the pump threshold.
 314:Generated_Source\PSoC5/cyfitter_cfg.c **** *
 315:Generated_Source\PSoC5/cyfitter_cfg.c **** * Parameters:
 316:Generated_Source\PSoC5/cyfitter_cfg.c **** *  enabled - 1 to enable the pumps, 0 to disable the pumps
 317:Generated_Source\PSoC5/cyfitter_cfg.c **** *
 318:Generated_Source\PSoC5/cyfitter_cfg.c **** * Return:
 319:Generated_Source\PSoC5/cyfitter_cfg.c **** *  void
 320:Generated_Source\PSoC5/cyfitter_cfg.c **** *
 321:Generated_Source\PSoC5/cyfitter_cfg.c **** *******************************************************************************/
 322:Generated_Source\PSoC5/cyfitter_cfg.c **** void SetAnalogRoutingPumps(uint8 enabled)
 323:Generated_Source\PSoC5/cyfitter_cfg.c **** {
 371              		.loc 1 323 0
 372              		.cfi_startproc
 373              		@ args = 0, pretend = 0, frame = 0
 374              		@ frame_needed = 0, uses_anonymous_args = 0
 375              		@ link register save eliminated.
 376              	.LVL23:
 324:Generated_Source\PSoC5/cyfitter_cfg.c **** 	uint8 regValue = CY_GET_XTND_REG8((void CYFAR *)CYREG_PUMP_CR0);
 377              		.loc 1 324 0
 378 0000 054B     		ldr	r3, .L22
 379 0002 1B78     		ldrb	r3, [r3]	@ zero_extendqisi2
 380 0004 DBB2     		uxtb	r3, r3
 381              	.LVL24:
 325:Generated_Source\PSoC5/cyfitter_cfg.c **** 	if (enabled != 0u)
 382              		.loc 1 325 0
 383 0006 10B1     		cbz	r0, .L20
 326:Generated_Source\PSoC5/cyfitter_cfg.c **** 	{
 327:Generated_Source\PSoC5/cyfitter_cfg.c **** 		regValue |= 0x22u;
 384              		.loc 1 327 0
 385 0008 43F02203 		orr	r3, r3, #34
 386              	.LVL25:
 387 000c 01E0     		b	.L21
ARM GAS  C:\Users\LASER_2\AppData\Local\Temp\cc2Ms9Th.s 			page 14


 388              	.L20:
 328:Generated_Source\PSoC5/cyfitter_cfg.c **** 	}
 329:Generated_Source\PSoC5/cyfitter_cfg.c **** 	else
 330:Generated_Source\PSoC5/cyfitter_cfg.c **** 	{
 331:Generated_Source\PSoC5/cyfitter_cfg.c **** 		regValue &= (uint8)~0x22u;
 389              		.loc 1 331 0
 390 000e 03F0DD03 		and	r3, r3, #221
 391              	.LVL26:
 392              	.L21:
 332:Generated_Source\PSoC5/cyfitter_cfg.c **** 	}
 333:Generated_Source\PSoC5/cyfitter_cfg.c **** 	CY_SET_XTND_REG8((void CYFAR *)CYREG_PUMP_CR0, regValue);
 393              		.loc 1 333 0
 394 0012 014A     		ldr	r2, .L22
 395 0014 1370     		strb	r3, [r2]
 396 0016 7047     		bx	lr
 397              	.L23:
 398              		.align	2
 399              	.L22:
 400 0018 76580040 		.word	1073764470
 401              		.cfi_endproc
 402              	.LFE6:
 403              		.size	SetAnalogRoutingPumps, .-SetAnalogRoutingPumps
 404              		.section	.text.cyfitter_cfg,"ax",%progbits
 405              		.align	2
 406              		.global	cyfitter_cfg
 407              		.thumb
 408              		.thumb_func
 409              		.type	cyfitter_cfg, %function
 410              	cyfitter_cfg:
 411              	.LFB7:
 334:Generated_Source\PSoC5/cyfitter_cfg.c **** }
 335:Generated_Source\PSoC5/cyfitter_cfg.c **** 
 336:Generated_Source\PSoC5/cyfitter_cfg.c **** 
 337:Generated_Source\PSoC5/cyfitter_cfg.c **** 
 338:Generated_Source\PSoC5/cyfitter_cfg.c **** 
 339:Generated_Source\PSoC5/cyfitter_cfg.c **** /*******************************************************************************
 340:Generated_Source\PSoC5/cyfitter_cfg.c **** * Function Name: cyfitter_cfg
 341:Generated_Source\PSoC5/cyfitter_cfg.c **** ********************************************************************************
 342:Generated_Source\PSoC5/cyfitter_cfg.c **** * Summary:
 343:Generated_Source\PSoC5/cyfitter_cfg.c **** *  This function is called by the start-up code for the selected device. It
 344:Generated_Source\PSoC5/cyfitter_cfg.c **** *  performs all of the necessary device configuration based on the design
 345:Generated_Source\PSoC5/cyfitter_cfg.c **** *  settings.  This includes settings from the Design Wide Resources (DWR) such
 346:Generated_Source\PSoC5/cyfitter_cfg.c **** *  as Clocks and Pins as well as any component configuration that is necessary.
 347:Generated_Source\PSoC5/cyfitter_cfg.c **** *
 348:Generated_Source\PSoC5/cyfitter_cfg.c **** * Parameters:
 349:Generated_Source\PSoC5/cyfitter_cfg.c **** *   void
 350:Generated_Source\PSoC5/cyfitter_cfg.c **** *
 351:Generated_Source\PSoC5/cyfitter_cfg.c **** * Return:
 352:Generated_Source\PSoC5/cyfitter_cfg.c **** *   void
 353:Generated_Source\PSoC5/cyfitter_cfg.c **** *
 354:Generated_Source\PSoC5/cyfitter_cfg.c **** *******************************************************************************/
 355:Generated_Source\PSoC5/cyfitter_cfg.c **** 
 356:Generated_Source\PSoC5/cyfitter_cfg.c **** void cyfitter_cfg(void)
 357:Generated_Source\PSoC5/cyfitter_cfg.c **** {
 412              		.loc 1 357 0
 413              		.cfi_startproc
 414              		@ args = 0, pretend = 0, frame = 0
ARM GAS  C:\Users\LASER_2\AppData\Local\Temp\cc2Ms9Th.s 			page 15


 415              		@ frame_needed = 0, uses_anonymous_args = 0
 416 0000 38B5     		push	{r3, r4, r5, lr}
 417              		.cfi_def_cfa_offset 16
 418              		.cfi_offset 3, -16
 419              		.cfi_offset 4, -12
 420              		.cfi_offset 5, -8
 421              		.cfi_offset 14, -4
 358:Generated_Source\PSoC5/cyfitter_cfg.c **** #ifdef CYGlobalIntDisable
 359:Generated_Source\PSoC5/cyfitter_cfg.c **** 	/* Disable interrupts by default. Let user enable if/when they want. */
 360:Generated_Source\PSoC5/cyfitter_cfg.c **** 	CYGlobalIntDisable
 422              		.loc 1 360 0
 423              		.syntax unified
 424              	@ 360 "Generated_Source\PSoC5\cyfitter_cfg.c" 1
 425 0002 72B6     		CPSID   i
 426              	@ 0 "" 2
 361:Generated_Source\PSoC5/cyfitter_cfg.c **** #endif
 362:Generated_Source\PSoC5/cyfitter_cfg.c **** 
 363:Generated_Source\PSoC5/cyfitter_cfg.c **** 
 364:Generated_Source\PSoC5/cyfitter_cfg.c **** 	/* Set Flash Cycles based on max possible frequency in case a glitch occurs during ClockSetup(). *
 365:Generated_Source\PSoC5/cyfitter_cfg.c **** 	CY_SET_XTND_REG8((void CYFAR *)(CYREG_CACHE_CC_CTL), (((CYDEV_INSTRUCT_CACHE_ENABLED) != 0) ? 0x61
 427              		.loc 1 365 0
 428              		.thumb
 429              		.syntax unified
 430 0004 6122     		movs	r2, #97
 431 0006 2B4B     		ldr	r3, .L28
 432 0008 1A70     		strb	r2, [r3]
 366:Generated_Source\PSoC5/cyfitter_cfg.c **** 	/* Setup clocks based on selections from Clock DWR */
 367:Generated_Source\PSoC5/cyfitter_cfg.c **** 	ClockSetup();
 433              		.loc 1 367 0
 434 000a FFF7FEFF 		bl	ClockSetup
 435              	.LVL27:
 368:Generated_Source\PSoC5/cyfitter_cfg.c **** 	/* Enable/Disable Debug functionality based on settings from System DWR */
 369:Generated_Source\PSoC5/cyfitter_cfg.c **** 	CY_SET_XTND_REG8((void CYFAR *)CYREG_MLOGIC_DEBUG, (CY_GET_XTND_REG8((void CYFAR *)CYREG_MLOGIC_DE
 436              		.loc 1 369 0
 437 000e 2A4A     		ldr	r2, .L28+4
 438 0010 1378     		ldrb	r3, [r2]	@ zero_extendqisi2
 439 0012 43F00403 		orr	r3, r3, #4
 440 0016 1370     		strb	r3, [r2]
 441              	.LVL28:
 442              	.LBB3:
 370:Generated_Source\PSoC5/cyfitter_cfg.c **** 
 371:Generated_Source\PSoC5/cyfitter_cfg.c **** 	{
 372:Generated_Source\PSoC5/cyfitter_cfg.c **** 
 373:Generated_Source\PSoC5/cyfitter_cfg.c **** 		CYPACKED typedef struct {
 374:Generated_Source\PSoC5/cyfitter_cfg.c **** 			void CYFAR *address;
 375:Generated_Source\PSoC5/cyfitter_cfg.c **** 			uint16 size;
 376:Generated_Source\PSoC5/cyfitter_cfg.c **** 		} CYPACKED_ATTR cfg_memset_t;
 377:Generated_Source\PSoC5/cyfitter_cfg.c **** 
 378:Generated_Source\PSoC5/cyfitter_cfg.c **** 		static const cfg_memset_t CYCODE cfg_memset_list[] = {
 379:Generated_Source\PSoC5/cyfitter_cfg.c **** 			/* address, size */
 380:Generated_Source\PSoC5/cyfitter_cfg.c **** 			{(void CYFAR *)(CYREG_TMR0_CFG0), 12u},
 381:Generated_Source\PSoC5/cyfitter_cfg.c **** 			{(void CYFAR *)(CYREG_PRT0_DR), 16u},
 382:Generated_Source\PSoC5/cyfitter_cfg.c **** 			{(void CYFAR *)(CYREG_PRT4_DR), 48u},
 383:Generated_Source\PSoC5/cyfitter_cfg.c **** 			{(void CYFAR *)(CYREG_PRT15_DR), 16u},
 384:Generated_Source\PSoC5/cyfitter_cfg.c **** 			{(void CYFAR *)(CYDEV_UCFG_B0_P0_U0_BASE), 4096u},
 385:Generated_Source\PSoC5/cyfitter_cfg.c **** 			{(void CYFAR *)(CYDEV_UCFG_B1_P2_U0_BASE), 2048u},
 386:Generated_Source\PSoC5/cyfitter_cfg.c **** 			{(void CYFAR *)(CYDEV_UCFG_DSI0_BASE), 2560u},
ARM GAS  C:\Users\LASER_2\AppData\Local\Temp\cc2Ms9Th.s 			page 16


 387:Generated_Source\PSoC5/cyfitter_cfg.c **** 			{(void CYFAR *)(CYDEV_UCFG_DSI12_BASE), 512u},
 388:Generated_Source\PSoC5/cyfitter_cfg.c **** 			{(void CYFAR *)(CYREG_BCTL0_MDCLK_EN), 32u},
 389:Generated_Source\PSoC5/cyfitter_cfg.c **** 		};
 390:Generated_Source\PSoC5/cyfitter_cfg.c **** 
 391:Generated_Source\PSoC5/cyfitter_cfg.c **** 		uint8 CYDATA i;
 392:Generated_Source\PSoC5/cyfitter_cfg.c **** 
 393:Generated_Source\PSoC5/cyfitter_cfg.c **** 		/* Zero out critical memory blocks before beginning configuration */
 394:Generated_Source\PSoC5/cyfitter_cfg.c **** 		for (i = 0u; i < (sizeof(cfg_memset_list)/sizeof(cfg_memset_list[0])); i++)
 443              		.loc 1 394 0
 444 0018 0024     		movs	r4, #0
 445 001a 0CE0     		b	.L25
 446              	.LVL29:
 447              	.L26:
 448              	.LBB4:
 395:Generated_Source\PSoC5/cyfitter_cfg.c **** 		{
 396:Generated_Source\PSoC5/cyfitter_cfg.c **** 			const cfg_memset_t CYCODE * CYDATA ms = &cfg_memset_list[i];
 397:Generated_Source\PSoC5/cyfitter_cfg.c **** 			CYMEMZERO(ms->address, (size_t)(uint32)(ms->size));
 449              		.loc 1 397 0 discriminator 3
 450 001c 274D     		ldr	r5, .L28+8
 451 001e 6300     		lsls	r3, r4, #1
 452 0020 1919     		adds	r1, r3, r4
 453 0022 4A00     		lsls	r2, r1, #1
 454 0024 1146     		mov	r1, r2
 455 0026 2A44     		add	r2, r2, r5
 456 0028 0846     		mov	r0, r1
 457 002a 9188     		ldrh	r1, [r2, #4]
 458 002c 2858     		ldr	r0, [r5, r0]	@ unaligned
 459 002e FFF7FEFF 		bl	CYMEMZERO
 460              	.LVL30:
 461              	.LBE4:
 394:Generated_Source\PSoC5/cyfitter_cfg.c **** 		{
 462              		.loc 1 394 0 discriminator 3
 463 0032 0134     		adds	r4, r4, #1
 464              	.LVL31:
 465 0034 E4B2     		uxtb	r4, r4
 466              	.LVL32:
 467              	.L25:
 394:Generated_Source\PSoC5/cyfitter_cfg.c **** 		{
 468              		.loc 1 394 0 is_stmt 0 discriminator 1
 469 0036 082C     		cmp	r4, #8
 470 0038 F0D9     		bls	.L26
 398:Generated_Source\PSoC5/cyfitter_cfg.c **** 		}
 399:Generated_Source\PSoC5/cyfitter_cfg.c **** 
 400:Generated_Source\PSoC5/cyfitter_cfg.c **** 		cfg_write_bytes32(cy_cfg_addr_table, cy_cfg_data_table);
 471              		.loc 1 400 0 is_stmt 1
 472 003a 2149     		ldr	r1, .L28+12
 473 003c 4FF09040 		mov	r0, #1207959552
 474 0040 FFF7FEFF 		bl	cfg_write_bytes32
 475              	.LVL33:
 401:Generated_Source\PSoC5/cyfitter_cfg.c **** 
 402:Generated_Source\PSoC5/cyfitter_cfg.c **** 		/* Enable digital routing */
 403:Generated_Source\PSoC5/cyfitter_cfg.c **** 		CY_SET_XTND_REG8((void CYFAR *)CYREG_BCTL0_BANK_CTL, CY_GET_XTND_REG8((void CYFAR *)CYREG_BCTL0_B
 476              		.loc 1 403 0
 477 0044 1F4A     		ldr	r2, .L28+16
 478 0046 1378     		ldrb	r3, [r2]	@ zero_extendqisi2
 479 0048 43F00203 		orr	r3, r3, #2
 480 004c 1370     		strb	r3, [r2]
ARM GAS  C:\Users\LASER_2\AppData\Local\Temp\cc2Ms9Th.s 			page 17


 404:Generated_Source\PSoC5/cyfitter_cfg.c **** 		CY_SET_XTND_REG8((void CYFAR *)CYREG_BCTL1_BANK_CTL, CY_GET_XTND_REG8((void CYFAR *)CYREG_BCTL1_B
 481              		.loc 1 404 0
 482 004e 1032     		adds	r2, r2, #16
 483 0050 1378     		ldrb	r3, [r2]	@ zero_extendqisi2
 484 0052 43F00203 		orr	r3, r3, #2
 485 0056 1370     		strb	r3, [r2]
 405:Generated_Source\PSoC5/cyfitter_cfg.c **** 
 406:Generated_Source\PSoC5/cyfitter_cfg.c **** 		/* Enable UDB array */
 407:Generated_Source\PSoC5/cyfitter_cfg.c **** 		CY_SET_XTND_REG8((void CYFAR *)CYREG_PM_ACT_CFG0, CY_GET_XTND_REG8((void CYFAR *)CYREG_PM_ACT_CFG
 486              		.loc 1 407 0
 487 0058 1B4C     		ldr	r4, .L28+20
 488              	.LVL34:
 489 005a 2378     		ldrb	r3, [r4]	@ zero_extendqisi2
 490 005c 43F04003 		orr	r3, r3, #64
 491 0060 2370     		strb	r3, [r4]
 408:Generated_Source\PSoC5/cyfitter_cfg.c **** 		CY_SET_XTND_REG8((void CYFAR *)CYREG_PM_AVAIL_CR2, CY_GET_XTND_REG8((void CYFAR *)CYREG_PM_AVAIL_
 492              		.loc 1 408 0
 493 0062 A2F58632 		sub	r2, r2, #68608
 494 0066 513A     		subs	r2, r2, #81
 495 0068 1378     		ldrb	r3, [r2]	@ zero_extendqisi2
 496 006a 43F01003 		orr	r3, r3, #16
 497 006e 1370     		strb	r3, [r2]
 498              	.LBE3:
 409:Generated_Source\PSoC5/cyfitter_cfg.c **** 	}
 410:Generated_Source\PSoC5/cyfitter_cfg.c **** 
 411:Generated_Source\PSoC5/cyfitter_cfg.c **** 
 412:Generated_Source\PSoC5/cyfitter_cfg.c **** 	/* Perform second pass device configuration. These items must be configured in specific order afte
 413:Generated_Source\PSoC5/cyfitter_cfg.c **** 	CYCONFIGCPY((void CYFAR *)(CYREG_PRT12_DM0), (const void CYFAR *)(BS_IOPINS0_7_VAL), 8u);
 499              		.loc 1 413 0
 500 0070 0822     		movs	r2, #8
 501 0072 1649     		ldr	r1, .L28+24
 502 0074 1648     		ldr	r0, .L28+28
 503 0076 FFF7FEFF 		bl	CYCONFIGCPY
 504              	.LVL35:
 414:Generated_Source\PSoC5/cyfitter_cfg.c **** 	CYCONFIGCPY((void CYFAR *)(CYREG_PRT1_DM0), (const void CYFAR *)(BS_IOPINS0_1_VAL), 8u);
 505              		.loc 1 414 0
 506 007a 0822     		movs	r2, #8
 507 007c 1549     		ldr	r1, .L28+32
 508 007e 1648     		ldr	r0, .L28+36
 509 0080 FFF7FEFF 		bl	CYCONFIGCPY
 510              	.LVL36:
 415:Generated_Source\PSoC5/cyfitter_cfg.c **** 	CYCONFIGCPY((void CYFAR *)(CYREG_PRT2_DR), (const void CYFAR *)(BS_IOPINS0_2_VAL), 10u);
 511              		.loc 1 415 0
 512 0084 0A22     		movs	r2, #10
 513 0086 1549     		ldr	r1, .L28+40
 514 0088 1548     		ldr	r0, .L28+44
 515 008a FFF7FEFF 		bl	CYCONFIGCPY
 516              	.LVL37:
 416:Generated_Source\PSoC5/cyfitter_cfg.c **** 	CYCONFIGCPY((void CYFAR *)(CYREG_PRT3_DM0), (const void CYFAR *)(BS_IOPINS0_3_VAL), 8u);
 517              		.loc 1 416 0
 518 008e 0822     		movs	r2, #8
 519 0090 1449     		ldr	r1, .L28+48
 520 0092 1548     		ldr	r0, .L28+52
 521 0094 FFF7FEFF 		bl	CYCONFIGCPY
 522              	.LVL38:
 417:Generated_Source\PSoC5/cyfitter_cfg.c **** 	/* Switch Boost to the precision bandgap reference from its internal reference */
 418:Generated_Source\PSoC5/cyfitter_cfg.c **** 	CY_SET_REG8((void CYXDATA *)CYREG_BOOST_CR2, (CY_GET_REG8((void CYXDATA *)CYREG_BOOST_CR2) | 0x08u
ARM GAS  C:\Users\LASER_2\AppData\Local\Temp\cc2Ms9Th.s 			page 18


 523              		.loc 1 418 0
 524 0098 144A     		ldr	r2, .L28+56
 525 009a 1378     		ldrb	r3, [r2]	@ zero_extendqisi2
 526 009c 43F00803 		orr	r3, r3, #8
 527 00a0 1370     		strb	r3, [r2]
 419:Generated_Source\PSoC5/cyfitter_cfg.c **** 
 420:Generated_Source\PSoC5/cyfitter_cfg.c **** 	/* Perform basic analog initialization to defaults */
 421:Generated_Source\PSoC5/cyfitter_cfg.c **** 	AnalogSetDefault();
 528              		.loc 1 421 0
 529 00a2 FFF7FEFF 		bl	AnalogSetDefault
 530              	.LVL39:
 422:Generated_Source\PSoC5/cyfitter_cfg.c **** 
 423:Generated_Source\PSoC5/cyfitter_cfg.c **** 	/* Configure alternate active mode */
 424:Generated_Source\PSoC5/cyfitter_cfg.c **** 	CYCONFIGCPY((void CYFAR *)CYDEV_PM_STBY_BASE, (const void CYFAR *)CYDEV_PM_ACT_BASE, 14u);
 531              		.loc 1 424 0
 532 00a6 0E22     		movs	r2, #14
 533 00a8 2146     		mov	r1, r4
 534 00aa 1148     		ldr	r0, .L28+60
 535 00ac FFF7FEFF 		bl	CYCONFIGCPY
 536              	.LVL40:
 537 00b0 38BD     		pop	{r3, r4, r5, pc}
 538              	.L29:
 539 00b2 00BF     		.align	2
 540              	.L28:
 541 00b4 00480040 		.word	1073760256
 542 00b8 E8460040 		.word	1073759976
 543 00bc 00000000 		.word	.LANCHOR0
 544 00c0 50000048 		.word	1207959632
 545 00c4 03500140 		.word	1073827843
 546 00c8 A0430040 		.word	1073759136
 547 00cc 28010048 		.word	1207959848
 548 00d0 C2510040 		.word	1073762754
 549 00d4 30010048 		.word	1207959856
 550 00d8 12510040 		.word	1073762578
 551 00dc 38010048 		.word	1207959864
 552 00e0 20510040 		.word	1073762592
 553 00e4 44010048 		.word	1207959876
 554 00e8 32510040 		.word	1073762610
 555 00ec 22430040 		.word	1073759010
 556 00f0 B0430040 		.word	1073759152
 557              		.cfi_endproc
 558              	.LFE7:
 559              		.size	cyfitter_cfg, .-cyfitter_cfg
 560              		.section	.rodata
 561              		.align	2
 562              		.set	.LANCHOR0,. + 0
 563              		.type	cfg_memset_list.5004, %object
 564              		.size	cfg_memset_list.5004, 54
 565              	cfg_memset_list.5004:
 566 0000 004F0040 		.word	1073762048
 567 0004 0C00     		.short	12
 568 0006 00510040 		.4byte	1073762560
 569 000a 1000     		.short	16
 570 000c 40510040 		.word	1073762624
 571 0010 3000     		.short	48
 572 0012 F0510040 		.4byte	1073762800
 573 0016 1000     		.short	16
ARM GAS  C:\Users\LASER_2\AppData\Local\Temp\cc2Ms9Th.s 			page 19


 574 0018 00000140 		.word	1073807360
 575 001c 0010     		.short	4096
 576 001e 00140140 		.4byte	1073812480
 577 0022 0008     		.short	2048
 578 0024 00400140 		.word	1073823744
 579 0028 000A     		.short	2560
 580 002a 004C0140 		.4byte	1073826816
 581 002e 0002     		.short	512
 582 0030 00500140 		.word	1073827840
 583 0034 2000     		.short	32
 584              		.text
 585              	.Letext0:
 586              		.file 2 "c:\\program files (x86)\\cypress\\psoc creator\\4.2\\psoc creator\\import\\gnu\\arm\\5.4.
 587              		.file 3 "Generated_Source\\PSoC5\\cytypes.h"
 588              		.file 4 "Generated_Source\\PSoC5\\CyLib.h"