ARM GAS  C:\Users\LASER_2\AppData\Local\Temp\ccBjTwtn.s 			page 1


   1              		.syntax unified
   2              		.cpu cortex-m3
   3              		.fpu softvfp
   4              		.eabi_attribute 20, 1
   5              		.eabi_attribute 21, 1
   6              		.eabi_attribute 23, 3
   7              		.eabi_attribute 24, 1
   8              		.eabi_attribute 25, 1
   9              		.eabi_attribute 26, 1
  10              		.eabi_attribute 30, 1
  11              		.eabi_attribute 34, 1
  12              		.eabi_attribute 18, 4
  13              		.thumb
  14              		.syntax unified
  15              		.file	"main.c"
  16              		.text
  17              	.Ltext0:
  18              		.cfi_sections	.debug_frame
  19              		.section	.text.INT_SW,"ax",%progbits
  20              		.align	2
  21              		.global	INT_SW
  22              		.thumb
  23              		.thumb_func
  24              		.type	INT_SW, %function
  25              	INT_SW:
  26              	.LFB63:
  27              		.file 1 "main.c"
   1:main.c        **** /* ========================================
   2:main.c        ****  *
   3:main.c        ****  * Copyriwht YOUR COMPANY, THE YEAR
   4:main.c        ****  * All Riwhts Reserved
   5:main.c        ****  * UNPUBLISHED, LICENSED SOFTWARE.
   6:main.c        ****  *
   7:main.c        ****  * CONFIDENTIAL AND PROPRIETARY INFORMATION
   8:main.c        ****  * WHICH IS THE PROPERTY OF your company.
   9:main.c        ****  *
  10:main.c        ****  * ========================================
  11:main.c        **** */
  12:main.c        **** #include "project.h"
  13:main.c        **** #include <math.h>
  14:main.c        **** 
  15:main.c        **** //Creación de variables h para los coeficientes del filtro, x para las muestras, y para la salida,
  16:main.c        **** //tecla para guardar lo recibido del teclado
  17:main.c        **** 
  18:main.c        **** 
  19:main.c        **** //const float h[]={0,0.0004,0.0004,-0.0007,-0.0028,-0.0051,-0.0055,-0.0026,0.0031,0.0085,0.0099,0.0
  20:main.c        **** const float h[]={0.0016,0.0019,0.0023,0.0026,0.0026,0.0020,0.0006,-0.0022,-0.0063,-0.0118,-0.0185,-
  21:main.c        **** const float g[]={-0.0010,-0.0017,-0.0021,-0.0018,-0.0004,0.0022,0.0052,0.0070,0.0064,0.0035,0.0003,
  22:main.c        **** const float w[]={0,-0.0001,0.0026,0.0005,   -0.0005,    0.0010,   -0.0063,   -0.0031,    0.0024,   
  23:main.c        **** volatile unsigned char cont=0;
  24:main.c        **** uint16 x[51];
  25:main.c        **** 
  26:main.c        **** 
  27:main.c        **** CY_ISR(INT_SW){
  28              		.loc 1 27 0
  29              		.cfi_startproc
  30              		@ args = 0, pretend = 0, frame = 0
ARM GAS  C:\Users\LASER_2\AppData\Local\Temp\ccBjTwtn.s 			page 2


  31              		@ frame_needed = 0, uses_anonymous_args = 0
  32 0000 08B5     		push	{r3, lr}
  33              		.cfi_def_cfa_offset 8
  34              		.cfi_offset 3, -8
  35              		.cfi_offset 14, -4
  28:main.c        ****     LEDS_Write(~LEDS_Read());
  36              		.loc 1 28 0
  37 0002 FFF7FEFF 		bl	LEDS_Read
  38              	.LVL0:
  39 0006 C043     		mvns	r0, r0
  40 0008 C0B2     		uxtb	r0, r0
  41 000a FFF7FEFF 		bl	LEDS_Write
  42              	.LVL1:
  29:main.c        ****     if(cont==3){
  43              		.loc 1 29 0
  44 000e 1A4B     		ldr	r3, .L11
  45 0010 1B78     		ldrb	r3, [r3]	@ zero_extendqisi2
  46 0012 DBB2     		uxtb	r3, r3
  47 0014 032B     		cmp	r3, #3
  48 0016 03D1     		bne	.L2
  30:main.c        ****         cont=0;
  49              		.loc 1 30 0
  50 0018 0022     		movs	r2, #0
  51 001a 174B     		ldr	r3, .L11
  52 001c 1A70     		strb	r2, [r3]
  53 001e 04E0     		b	.L3
  54              	.L2:
  31:main.c        ****     }else{
  32:main.c        ****         cont++;
  55              		.loc 1 32 0
  56 0020 154A     		ldr	r2, .L11
  57 0022 1378     		ldrb	r3, [r2]	@ zero_extendqisi2
  58 0024 0133     		adds	r3, r3, #1
  59 0026 DBB2     		uxtb	r3, r3
  60 0028 1370     		strb	r3, [r2]
  61              	.L3:
  33:main.c        ****     }
  34:main.c        ****     switch(cont){
  62              		.loc 1 34 0
  63 002a 134B     		ldr	r3, .L11
  64 002c 1B78     		ldrb	r3, [r3]	@ zero_extendqisi2
  65 002e DBB2     		uxtb	r3, r3
  66 0030 032B     		cmp	r3, #3
  67 0032 1ED8     		bhi	.L4
  68 0034 DFE803F0 		tbb	[pc, r3]
  69              	.L6:
  70 0038 02       		.byte	(.L5-.L6)/2
  71 0039 09       		.byte	(.L7-.L6)/2
  72 003a 10       		.byte	(.L8-.L6)/2
  73 003b 17       		.byte	(.L9-.L6)/2
  74              		.p2align 1
  75              	.L5:
  35:main.c        ****         case 0:{
  36:main.c        ****             LCD_ClearDisplay();
  76              		.loc 1 36 0
  77 003c 0120     		movs	r0, #1
  78 003e FFF7FEFF 		bl	LCD_WriteControl
ARM GAS  C:\Users\LASER_2\AppData\Local\Temp\ccBjTwtn.s 			page 3


  79              	.LVL2:
  37:main.c        ****             LCD_PrintString("Muestreo");   
  80              		.loc 1 37 0
  81 0042 0E48     		ldr	r0, .L11+4
  82 0044 FFF7FEFF 		bl	LCD_PrintString
  83              	.LVL3:
  38:main.c        ****             break;
  84              		.loc 1 38 0
  85 0048 13E0     		b	.L4
  86              	.L7:
  39:main.c        ****         }
  40:main.c        ****         case 1:{
  41:main.c        ****             LCD_ClearDisplay();
  87              		.loc 1 41 0
  88 004a 0120     		movs	r0, #1
  89 004c FFF7FEFF 		bl	LCD_WriteControl
  90              	.LVL4:
  42:main.c        ****             LCD_PrintString("Alfa");
  91              		.loc 1 42 0
  92 0050 0B48     		ldr	r0, .L11+8
  93 0052 FFF7FEFF 		bl	LCD_PrintString
  94              	.LVL5:
  43:main.c        ****             break;
  95              		.loc 1 43 0
  96 0056 0CE0     		b	.L4
  97              	.L8:
  44:main.c        ****         }
  45:main.c        ****         case 2:{
  46:main.c        ****             LCD_ClearDisplay();
  98              		.loc 1 46 0
  99 0058 0120     		movs	r0, #1
 100 005a FFF7FEFF 		bl	LCD_WriteControl
 101              	.LVL6:
  47:main.c        ****             LCD_PrintString("Beta");
 102              		.loc 1 47 0
 103 005e 0948     		ldr	r0, .L11+12
 104 0060 FFF7FEFF 		bl	LCD_PrintString
 105              	.LVL7:
  48:main.c        ****             break;
 106              		.loc 1 48 0
 107 0064 05E0     		b	.L4
 108              	.L9:
  49:main.c        ****         }
  50:main.c        ****         case 3:{
  51:main.c        ****             LCD_ClearDisplay();
 109              		.loc 1 51 0
 110 0066 0120     		movs	r0, #1
 111 0068 FFF7FEFF 		bl	LCD_WriteControl
 112              	.LVL8:
  52:main.c        ****             LCD_PrintString("Gamma");
 113              		.loc 1 52 0
 114 006c 0648     		ldr	r0, .L11+16
 115 006e FFF7FEFF 		bl	LCD_PrintString
 116              	.LVL9:
 117              	.L4:
  53:main.c        ****             break;
  54:main.c        ****         } 
ARM GAS  C:\Users\LASER_2\AppData\Local\Temp\ccBjTwtn.s 			page 4


  55:main.c        ****         default:{
  56:main.c        ****             break;
  57:main.c        ****         }
  58:main.c        ****     }
  59:main.c        ****     SW_ClearInterrupt();  
 118              		.loc 1 59 0
 119 0072 FFF7FEFF 		bl	SW_ClearInterrupt
 120              	.LVL10:
 121 0076 08BD     		pop	{r3, pc}
 122              	.L12:
 123              		.align	2
 124              	.L11:
 125 0078 00000000 		.word	.LANCHOR0
 126 007c 00000000 		.word	.LC0
 127 0080 0C000000 		.word	.LC1
 128 0084 14000000 		.word	.LC2
 129 0088 1C000000 		.word	.LC3
 130              		.cfi_endproc
 131              	.LFE63:
 132              		.size	INT_SW, .-INT_SW
 133              		.global	__aeabi_i2f
 134              		.global	__aeabi_fmul
 135              		.global	__aeabi_fadd
 136              		.global	__aeabi_f2uiz
 137              		.section	.text.llegaMuestra,"ax",%progbits
 138              		.align	2
 139              		.global	llegaMuestra
 140              		.thumb
 141              		.thumb_func
 142              		.type	llegaMuestra, %function
 143              	llegaMuestra:
 144              	.LFB64:
  60:main.c        **** }
  61:main.c        **** 
  62:main.c        **** 
  63:main.c        **** CY_ISR(llegaMuestra)
  64:main.c        **** {   unsigned char y=0;
 145              		.loc 1 64 0
 146              		.cfi_startproc
 147              		@ args = 0, pretend = 0, frame = 0
 148              		@ frame_needed = 0, uses_anonymous_args = 0
 149 0000 38B5     		push	{r3, r4, r5, lr}
 150              		.cfi_def_cfa_offset 16
 151              		.cfi_offset 3, -16
 152              		.cfi_offset 4, -12
 153              		.cfi_offset 5, -8
 154              		.cfi_offset 14, -4
 155              	.LVL11:
  65:main.c        ****     if(cont==0){
 156              		.loc 1 65 0
 157 0002 074B     		ldr	r3, .L21
 158 0004 1B78     		ldrb	r3, [r3]	@ zero_extendqisi2
 159 0006 13F0FF0F 		tst	r3, #255
 160 000a 0BD1     		bne	.L14
  66:main.c        ****         ADC_StartConvert();
 161              		.loc 1 66 0
 162 000c FFF7FEFF 		bl	ADC_StartConvert
ARM GAS  C:\Users\LASER_2\AppData\Local\Temp\ccBjTwtn.s 			page 5


 163              	.LVL12:
  67:main.c        ****         ADC_IsEndConversion(ADC_WAIT_FOR_RESULT);
 164              		.loc 1 67 0
 165 0010 0020     		movs	r0, #0
 166 0012 FFF7FEFF 		bl	ADC_IsEndConversion
 167              	.LVL13:
  68:main.c        ****         y = ADC_GetResult16();
 168              		.loc 1 68 0
 169 0016 FFF7FEFF 		bl	ADC_GetResult16
 170              	.LVL14:
 171 001a C4B2     		uxtb	r4, r0
 172              	.LVL15:
 173 001c 01F0B1B9 		b	.L15
 174              	.L22:
 175              		.align	2
 176              	.L21:
 177 0020 00000000 		.word	.LANCHOR0
 178              	.LVL16:
 179              	.L14:
  69:main.c        ****     }else if(cont==1){
 180              		.loc 1 69 0
 181 0024 AE4B     		ldr	r3, .L23
 182 0026 1B78     		ldrb	r3, [r3]	@ zero_extendqisi2
 183 0028 DBB2     		uxtb	r3, r3
 184 002a 012B     		cmp	r3, #1
 185 002c 40F03883 		bne	.L16
  70:main.c        ****     x[50] = x[49];
 186              		.loc 1 70 0
 187 0030 AC4C     		ldr	r4, .L23+4
 188 0032 B4F86230 		ldrh	r3, [r4, #98]
 189 0036 A4F86430 		strh	r3, [r4, #100]	@ movhi
  71:main.c        ****     x[49] = x[48];
 190              		.loc 1 71 0
 191 003a B4F86030 		ldrh	r3, [r4, #96]
 192 003e A4F86230 		strh	r3, [r4, #98]	@ movhi
  72:main.c        ****     x[48] = x[47];
 193              		.loc 1 72 0
 194 0042 B4F85E30 		ldrh	r3, [r4, #94]
 195 0046 A4F86030 		strh	r3, [r4, #96]	@ movhi
  73:main.c        ****     x[47] = x[46];
 196              		.loc 1 73 0
 197 004a B4F85C30 		ldrh	r3, [r4, #92]
 198 004e A4F85E30 		strh	r3, [r4, #94]	@ movhi
  74:main.c        ****     x[46] = x[45];
 199              		.loc 1 74 0
 200 0052 B4F85A30 		ldrh	r3, [r4, #90]
 201 0056 A4F85C30 		strh	r3, [r4, #92]	@ movhi
  75:main.c        ****     x[45] = x[44];
 202              		.loc 1 75 0
 203 005a B4F85830 		ldrh	r3, [r4, #88]
 204 005e A4F85A30 		strh	r3, [r4, #90]	@ movhi
  76:main.c        ****     x[44] = x[43];
 205              		.loc 1 76 0
 206 0062 B4F85630 		ldrh	r3, [r4, #86]
 207 0066 A4F85830 		strh	r3, [r4, #88]	@ movhi
  77:main.c        ****     x[43] = x[42];
 208              		.loc 1 77 0
ARM GAS  C:\Users\LASER_2\AppData\Local\Temp\ccBjTwtn.s 			page 6


 209 006a B4F85430 		ldrh	r3, [r4, #84]
 210 006e A4F85630 		strh	r3, [r4, #86]	@ movhi
  78:main.c        ****     x[42] = x[41];
 211              		.loc 1 78 0
 212 0072 B4F85230 		ldrh	r3, [r4, #82]
 213 0076 A4F85430 		strh	r3, [r4, #84]	@ movhi
  79:main.c        ****     x[41] = x[40];
 214              		.loc 1 79 0
 215 007a B4F85030 		ldrh	r3, [r4, #80]
 216 007e A4F85230 		strh	r3, [r4, #82]	@ movhi
  80:main.c        ****     x[40] = x[39];
 217              		.loc 1 80 0
 218 0082 B4F84E30 		ldrh	r3, [r4, #78]
 219 0086 A4F85030 		strh	r3, [r4, #80]	@ movhi
  81:main.c        ****     x[39] = x[38];
 220              		.loc 1 81 0
 221 008a B4F84C30 		ldrh	r3, [r4, #76]
 222 008e A4F84E30 		strh	r3, [r4, #78]	@ movhi
  82:main.c        ****     x[38] = x[37];
 223              		.loc 1 82 0
 224 0092 B4F84A30 		ldrh	r3, [r4, #74]
 225 0096 A4F84C30 		strh	r3, [r4, #76]	@ movhi
  83:main.c        ****     x[37] = x[36];
 226              		.loc 1 83 0
 227 009a B4F84830 		ldrh	r3, [r4, #72]
 228 009e A4F84A30 		strh	r3, [r4, #74]	@ movhi
  84:main.c        ****     x[36] = x[35];
 229              		.loc 1 84 0
 230 00a2 B4F84630 		ldrh	r3, [r4, #70]
 231 00a6 A4F84830 		strh	r3, [r4, #72]	@ movhi
  85:main.c        ****     x[35] = x[34];
 232              		.loc 1 85 0
 233 00aa B4F84430 		ldrh	r3, [r4, #68]
 234 00ae A4F84630 		strh	r3, [r4, #70]	@ movhi
  86:main.c        ****     x[34] = x[33];
 235              		.loc 1 86 0
 236 00b2 B4F84230 		ldrh	r3, [r4, #66]
 237 00b6 A4F84430 		strh	r3, [r4, #68]	@ movhi
  87:main.c        ****     x[33] = x[32];
 238              		.loc 1 87 0
 239 00ba B4F84030 		ldrh	r3, [r4, #64]
 240 00be A4F84230 		strh	r3, [r4, #66]	@ movhi
  88:main.c        ****     x[32] = x[31];
 241              		.loc 1 88 0
 242 00c2 E38F     		ldrh	r3, [r4, #62]
 243 00c4 A4F84030 		strh	r3, [r4, #64]	@ movhi
  89:main.c        ****     x[31] = x[30];
 244              		.loc 1 89 0
 245 00c8 A38F     		ldrh	r3, [r4, #60]
 246 00ca E387     		strh	r3, [r4, #62]	@ movhi
  90:main.c        ****     x[30] = x[29];
 247              		.loc 1 90 0
 248 00cc 638F     		ldrh	r3, [r4, #58]
 249 00ce A387     		strh	r3, [r4, #60]	@ movhi
  91:main.c        ****     x[29] = x[28];
 250              		.loc 1 91 0
 251 00d0 238F     		ldrh	r3, [r4, #56]
ARM GAS  C:\Users\LASER_2\AppData\Local\Temp\ccBjTwtn.s 			page 7


 252 00d2 6387     		strh	r3, [r4, #58]	@ movhi
  92:main.c        ****     x[28] = x[27];
 253              		.loc 1 92 0
 254 00d4 E38E     		ldrh	r3, [r4, #54]
 255 00d6 2387     		strh	r3, [r4, #56]	@ movhi
  93:main.c        ****     x[27] = x[26];
 256              		.loc 1 93 0
 257 00d8 A38E     		ldrh	r3, [r4, #52]
 258 00da E386     		strh	r3, [r4, #54]	@ movhi
  94:main.c        ****     x[26] = x[25];
 259              		.loc 1 94 0
 260 00dc 638E     		ldrh	r3, [r4, #50]
 261 00de A386     		strh	r3, [r4, #52]	@ movhi
  95:main.c        ****     x[25] = x[24];
 262              		.loc 1 95 0
 263 00e0 238E     		ldrh	r3, [r4, #48]
 264 00e2 6386     		strh	r3, [r4, #50]	@ movhi
  96:main.c        ****     x[24] = x[23];
 265              		.loc 1 96 0
 266 00e4 E38D     		ldrh	r3, [r4, #46]
 267 00e6 2386     		strh	r3, [r4, #48]	@ movhi
  97:main.c        ****     x[23] = x[22];
 268              		.loc 1 97 0
 269 00e8 A38D     		ldrh	r3, [r4, #44]
 270 00ea E385     		strh	r3, [r4, #46]	@ movhi
  98:main.c        ****     x[22] = x[21];
 271              		.loc 1 98 0
 272 00ec 638D     		ldrh	r3, [r4, #42]
 273 00ee A385     		strh	r3, [r4, #44]	@ movhi
  99:main.c        ****     x[21] = x[20];
 274              		.loc 1 99 0
 275 00f0 238D     		ldrh	r3, [r4, #40]
 276 00f2 6385     		strh	r3, [r4, #42]	@ movhi
 100:main.c        ****     x[20] = x[19];
 277              		.loc 1 100 0
 278 00f4 E38C     		ldrh	r3, [r4, #38]
 279 00f6 2385     		strh	r3, [r4, #40]	@ movhi
 101:main.c        ****     x[19] = x[18];
 280              		.loc 1 101 0
 281 00f8 A38C     		ldrh	r3, [r4, #36]
 282 00fa E384     		strh	r3, [r4, #38]	@ movhi
 102:main.c        ****     x[18] = x[17];
 283              		.loc 1 102 0
 284 00fc 638C     		ldrh	r3, [r4, #34]
 285 00fe A384     		strh	r3, [r4, #36]	@ movhi
 103:main.c        ****     x[17] = x[16];
 286              		.loc 1 103 0
 287 0100 238C     		ldrh	r3, [r4, #32]
 288 0102 6384     		strh	r3, [r4, #34]	@ movhi
 104:main.c        ****     x[16] = x[15];
 289              		.loc 1 104 0
 290 0104 E38B     		ldrh	r3, [r4, #30]
 291 0106 2384     		strh	r3, [r4, #32]	@ movhi
 105:main.c        ****     x[15] = x[14];
 292              		.loc 1 105 0
 293 0108 A38B     		ldrh	r3, [r4, #28]
 294 010a E383     		strh	r3, [r4, #30]	@ movhi
ARM GAS  C:\Users\LASER_2\AppData\Local\Temp\ccBjTwtn.s 			page 8


 106:main.c        ****     x[14] = x[13];
 295              		.loc 1 106 0
 296 010c 638B     		ldrh	r3, [r4, #26]
 297 010e A383     		strh	r3, [r4, #28]	@ movhi
 107:main.c        ****     x[13] = x[12];
 298              		.loc 1 107 0
 299 0110 238B     		ldrh	r3, [r4, #24]
 300 0112 6383     		strh	r3, [r4, #26]	@ movhi
 108:main.c        ****     x[12] = x[11];
 301              		.loc 1 108 0
 302 0114 E38A     		ldrh	r3, [r4, #22]
 303 0116 2383     		strh	r3, [r4, #24]	@ movhi
 109:main.c        ****     x[11] = x[10];
 304              		.loc 1 109 0
 305 0118 A38A     		ldrh	r3, [r4, #20]
 306 011a E382     		strh	r3, [r4, #22]	@ movhi
 110:main.c        ****     x[10] = x[9];
 307              		.loc 1 110 0
 308 011c 638A     		ldrh	r3, [r4, #18]
 309 011e A382     		strh	r3, [r4, #20]	@ movhi
 111:main.c        ****     x[9] = x[8];
 310              		.loc 1 111 0
 311 0120 238A     		ldrh	r3, [r4, #16]
 312 0122 6382     		strh	r3, [r4, #18]	@ movhi
 112:main.c        ****     x[8] = x[7];
 313              		.loc 1 112 0
 314 0124 E389     		ldrh	r3, [r4, #14]
 315 0126 2382     		strh	r3, [r4, #16]	@ movhi
 113:main.c        ****     x[7] = x[6];
 316              		.loc 1 113 0
 317 0128 A389     		ldrh	r3, [r4, #12]
 318 012a E381     		strh	r3, [r4, #14]	@ movhi
 114:main.c        ****     x[6] = x[5];
 319              		.loc 1 114 0
 320 012c 6389     		ldrh	r3, [r4, #10]
 321 012e A381     		strh	r3, [r4, #12]	@ movhi
 115:main.c        ****     x[5] = x[4];
 322              		.loc 1 115 0
 323 0130 2389     		ldrh	r3, [r4, #8]
 324 0132 6381     		strh	r3, [r4, #10]	@ movhi
 116:main.c        ****     x[4] = x[3];
 325              		.loc 1 116 0
 326 0134 E388     		ldrh	r3, [r4, #6]
 327 0136 2381     		strh	r3, [r4, #8]	@ movhi
 117:main.c        ****     x[3] = x[2];
 328              		.loc 1 117 0
 329 0138 A388     		ldrh	r3, [r4, #4]
 330 013a E380     		strh	r3, [r4, #6]	@ movhi
 118:main.c        ****     x[2] = x[1];
 331              		.loc 1 118 0
 332 013c 6388     		ldrh	r3, [r4, #2]
 333 013e A380     		strh	r3, [r4, #4]	@ movhi
 119:main.c        ****     x[1] = x[0];  
 334              		.loc 1 119 0
 335 0140 2388     		ldrh	r3, [r4]
 336 0142 6380     		strh	r3, [r4, #2]	@ movhi
 120:main.c        ****     ADC_StartConvert();
ARM GAS  C:\Users\LASER_2\AppData\Local\Temp\ccBjTwtn.s 			page 9


 337              		.loc 1 120 0
 338 0144 FFF7FEFF 		bl	ADC_StartConvert
 339              	.LVL17:
 121:main.c        ****     ADC_IsEndConversion(ADC_WAIT_FOR_RESULT);
 340              		.loc 1 121 0
 341 0148 0020     		movs	r0, #0
 342 014a FFF7FEFF 		bl	ADC_IsEndConversion
 343              	.LVL18:
 122:main.c        ****     x[0] = ADC_GetResult16();
 344              		.loc 1 122 0
 345 014e FFF7FEFF 		bl	ADC_GetResult16
 346              	.LVL19:
 347 0152 80B2     		uxth	r0, r0
 348 0154 2080     		strh	r0, [r4]	@ movhi
 123:main.c        ****     y = (x[0]*h[0]+x[1]*h[1]+x[2]*h[2]+x[3]*h[3]+x[4]*h[4]+x[5]*h[5]+x[6]*h[6]+x[7]*h[7]+x[8]*h[8]+
 349              		.loc 1 123 0
 350 0156 FFF7FEFF 		bl	__aeabi_i2f
 351              	.LVL20:
 352 015a 6349     		ldr	r1, .L23+8
 353 015c FFF7FEFF 		bl	__aeabi_fmul
 354              	.LVL21:
 355 0160 0546     		mov	r5, r0
 356 0162 6088     		ldrh	r0, [r4, #2]
 357 0164 FFF7FEFF 		bl	__aeabi_i2f
 358              	.LVL22:
 359 0168 6049     		ldr	r1, .L23+12
 360 016a FFF7FEFF 		bl	__aeabi_fmul
 361              	.LVL23:
 362 016e 0146     		mov	r1, r0
 363 0170 2846     		mov	r0, r5
 364 0172 FFF7FEFF 		bl	__aeabi_fadd
 365              	.LVL24:
 366 0176 0546     		mov	r5, r0
 367 0178 A088     		ldrh	r0, [r4, #4]
 368 017a FFF7FEFF 		bl	__aeabi_i2f
 369              	.LVL25:
 370 017e 5C49     		ldr	r1, .L23+16
 371 0180 FFF7FEFF 		bl	__aeabi_fmul
 372              	.LVL26:
 373 0184 0146     		mov	r1, r0
 374 0186 2846     		mov	r0, r5
 375 0188 FFF7FEFF 		bl	__aeabi_fadd
 376              	.LVL27:
 377 018c 0546     		mov	r5, r0
 378 018e E088     		ldrh	r0, [r4, #6]
 379 0190 FFF7FEFF 		bl	__aeabi_i2f
 380              	.LVL28:
 381 0194 5749     		ldr	r1, .L23+20
 382 0196 FFF7FEFF 		bl	__aeabi_fmul
 383              	.LVL29:
 384 019a 0146     		mov	r1, r0
 385 019c 2846     		mov	r0, r5
 386 019e FFF7FEFF 		bl	__aeabi_fadd
 387              	.LVL30:
 388 01a2 0546     		mov	r5, r0
 389 01a4 2089     		ldrh	r0, [r4, #8]
 390 01a6 FFF7FEFF 		bl	__aeabi_i2f
ARM GAS  C:\Users\LASER_2\AppData\Local\Temp\ccBjTwtn.s 			page 10


 391              	.LVL31:
 392 01aa 5249     		ldr	r1, .L23+20
 393 01ac FFF7FEFF 		bl	__aeabi_fmul
 394              	.LVL32:
 395 01b0 0146     		mov	r1, r0
 396 01b2 2846     		mov	r0, r5
 397 01b4 FFF7FEFF 		bl	__aeabi_fadd
 398              	.LVL33:
 399 01b8 0546     		mov	r5, r0
 400 01ba 6089     		ldrh	r0, [r4, #10]
 401 01bc FFF7FEFF 		bl	__aeabi_i2f
 402              	.LVL34:
 403 01c0 4D49     		ldr	r1, .L23+24
 404 01c2 FFF7FEFF 		bl	__aeabi_fmul
 405              	.LVL35:
 406 01c6 0146     		mov	r1, r0
 407 01c8 2846     		mov	r0, r5
 408 01ca FFF7FEFF 		bl	__aeabi_fadd
 409              	.LVL36:
 410 01ce 0546     		mov	r5, r0
 411 01d0 A089     		ldrh	r0, [r4, #12]
 412 01d2 FFF7FEFF 		bl	__aeabi_i2f
 413              	.LVL37:
 414 01d6 4949     		ldr	r1, .L23+28
 415 01d8 FFF7FEFF 		bl	__aeabi_fmul
 416              	.LVL38:
 417 01dc 0146     		mov	r1, r0
 418 01de 2846     		mov	r0, r5
 419 01e0 FFF7FEFF 		bl	__aeabi_fadd
 420              	.LVL39:
 421 01e4 0546     		mov	r5, r0
 422 01e6 E089     		ldrh	r0, [r4, #14]
 423 01e8 FFF7FEFF 		bl	__aeabi_i2f
 424              	.LVL40:
 425 01ec 4449     		ldr	r1, .L23+32
 426 01ee FFF7FEFF 		bl	__aeabi_fmul
 427              	.LVL41:
 428 01f2 0146     		mov	r1, r0
 429 01f4 2846     		mov	r0, r5
 430 01f6 FFF7FEFF 		bl	__aeabi_fadd
 431              	.LVL42:
 432 01fa 0546     		mov	r5, r0
 433 01fc 208A     		ldrh	r0, [r4, #16]
 434 01fe FFF7FEFF 		bl	__aeabi_i2f
 435              	.LVL43:
 436 0202 4049     		ldr	r1, .L23+36
 437 0204 FFF7FEFF 		bl	__aeabi_fmul
 438              	.LVL44:
 439 0208 0146     		mov	r1, r0
 440 020a 2846     		mov	r0, r5
 441 020c FFF7FEFF 		bl	__aeabi_fadd
 442              	.LVL45:
 443 0210 0546     		mov	r5, r0
 444 0212 608A     		ldrh	r0, [r4, #18]
 445 0214 FFF7FEFF 		bl	__aeabi_i2f
 446              	.LVL46:
 447 0218 3B49     		ldr	r1, .L23+40
ARM GAS  C:\Users\LASER_2\AppData\Local\Temp\ccBjTwtn.s 			page 11


 448 021a FFF7FEFF 		bl	__aeabi_fmul
 449              	.LVL47:
 450 021e 0146     		mov	r1, r0
 451 0220 2846     		mov	r0, r5
 452 0222 FFF7FEFF 		bl	__aeabi_fadd
 453              	.LVL48:
 454 0226 0546     		mov	r5, r0
 455 0228 A08A     		ldrh	r0, [r4, #20]
 456 022a FFF7FEFF 		bl	__aeabi_i2f
 457              	.LVL49:
 458 022e 3749     		ldr	r1, .L23+44
 459 0230 FFF7FEFF 		bl	__aeabi_fmul
 460              	.LVL50:
 461 0234 0146     		mov	r1, r0
 462 0236 2846     		mov	r0, r5
 463 0238 FFF7FEFF 		bl	__aeabi_fadd
 464              	.LVL51:
 465 023c 0546     		mov	r5, r0
 466 023e E08A     		ldrh	r0, [r4, #22]
 467 0240 FFF7FEFF 		bl	__aeabi_i2f
 468              	.LVL52:
 469 0244 3249     		ldr	r1, .L23+48
 470 0246 FFF7FEFF 		bl	__aeabi_fmul
 471              	.LVL53:
 472 024a 0146     		mov	r1, r0
 473 024c 2846     		mov	r0, r5
 474 024e FFF7FEFF 		bl	__aeabi_fadd
 475              	.LVL54:
 476 0252 0546     		mov	r5, r0
 477 0254 208B     		ldrh	r0, [r4, #24]
 478 0256 FFF7FEFF 		bl	__aeabi_i2f
 479              	.LVL55:
 480 025a 2E49     		ldr	r1, .L23+52
 481 025c FFF7FEFF 		bl	__aeabi_fmul
 482              	.LVL56:
 483 0260 0146     		mov	r1, r0
 484 0262 2846     		mov	r0, r5
 485 0264 FFF7FEFF 		bl	__aeabi_fadd
 486              	.LVL57:
 487 0268 0546     		mov	r5, r0
 488 026a 608B     		ldrh	r0, [r4, #26]
 489 026c FFF7FEFF 		bl	__aeabi_i2f
 490              	.LVL58:
 491 0270 2949     		ldr	r1, .L23+56
 492 0272 FFF7FEFF 		bl	__aeabi_fmul
 493              	.LVL59:
 494 0276 0146     		mov	r1, r0
 495 0278 2846     		mov	r0, r5
 496 027a FFF7FEFF 		bl	__aeabi_fadd
 497              	.LVL60:
 498 027e 0546     		mov	r5, r0
 499 0280 A08B     		ldrh	r0, [r4, #28]
 500 0282 FFF7FEFF 		bl	__aeabi_i2f
 501              	.LVL61:
 502 0286 2549     		ldr	r1, .L23+60
 503 0288 FFF7FEFF 		bl	__aeabi_fmul
 504              	.LVL62:
ARM GAS  C:\Users\LASER_2\AppData\Local\Temp\ccBjTwtn.s 			page 12


 505 028c 0146     		mov	r1, r0
 506 028e 2846     		mov	r0, r5
 507 0290 FFF7FEFF 		bl	__aeabi_fadd
 508              	.LVL63:
 509 0294 0546     		mov	r5, r0
 510 0296 E08B     		ldrh	r0, [r4, #30]
 511 0298 FFF7FEFF 		bl	__aeabi_i2f
 512              	.LVL64:
 513 029c 2049     		ldr	r1, .L23+64
 514 029e FFF7FEFF 		bl	__aeabi_fmul
 515              	.LVL65:
 516 02a2 0146     		mov	r1, r0
 517 02a4 2846     		mov	r0, r5
 518 02a6 FFF7FEFF 		bl	__aeabi_fadd
 519              	.LVL66:
 520 02aa 0546     		mov	r5, r0
 521 02ac 208C     		ldrh	r0, [r4, #32]
 522 02ae FFF7FEFF 		bl	__aeabi_i2f
 523              	.LVL67:
 524 02b2 1C49     		ldr	r1, .L23+68
 525 02b4 FFF7FEFF 		bl	__aeabi_fmul
 526              	.LVL68:
 527 02b8 0146     		mov	r1, r0
 528 02ba 2846     		mov	r0, r5
 529 02bc FFF7FEFF 		bl	__aeabi_fadd
 530              	.LVL69:
 531 02c0 0546     		mov	r5, r0
 532 02c2 608C     		ldrh	r0, [r4, #34]
 533 02c4 FFF7FEFF 		bl	__aeabi_i2f
 534              	.LVL70:
 535 02c8 1749     		ldr	r1, .L23+72
 536 02ca FFF7FEFF 		bl	__aeabi_fmul
 537              	.LVL71:
 538 02ce 0146     		mov	r1, r0
 539 02d0 2846     		mov	r0, r5
 540 02d2 FFF7FEFF 		bl	__aeabi_fadd
 541              	.LVL72:
 542 02d6 0546     		mov	r5, r0
 543 02d8 A08C     		ldrh	r0, [r4, #36]
 544 02da FFF7FEFF 		bl	__aeabi_i2f
 545              	.LVL73:
 546 02de 25E0     		b	.L24
 547              	.L25:
 548              		.align	2
 549              	.L23:
 550 02e0 00000000 		.word	.LANCHOR0
 551 02e4 00000000 		.word	x
 552 02e8 17B7D13A 		.word	986822423
 553 02ec 6C09F93A 		.word	989399404
 554 02f0 99BB163B 		.word	991345561
 555 02f4 C3642A3B 		.word	992634051
 556 02f8 6F12033B 		.word	990057071
 557 02fc 52491D3A 		.word	974997842
 558 0300 E02D10BB 		.word	-1156567584
 559 0304 3B70CEBB 		.word	-1144098757
 560 0308 CA5441BC 		.word	-1136569142
 561 030c 508D97BC 		.word	-1130918576
ARM GAS  C:\Users\LASER_2\AppData\Local\Temp\ccBjTwtn.s 			page 13


 562 0310 CE88D2BC 		.word	-1127053106
 563 0314 948705BD 		.word	-1123711084
 564 0318 E3A51BBD 		.word	-1122261533
 565 031c C28627BD 		.word	-1121483070
 566 0320 9D1125BD 		.word	-1121644131
 567 0324 97FF10BD 		.word	-1122959465
 568 0328 ABCFD5BC 		.word	-1126838357
 569              	.L24:
 570 032c B749     		ldr	r1, .L26
 571 032e FFF7FEFF 		bl	__aeabi_fmul
 572              	.LVL74:
 573 0332 0146     		mov	r1, r0
 574 0334 2846     		mov	r0, r5
 575 0336 FFF7FEFF 		bl	__aeabi_fadd
 576              	.LVL75:
 577 033a 0546     		mov	r5, r0
 578 033c E08C     		ldrh	r0, [r4, #38]
 579 033e FFF7FEFF 		bl	__aeabi_i2f
 580              	.LVL76:
 581 0342 B349     		ldr	r1, .L26+4
 582 0344 FFF7FEFF 		bl	__aeabi_fmul
 583              	.LVL77:
 584 0348 0146     		mov	r1, r0
 585 034a 2846     		mov	r0, r5
 586 034c FFF7FEFF 		bl	__aeabi_fadd
 587              	.LVL78:
 588 0350 0546     		mov	r5, r0
 589 0352 208D     		ldrh	r0, [r4, #40]
 590 0354 FFF7FEFF 		bl	__aeabi_i2f
 591              	.LVL79:
 592 0358 AE49     		ldr	r1, .L26+8
 593 035a FFF7FEFF 		bl	__aeabi_fmul
 594              	.LVL80:
 595 035e 0146     		mov	r1, r0
 596 0360 2846     		mov	r0, r5
 597 0362 FFF7FEFF 		bl	__aeabi_fadd
 598              	.LVL81:
 599 0366 0546     		mov	r5, r0
 600 0368 608D     		ldrh	r0, [r4, #42]
 601 036a FFF7FEFF 		bl	__aeabi_i2f
 602              	.LVL82:
 603 036e AA49     		ldr	r1, .L26+12
 604 0370 FFF7FEFF 		bl	__aeabi_fmul
 605              	.LVL83:
 606 0374 0146     		mov	r1, r0
 607 0376 2846     		mov	r0, r5
 608 0378 FFF7FEFF 		bl	__aeabi_fadd
 609              	.LVL84:
 610 037c 0546     		mov	r5, r0
 611 037e A08D     		ldrh	r0, [r4, #44]
 612 0380 FFF7FEFF 		bl	__aeabi_i2f
 613              	.LVL85:
 614 0384 A549     		ldr	r1, .L26+16
 615 0386 FFF7FEFF 		bl	__aeabi_fmul
 616              	.LVL86:
 617 038a 0146     		mov	r1, r0
 618 038c 2846     		mov	r0, r5
ARM GAS  C:\Users\LASER_2\AppData\Local\Temp\ccBjTwtn.s 			page 14


 619 038e FFF7FEFF 		bl	__aeabi_fadd
 620              	.LVL87:
 621 0392 0546     		mov	r5, r0
 622 0394 E08D     		ldrh	r0, [r4, #46]
 623 0396 FFF7FEFF 		bl	__aeabi_i2f
 624              	.LVL88:
 625 039a A149     		ldr	r1, .L26+20
 626 039c FFF7FEFF 		bl	__aeabi_fmul
 627              	.LVL89:
 628 03a0 0146     		mov	r1, r0
 629 03a2 2846     		mov	r0, r5
 630 03a4 FFF7FEFF 		bl	__aeabi_fadd
 631              	.LVL90:
 632 03a8 0546     		mov	r5, r0
 633 03aa 208E     		ldrh	r0, [r4, #48]
 634 03ac FFF7FEFF 		bl	__aeabi_i2f
 635              	.LVL91:
 636 03b0 9C49     		ldr	r1, .L26+24
 637 03b2 FFF7FEFF 		bl	__aeabi_fmul
 638              	.LVL92:
 639 03b6 0146     		mov	r1, r0
 640 03b8 2846     		mov	r0, r5
 641 03ba FFF7FEFF 		bl	__aeabi_fadd
 642              	.LVL93:
 643 03be 0546     		mov	r5, r0
 644 03c0 608E     		ldrh	r0, [r4, #50]
 645 03c2 FFF7FEFF 		bl	__aeabi_i2f
 646              	.LVL94:
 647 03c6 9849     		ldr	r1, .L26+28
 648 03c8 FFF7FEFF 		bl	__aeabi_fmul
 649              	.LVL95:
 650 03cc 0146     		mov	r1, r0
 651 03ce 2846     		mov	r0, r5
 652 03d0 FFF7FEFF 		bl	__aeabi_fadd
 653              	.LVL96:
 654 03d4 0546     		mov	r5, r0
 655 03d6 A08E     		ldrh	r0, [r4, #52]
 656 03d8 FFF7FEFF 		bl	__aeabi_i2f
 657              	.LVL97:
 658 03dc 9149     		ldr	r1, .L26+24
 659 03de FFF7FEFF 		bl	__aeabi_fmul
 660              	.LVL98:
 661 03e2 0146     		mov	r1, r0
 662 03e4 2846     		mov	r0, r5
 663 03e6 FFF7FEFF 		bl	__aeabi_fadd
 664              	.LVL99:
 665 03ea 0546     		mov	r5, r0
 666 03ec E08E     		ldrh	r0, [r4, #54]
 667 03ee FFF7FEFF 		bl	__aeabi_i2f
 668              	.LVL100:
 669 03f2 8B49     		ldr	r1, .L26+20
 670 03f4 FFF7FEFF 		bl	__aeabi_fmul
 671              	.LVL101:
 672 03f8 0146     		mov	r1, r0
 673 03fa 2846     		mov	r0, r5
 674 03fc FFF7FEFF 		bl	__aeabi_fadd
 675              	.LVL102:
ARM GAS  C:\Users\LASER_2\AppData\Local\Temp\ccBjTwtn.s 			page 15


 676 0400 0546     		mov	r5, r0
 677 0402 208F     		ldrh	r0, [r4, #56]
 678 0404 FFF7FEFF 		bl	__aeabi_i2f
 679              	.LVL103:
 680 0408 8449     		ldr	r1, .L26+16
 681 040a FFF7FEFF 		bl	__aeabi_fmul
 682              	.LVL104:
 683 040e 0146     		mov	r1, r0
 684 0410 2846     		mov	r0, r5
 685 0412 FFF7FEFF 		bl	__aeabi_fadd
 686              	.LVL105:
 687 0416 0546     		mov	r5, r0
 688 0418 608F     		ldrh	r0, [r4, #58]
 689 041a FFF7FEFF 		bl	__aeabi_i2f
 690              	.LVL106:
 691 041e 7E49     		ldr	r1, .L26+12
 692 0420 FFF7FEFF 		bl	__aeabi_fmul
 693              	.LVL107:
 694 0424 0146     		mov	r1, r0
 695 0426 2846     		mov	r0, r5
 696 0428 FFF7FEFF 		bl	__aeabi_fadd
 697              	.LVL108:
 698 042c 0546     		mov	r5, r0
 699 042e A08F     		ldrh	r0, [r4, #60]
 700 0430 FFF7FEFF 		bl	__aeabi_i2f
 701              	.LVL109:
 702 0434 7749     		ldr	r1, .L26+8
 703 0436 FFF7FEFF 		bl	__aeabi_fmul
 704              	.LVL110:
 705 043a 0146     		mov	r1, r0
 706 043c 2846     		mov	r0, r5
 707 043e FFF7FEFF 		bl	__aeabi_fadd
 708              	.LVL111:
 709 0442 0546     		mov	r5, r0
 710 0444 E08F     		ldrh	r0, [r4, #62]
 711 0446 FFF7FEFF 		bl	__aeabi_i2f
 712              	.LVL112:
 713 044a 7149     		ldr	r1, .L26+4
 714 044c FFF7FEFF 		bl	__aeabi_fmul
 715              	.LVL113:
 716 0450 0146     		mov	r1, r0
 717 0452 2846     		mov	r0, r5
 718 0454 FFF7FEFF 		bl	__aeabi_fadd
 719              	.LVL114:
 720 0458 0546     		mov	r5, r0
 721 045a B4F84000 		ldrh	r0, [r4, #64]
 722 045e FFF7FEFF 		bl	__aeabi_i2f
 723              	.LVL115:
 724 0462 6A49     		ldr	r1, .L26
 725 0464 FFF7FEFF 		bl	__aeabi_fmul
 726              	.LVL116:
 727 0468 0146     		mov	r1, r0
 728 046a 2846     		mov	r0, r5
 729 046c FFF7FEFF 		bl	__aeabi_fadd
 730              	.LVL117:
 731 0470 0546     		mov	r5, r0
 732 0472 B4F84200 		ldrh	r0, [r4, #66]
ARM GAS  C:\Users\LASER_2\AppData\Local\Temp\ccBjTwtn.s 			page 16


 733 0476 FFF7FEFF 		bl	__aeabi_i2f
 734              	.LVL118:
 735 047a 6C49     		ldr	r1, .L26+32
 736 047c FFF7FEFF 		bl	__aeabi_fmul
 737              	.LVL119:
 738 0480 0146     		mov	r1, r0
 739 0482 2846     		mov	r0, r5
 740 0484 FFF7FEFF 		bl	__aeabi_fadd
 741              	.LVL120:
 742 0488 0546     		mov	r5, r0
 743 048a B4F84400 		ldrh	r0, [r4, #68]
 744 048e FFF7FEFF 		bl	__aeabi_i2f
 745              	.LVL121:
 746 0492 6749     		ldr	r1, .L26+36
 747 0494 FFF7FEFF 		bl	__aeabi_fmul
 748              	.LVL122:
 749 0498 0146     		mov	r1, r0
 750 049a 2846     		mov	r0, r5
 751 049c FFF7FEFF 		bl	__aeabi_fadd
 752              	.LVL123:
 753 04a0 0546     		mov	r5, r0
 754 04a2 B4F84600 		ldrh	r0, [r4, #70]
 755 04a6 FFF7FEFF 		bl	__aeabi_i2f
 756              	.LVL124:
 757 04aa 6249     		ldr	r1, .L26+40
 758 04ac FFF7FEFF 		bl	__aeabi_fmul
 759              	.LVL125:
 760 04b0 0146     		mov	r1, r0
 761 04b2 2846     		mov	r0, r5
 762 04b4 FFF7FEFF 		bl	__aeabi_fadd
 763              	.LVL126:
 764 04b8 0546     		mov	r5, r0
 765 04ba B4F84800 		ldrh	r0, [r4, #72]
 766 04be FFF7FEFF 		bl	__aeabi_i2f
 767              	.LVL127:
 768 04c2 5D49     		ldr	r1, .L26+44
 769 04c4 FFF7FEFF 		bl	__aeabi_fmul
 770              	.LVL128:
 771 04c8 0146     		mov	r1, r0
 772 04ca 2846     		mov	r0, r5
 773 04cc FFF7FEFF 		bl	__aeabi_fadd
 774              	.LVL129:
 775 04d0 0546     		mov	r5, r0
 776 04d2 B4F84A00 		ldrh	r0, [r4, #74]
 777 04d6 FFF7FEFF 		bl	__aeabi_i2f
 778              	.LVL130:
 779 04da 5849     		ldr	r1, .L26+48
 780 04dc FFF7FEFF 		bl	__aeabi_fmul
 781              	.LVL131:
 782 04e0 0146     		mov	r1, r0
 783 04e2 2846     		mov	r0, r5
 784 04e4 FFF7FEFF 		bl	__aeabi_fadd
 785              	.LVL132:
 786 04e8 0546     		mov	r5, r0
 787 04ea B4F84C00 		ldrh	r0, [r4, #76]
 788 04ee FFF7FEFF 		bl	__aeabi_i2f
 789              	.LVL133:
ARM GAS  C:\Users\LASER_2\AppData\Local\Temp\ccBjTwtn.s 			page 17


 790 04f2 5349     		ldr	r1, .L26+52
 791 04f4 FFF7FEFF 		bl	__aeabi_fmul
 792              	.LVL134:
 793 04f8 0146     		mov	r1, r0
 794 04fa 2846     		mov	r0, r5
 795 04fc FFF7FEFF 		bl	__aeabi_fadd
 796              	.LVL135:
 797 0500 0546     		mov	r5, r0
 798 0502 B4F84E00 		ldrh	r0, [r4, #78]
 799 0506 FFF7FEFF 		bl	__aeabi_i2f
 800              	.LVL136:
 801 050a 4E49     		ldr	r1, .L26+56
 802 050c FFF7FEFF 		bl	__aeabi_fmul
 803              	.LVL137:
 804 0510 0146     		mov	r1, r0
 805 0512 2846     		mov	r0, r5
 806 0514 FFF7FEFF 		bl	__aeabi_fadd
 807              	.LVL138:
 808 0518 0546     		mov	r5, r0
 809 051a B4F85000 		ldrh	r0, [r4, #80]
 810 051e FFF7FEFF 		bl	__aeabi_i2f
 811              	.LVL139:
 812 0522 4949     		ldr	r1, .L26+60
 813 0524 FFF7FEFF 		bl	__aeabi_fmul
 814              	.LVL140:
 815 0528 0146     		mov	r1, r0
 816 052a 2846     		mov	r0, r5
 817 052c FFF7FEFF 		bl	__aeabi_fadd
 818              	.LVL141:
 819 0530 0546     		mov	r5, r0
 820 0532 B4F85200 		ldrh	r0, [r4, #82]
 821 0536 FFF7FEFF 		bl	__aeabi_i2f
 822              	.LVL142:
 823 053a 4449     		ldr	r1, .L26+64
 824 053c FFF7FEFF 		bl	__aeabi_fmul
 825              	.LVL143:
 826 0540 0146     		mov	r1, r0
 827 0542 2846     		mov	r0, r5
 828 0544 FFF7FEFF 		bl	__aeabi_fadd
 829              	.LVL144:
 830 0548 0546     		mov	r5, r0
 831 054a B4F85400 		ldrh	r0, [r4, #84]
 832 054e FFF7FEFF 		bl	__aeabi_i2f
 833              	.LVL145:
 834 0552 3F49     		ldr	r1, .L26+68
 835 0554 FFF7FEFF 		bl	__aeabi_fmul
 836              	.LVL146:
 837 0558 0146     		mov	r1, r0
 838 055a 2846     		mov	r0, r5
 839 055c FFF7FEFF 		bl	__aeabi_fadd
 840              	.LVL147:
 841 0560 0546     		mov	r5, r0
 842 0562 B4F85600 		ldrh	r0, [r4, #86]
 843 0566 FFF7FEFF 		bl	__aeabi_i2f
 844              	.LVL148:
 845 056a 3A49     		ldr	r1, .L26+72
 846 056c FFF7FEFF 		bl	__aeabi_fmul
ARM GAS  C:\Users\LASER_2\AppData\Local\Temp\ccBjTwtn.s 			page 18


 847              	.LVL149:
 848 0570 0146     		mov	r1, r0
 849 0572 2846     		mov	r0, r5
 850 0574 FFF7FEFF 		bl	__aeabi_fadd
 851              	.LVL150:
 852 0578 0546     		mov	r5, r0
 853 057a B4F85800 		ldrh	r0, [r4, #88]
 854 057e FFF7FEFF 		bl	__aeabi_i2f
 855              	.LVL151:
 856 0582 3549     		ldr	r1, .L26+76
 857 0584 FFF7FEFF 		bl	__aeabi_fmul
 858              	.LVL152:
 859 0588 0146     		mov	r1, r0
 860 058a 2846     		mov	r0, r5
 861 058c FFF7FEFF 		bl	__aeabi_fadd
 862              	.LVL153:
 863 0590 0546     		mov	r5, r0
 864 0592 B4F85A00 		ldrh	r0, [r4, #90]
 865 0596 FFF7FEFF 		bl	__aeabi_i2f
 866              	.LVL154:
 867 059a 3049     		ldr	r1, .L26+80
 868 059c FFF7FEFF 		bl	__aeabi_fmul
 869              	.LVL155:
 870 05a0 0146     		mov	r1, r0
 871 05a2 2846     		mov	r0, r5
 872 05a4 FFF7FEFF 		bl	__aeabi_fadd
 873              	.LVL156:
 874 05a8 0546     		mov	r5, r0
 875 05aa B4F85C00 		ldrh	r0, [r4, #92]
 876 05ae FFF7FEFF 		bl	__aeabi_i2f
 877              	.LVL157:
 878 05b2 2B49     		ldr	r1, .L26+84
 879 05b4 FFF7FEFF 		bl	__aeabi_fmul
 880              	.LVL158:
 881 05b8 0146     		mov	r1, r0
 882 05ba 2846     		mov	r0, r5
 883 05bc FFF7FEFF 		bl	__aeabi_fadd
 884              	.LVL159:
 885 05c0 0546     		mov	r5, r0
 886 05c2 B4F85E00 		ldrh	r0, [r4, #94]
 887 05c6 FFF7FEFF 		bl	__aeabi_i2f
 888              	.LVL160:
 889 05ca 2549     		ldr	r1, .L26+84
 890 05cc FFF7FEFF 		bl	__aeabi_fmul
 891              	.LVL161:
 892 05d0 0146     		mov	r1, r0
 893 05d2 2846     		mov	r0, r5
 894 05d4 FFF7FEFF 		bl	__aeabi_fadd
 895              	.LVL162:
 896 05d8 0546     		mov	r5, r0
 897 05da B4F86000 		ldrh	r0, [r4, #96]
 898 05de FFF7FEFF 		bl	__aeabi_i2f
 899              	.LVL163:
 900 05e2 2049     		ldr	r1, .L26+88
 901 05e4 FFF7FEFF 		bl	__aeabi_fmul
 902              	.LVL164:
 903 05e8 0146     		mov	r1, r0
ARM GAS  C:\Users\LASER_2\AppData\Local\Temp\ccBjTwtn.s 			page 19


 904 05ea 2846     		mov	r0, r5
 905 05ec FFF7FEFF 		bl	__aeabi_fadd
 906              	.LVL165:
 907 05f0 0546     		mov	r5, r0
 908 05f2 B4F86200 		ldrh	r0, [r4, #98]
 909 05f6 FFF7FEFF 		bl	__aeabi_i2f
 910              	.LVL166:
 911 05fa 1B49     		ldr	r1, .L26+92
 912 05fc FFF7FEFF 		bl	__aeabi_fmul
 913              	.LVL167:
 914 0600 0146     		mov	r1, r0
 915 0602 2846     		mov	r0, r5
 916 0604 FFF7FEFF 		bl	__aeabi_fadd
 917              	.LVL168:
 918 0608 0446     		mov	r4, r0
 919 060a 2FE0     		b	.L27
 920              	.L28:
 921              		.align	2
 922              	.L26:
 923 060c CDCC4CBC 		.word	-1135817523
 924 0610 BC74933B 		.word	999519420
 925 0614 1283C03C 		.word	1019249426
 926 0618 0E4F2F3D 		.word	1026510606
 927 061c FE65773D 		.word	1031235070
 928 0620 E3C7983D 		.word	1033422819
 929 0624 E86AAB3D 		.word	1034644200
 930 0628 A1F8B13D 		.word	1035073697
 931 062c ABCFD5BC 		.word	-1126838357
 932 0630 97FF10BD 		.word	-1122959465
 933 0634 9D1125BD 		.word	-1121644131
 934 0638 C28627BD 		.word	-1121483070
 935 063c E3A51BBD 		.word	-1122261533
 936 0640 948705BD 		.word	-1123711084
 937 0644 CE88D2BC 		.word	-1127053106
 938 0648 508D97BC 		.word	-1130918576
 939 064c CA5441BC 		.word	-1136569142
 940 0650 3B70CEBB 		.word	-1144098757
 941 0654 E02D10BB 		.word	-1156567584
 942 0658 52491D3A 		.word	974997842
 943 065c 6F12033B 		.word	990057071
 944 0660 C3642A3B 		.word	992634051
 945 0664 99BB163B 		.word	991345561
 946 0668 6C09F93A 		.word	989399404
 947              	.L27:
 948 066c 094B     		ldr	r3, .L29
 949 066e B3F86400 		ldrh	r0, [r3, #100]
 950 0672 FFF7FEFF 		bl	__aeabi_i2f
 951              	.LVL169:
 952 0676 0849     		ldr	r1, .L29+4
 953 0678 FFF7FEFF 		bl	__aeabi_fmul
 954              	.LVL170:
 955 067c 0146     		mov	r1, r0
 956 067e 2046     		mov	r0, r4
 957 0680 FFF7FEFF 		bl	__aeabi_fadd
 958              	.LVL171:
 959 0684 0549     		ldr	r1, .L29+8
 960 0686 FFF7FEFF 		bl	__aeabi_fadd
ARM GAS  C:\Users\LASER_2\AppData\Local\Temp\ccBjTwtn.s 			page 20


 961              	.LVL172:
 962 068a FFF7FEFF 		bl	__aeabi_f2uiz
 963              	.LVL173:
 964 068e C4B2     		uxtb	r4, r0
 965              	.LVL174:
 966 0690 00F077BE 		b	.L15
 967              	.L30:
 968              		.align	2
 969              	.L29:
 970 0694 00000000 		.word	x
 971 0698 17B7D13A 		.word	986822423
 972 069c 0000D842 		.word	1121452032
 973              	.LVL175:
 974              	.L16:
 124:main.c        **** }else if(cont==2){
 975              		.loc 1 124 0
 976 06a0 AE4B     		ldr	r3, .L31
 977 06a2 1B78     		ldrb	r3, [r3]	@ zero_extendqisi2
 978 06a4 DBB2     		uxtb	r3, r3
 979 06a6 022B     		cmp	r3, #2
 980 06a8 40F03C83 		bne	.L17
 125:main.c        ****     x[50] = x[49];
 981              		.loc 1 125 0
 982 06ac AC4C     		ldr	r4, .L31+4
 983 06ae B4F86230 		ldrh	r3, [r4, #98]
 984 06b2 A4F86430 		strh	r3, [r4, #100]	@ movhi
 126:main.c        ****     x[49] = x[48];
 985              		.loc 1 126 0
 986 06b6 B4F86030 		ldrh	r3, [r4, #96]
 987 06ba A4F86230 		strh	r3, [r4, #98]	@ movhi
 127:main.c        ****     x[48] = x[47];
 988              		.loc 1 127 0
 989 06be B4F85E30 		ldrh	r3, [r4, #94]
 990 06c2 A4F86030 		strh	r3, [r4, #96]	@ movhi
 128:main.c        ****     x[47] = x[46];
 991              		.loc 1 128 0
 992 06c6 B4F85C30 		ldrh	r3, [r4, #92]
 993 06ca A4F85E30 		strh	r3, [r4, #94]	@ movhi
 129:main.c        ****     x[46] = x[45];
 994              		.loc 1 129 0
 995 06ce B4F85A30 		ldrh	r3, [r4, #90]
 996 06d2 A4F85C30 		strh	r3, [r4, #92]	@ movhi
 130:main.c        ****     x[45] = x[44];
 997              		.loc 1 130 0
 998 06d6 B4F85830 		ldrh	r3, [r4, #88]
 999 06da A4F85A30 		strh	r3, [r4, #90]	@ movhi
 131:main.c        ****     x[44] = x[43];
 1000              		.loc 1 131 0
 1001 06de B4F85630 		ldrh	r3, [r4, #86]
 1002 06e2 A4F85830 		strh	r3, [r4, #88]	@ movhi
 132:main.c        ****     x[43] = x[42];
 1003              		.loc 1 132 0
 1004 06e6 B4F85430 		ldrh	r3, [r4, #84]
 1005 06ea A4F85630 		strh	r3, [r4, #86]	@ movhi
 133:main.c        ****     x[42] = x[41];
 1006              		.loc 1 133 0
 1007 06ee B4F85230 		ldrh	r3, [r4, #82]
ARM GAS  C:\Users\LASER_2\AppData\Local\Temp\ccBjTwtn.s 			page 21


 1008 06f2 A4F85430 		strh	r3, [r4, #84]	@ movhi
 134:main.c        ****     x[41] = x[40];
 1009              		.loc 1 134 0
 1010 06f6 B4F85030 		ldrh	r3, [r4, #80]
 1011 06fa A4F85230 		strh	r3, [r4, #82]	@ movhi
 135:main.c        ****     x[40] = x[39];
 1012              		.loc 1 135 0
 1013 06fe B4F84E30 		ldrh	r3, [r4, #78]
 1014 0702 A4F85030 		strh	r3, [r4, #80]	@ movhi
 136:main.c        ****     x[39] = x[38];
 1015              		.loc 1 136 0
 1016 0706 B4F84C30 		ldrh	r3, [r4, #76]
 1017 070a A4F84E30 		strh	r3, [r4, #78]	@ movhi
 137:main.c        ****     x[38] = x[37];
 1018              		.loc 1 137 0
 1019 070e B4F84A30 		ldrh	r3, [r4, #74]
 1020 0712 A4F84C30 		strh	r3, [r4, #76]	@ movhi
 138:main.c        ****     x[37] = x[36];
 1021              		.loc 1 138 0
 1022 0716 B4F84830 		ldrh	r3, [r4, #72]
 1023 071a A4F84A30 		strh	r3, [r4, #74]	@ movhi
 139:main.c        ****     x[36] = x[35];
 1024              		.loc 1 139 0
 1025 071e B4F84630 		ldrh	r3, [r4, #70]
 1026 0722 A4F84830 		strh	r3, [r4, #72]	@ movhi
 140:main.c        ****     x[35] = x[34];
 1027              		.loc 1 140 0
 1028 0726 B4F84430 		ldrh	r3, [r4, #68]
 1029 072a A4F84630 		strh	r3, [r4, #70]	@ movhi
 141:main.c        ****     x[34] = x[33];
 1030              		.loc 1 141 0
 1031 072e B4F84230 		ldrh	r3, [r4, #66]
 1032 0732 A4F84430 		strh	r3, [r4, #68]	@ movhi
 142:main.c        ****     x[33] = x[32];
 1033              		.loc 1 142 0
 1034 0736 B4F84030 		ldrh	r3, [r4, #64]
 1035 073a A4F84230 		strh	r3, [r4, #66]	@ movhi
 143:main.c        ****     x[32] = x[31];
 1036              		.loc 1 143 0
 1037 073e E38F     		ldrh	r3, [r4, #62]
 1038 0740 A4F84030 		strh	r3, [r4, #64]	@ movhi
 144:main.c        ****     x[31] = x[30];
 1039              		.loc 1 144 0
 1040 0744 A38F     		ldrh	r3, [r4, #60]
 1041 0746 E387     		strh	r3, [r4, #62]	@ movhi
 145:main.c        ****     x[30] = x[29];
 1042              		.loc 1 145 0
 1043 0748 638F     		ldrh	r3, [r4, #58]
 1044 074a A387     		strh	r3, [r4, #60]	@ movhi
 146:main.c        ****     x[29] = x[28];
 1045              		.loc 1 146 0
 1046 074c 238F     		ldrh	r3, [r4, #56]
 1047 074e 6387     		strh	r3, [r4, #58]	@ movhi
 147:main.c        ****     x[28] = x[27];
 1048              		.loc 1 147 0
 1049 0750 E38E     		ldrh	r3, [r4, #54]
 1050 0752 2387     		strh	r3, [r4, #56]	@ movhi
ARM GAS  C:\Users\LASER_2\AppData\Local\Temp\ccBjTwtn.s 			page 22


 148:main.c        ****     x[27] = x[26];
 1051              		.loc 1 148 0
 1052 0754 A38E     		ldrh	r3, [r4, #52]
 1053 0756 E386     		strh	r3, [r4, #54]	@ movhi
 149:main.c        ****     x[26] = x[25];
 1054              		.loc 1 149 0
 1055 0758 638E     		ldrh	r3, [r4, #50]
 1056 075a A386     		strh	r3, [r4, #52]	@ movhi
 150:main.c        ****     x[25] = x[24];
 1057              		.loc 1 150 0
 1058 075c 238E     		ldrh	r3, [r4, #48]
 1059 075e 6386     		strh	r3, [r4, #50]	@ movhi
 151:main.c        ****     x[24] = x[23];
 1060              		.loc 1 151 0
 1061 0760 E38D     		ldrh	r3, [r4, #46]
 1062 0762 2386     		strh	r3, [r4, #48]	@ movhi
 152:main.c        ****     x[23] = x[22];
 1063              		.loc 1 152 0
 1064 0764 A38D     		ldrh	r3, [r4, #44]
 1065 0766 E385     		strh	r3, [r4, #46]	@ movhi
 153:main.c        ****     x[22] = x[21];
 1066              		.loc 1 153 0
 1067 0768 638D     		ldrh	r3, [r4, #42]
 1068 076a A385     		strh	r3, [r4, #44]	@ movhi
 154:main.c        ****     x[21] = x[20];
 1069              		.loc 1 154 0
 1070 076c 238D     		ldrh	r3, [r4, #40]
 1071 076e 6385     		strh	r3, [r4, #42]	@ movhi
 155:main.c        ****     x[20] = x[19];
 1072              		.loc 1 155 0
 1073 0770 E38C     		ldrh	r3, [r4, #38]
 1074 0772 2385     		strh	r3, [r4, #40]	@ movhi
 156:main.c        ****     x[19] = x[18];
 1075              		.loc 1 156 0
 1076 0774 A38C     		ldrh	r3, [r4, #36]
 1077 0776 E384     		strh	r3, [r4, #38]	@ movhi
 157:main.c        ****     x[18] = x[17];
 1078              		.loc 1 157 0
 1079 0778 638C     		ldrh	r3, [r4, #34]
 1080 077a A384     		strh	r3, [r4, #36]	@ movhi
 158:main.c        ****     x[17] = x[16];
 1081              		.loc 1 158 0
 1082 077c 238C     		ldrh	r3, [r4, #32]
 1083 077e 6384     		strh	r3, [r4, #34]	@ movhi
 159:main.c        ****     x[16] = x[15];
 1084              		.loc 1 159 0
 1085 0780 E38B     		ldrh	r3, [r4, #30]
 1086 0782 2384     		strh	r3, [r4, #32]	@ movhi
 160:main.c        ****     x[15] = x[14];
 1087              		.loc 1 160 0
 1088 0784 A38B     		ldrh	r3, [r4, #28]
 1089 0786 E383     		strh	r3, [r4, #30]	@ movhi
 161:main.c        ****     x[14] = x[13];
 1090              		.loc 1 161 0
 1091 0788 638B     		ldrh	r3, [r4, #26]
 1092 078a A383     		strh	r3, [r4, #28]	@ movhi
 162:main.c        ****     x[13] = x[12];
ARM GAS  C:\Users\LASER_2\AppData\Local\Temp\ccBjTwtn.s 			page 23


 1093              		.loc 1 162 0
 1094 078c 238B     		ldrh	r3, [r4, #24]
 1095 078e 6383     		strh	r3, [r4, #26]	@ movhi
 163:main.c        ****     x[12] = x[11];
 1096              		.loc 1 163 0
 1097 0790 E38A     		ldrh	r3, [r4, #22]
 1098 0792 2383     		strh	r3, [r4, #24]	@ movhi
 164:main.c        ****     x[11] = x[10];
 1099              		.loc 1 164 0
 1100 0794 A38A     		ldrh	r3, [r4, #20]
 1101 0796 E382     		strh	r3, [r4, #22]	@ movhi
 165:main.c        ****     x[10] = x[9];
 1102              		.loc 1 165 0
 1103 0798 638A     		ldrh	r3, [r4, #18]
 1104 079a A382     		strh	r3, [r4, #20]	@ movhi
 166:main.c        ****     x[9] = x[8];
 1105              		.loc 1 166 0
 1106 079c 238A     		ldrh	r3, [r4, #16]
 1107 079e 6382     		strh	r3, [r4, #18]	@ movhi
 167:main.c        ****     x[8] = x[7];
 1108              		.loc 1 167 0
 1109 07a0 E389     		ldrh	r3, [r4, #14]
 1110 07a2 2382     		strh	r3, [r4, #16]	@ movhi
 168:main.c        ****     x[7] = x[6];
 1111              		.loc 1 168 0
 1112 07a4 A389     		ldrh	r3, [r4, #12]
 1113 07a6 E381     		strh	r3, [r4, #14]	@ movhi
 169:main.c        ****     x[6] = x[5];
 1114              		.loc 1 169 0
 1115 07a8 6389     		ldrh	r3, [r4, #10]
 1116 07aa A381     		strh	r3, [r4, #12]	@ movhi
 170:main.c        ****     x[5] = x[4];
 1117              		.loc 1 170 0
 1118 07ac 2389     		ldrh	r3, [r4, #8]
 1119 07ae 6381     		strh	r3, [r4, #10]	@ movhi
 171:main.c        ****     x[4] = x[3];
 1120              		.loc 1 171 0
 1121 07b0 E388     		ldrh	r3, [r4, #6]
 1122 07b2 2381     		strh	r3, [r4, #8]	@ movhi
 172:main.c        ****     x[3] = x[2];
 1123              		.loc 1 172 0
 1124 07b4 A388     		ldrh	r3, [r4, #4]
 1125 07b6 E380     		strh	r3, [r4, #6]	@ movhi
 173:main.c        ****     x[2] = x[1];
 1126              		.loc 1 173 0
 1127 07b8 6388     		ldrh	r3, [r4, #2]
 1128 07ba A380     		strh	r3, [r4, #4]	@ movhi
 174:main.c        ****     x[1] = x[0];  
 1129              		.loc 1 174 0
 1130 07bc 2388     		ldrh	r3, [r4]
 1131 07be 6380     		strh	r3, [r4, #2]	@ movhi
 175:main.c        ****     ADC_StartConvert();
 1132              		.loc 1 175 0
 1133 07c0 FFF7FEFF 		bl	ADC_StartConvert
 1134              	.LVL176:
 176:main.c        ****     ADC_IsEndConversion(ADC_WAIT_FOR_RESULT);
 1135              		.loc 1 176 0
ARM GAS  C:\Users\LASER_2\AppData\Local\Temp\ccBjTwtn.s 			page 24


 1136 07c4 0020     		movs	r0, #0
 1137 07c6 FFF7FEFF 		bl	ADC_IsEndConversion
 1138              	.LVL177:
 177:main.c        ****     x[0] = ADC_GetResult16();
 1139              		.loc 1 177 0
 1140 07ca FFF7FEFF 		bl	ADC_GetResult16
 1141              	.LVL178:
 1142 07ce 80B2     		uxth	r0, r0
 1143 07d0 2080     		strh	r0, [r4]	@ movhi
 178:main.c        ****     y = (x[0]*g[0]+x[1]*g[1]+x[2]*h[2]+x[3]*g[3]+x[4]*g[4]+x[5]*g[5]+x[6]*g[6]+x[7]*g[7]+x[8]*g[8]+
 1144              		.loc 1 178 0
 1145 07d2 FFF7FEFF 		bl	__aeabi_i2f
 1146              	.LVL179:
 1147 07d6 6349     		ldr	r1, .L31+8
 1148 07d8 FFF7FEFF 		bl	__aeabi_fmul
 1149              	.LVL180:
 1150 07dc 0546     		mov	r5, r0
 1151 07de 6088     		ldrh	r0, [r4, #2]
 1152 07e0 FFF7FEFF 		bl	__aeabi_i2f
 1153              	.LVL181:
 1154 07e4 6049     		ldr	r1, .L31+12
 1155 07e6 FFF7FEFF 		bl	__aeabi_fmul
 1156              	.LVL182:
 1157 07ea 0146     		mov	r1, r0
 1158 07ec 2846     		mov	r0, r5
 1159 07ee FFF7FEFF 		bl	__aeabi_fadd
 1160              	.LVL183:
 1161 07f2 0546     		mov	r5, r0
 1162 07f4 A088     		ldrh	r0, [r4, #4]
 1163 07f6 FFF7FEFF 		bl	__aeabi_i2f
 1164              	.LVL184:
 1165 07fa 5C49     		ldr	r1, .L31+16
 1166 07fc FFF7FEFF 		bl	__aeabi_fmul
 1167              	.LVL185:
 1168 0800 0146     		mov	r1, r0
 1169 0802 2846     		mov	r0, r5
 1170 0804 FFF7FEFF 		bl	__aeabi_fadd
 1171              	.LVL186:
 1172 0808 0546     		mov	r5, r0
 1173 080a E088     		ldrh	r0, [r4, #6]
 1174 080c FFF7FEFF 		bl	__aeabi_i2f
 1175              	.LVL187:
 1176 0810 5749     		ldr	r1, .L31+20
 1177 0812 FFF7FEFF 		bl	__aeabi_fmul
 1178              	.LVL188:
 1179 0816 0146     		mov	r1, r0
 1180 0818 2846     		mov	r0, r5
 1181 081a FFF7FEFF 		bl	__aeabi_fadd
 1182              	.LVL189:
 1183 081e 0546     		mov	r5, r0
 1184 0820 2089     		ldrh	r0, [r4, #8]
 1185 0822 FFF7FEFF 		bl	__aeabi_i2f
 1186              	.LVL190:
 1187 0826 5349     		ldr	r1, .L31+24
 1188 0828 FFF7FEFF 		bl	__aeabi_fmul
 1189              	.LVL191:
 1190 082c 0146     		mov	r1, r0
ARM GAS  C:\Users\LASER_2\AppData\Local\Temp\ccBjTwtn.s 			page 25


 1191 082e 2846     		mov	r0, r5
 1192 0830 FFF7FEFF 		bl	__aeabi_fadd
 1193              	.LVL192:
 1194 0834 0546     		mov	r5, r0
 1195 0836 6089     		ldrh	r0, [r4, #10]
 1196 0838 FFF7FEFF 		bl	__aeabi_i2f
 1197              	.LVL193:
 1198 083c 4E49     		ldr	r1, .L31+28
 1199 083e FFF7FEFF 		bl	__aeabi_fmul
 1200              	.LVL194:
 1201 0842 0146     		mov	r1, r0
 1202 0844 2846     		mov	r0, r5
 1203 0846 FFF7FEFF 		bl	__aeabi_fadd
 1204              	.LVL195:
 1205 084a 0546     		mov	r5, r0
 1206 084c A089     		ldrh	r0, [r4, #12]
 1207 084e FFF7FEFF 		bl	__aeabi_i2f
 1208              	.LVL196:
 1209 0852 4A49     		ldr	r1, .L31+32
 1210 0854 FFF7FEFF 		bl	__aeabi_fmul
 1211              	.LVL197:
 1212 0858 0146     		mov	r1, r0
 1213 085a 2846     		mov	r0, r5
 1214 085c FFF7FEFF 		bl	__aeabi_fadd
 1215              	.LVL198:
 1216 0860 0546     		mov	r5, r0
 1217 0862 E089     		ldrh	r0, [r4, #14]
 1218 0864 FFF7FEFF 		bl	__aeabi_i2f
 1219              	.LVL199:
 1220 0868 4549     		ldr	r1, .L31+36
 1221 086a FFF7FEFF 		bl	__aeabi_fmul
 1222              	.LVL200:
 1223 086e 0146     		mov	r1, r0
 1224 0870 2846     		mov	r0, r5
 1225 0872 FFF7FEFF 		bl	__aeabi_fadd
 1226              	.LVL201:
 1227 0876 0546     		mov	r5, r0
 1228 0878 208A     		ldrh	r0, [r4, #16]
 1229 087a FFF7FEFF 		bl	__aeabi_i2f
 1230              	.LVL202:
 1231 087e 4149     		ldr	r1, .L31+40
 1232 0880 FFF7FEFF 		bl	__aeabi_fmul
 1233              	.LVL203:
 1234 0884 0146     		mov	r1, r0
 1235 0886 2846     		mov	r0, r5
 1236 0888 FFF7FEFF 		bl	__aeabi_fadd
 1237              	.LVL204:
 1238 088c 0546     		mov	r5, r0
 1239 088e 608A     		ldrh	r0, [r4, #18]
 1240 0890 FFF7FEFF 		bl	__aeabi_i2f
 1241              	.LVL205:
 1242 0894 3C49     		ldr	r1, .L31+44
 1243 0896 FFF7FEFF 		bl	__aeabi_fmul
 1244              	.LVL206:
 1245 089a 0146     		mov	r1, r0
 1246 089c 2846     		mov	r0, r5
 1247 089e FFF7FEFF 		bl	__aeabi_fadd
ARM GAS  C:\Users\LASER_2\AppData\Local\Temp\ccBjTwtn.s 			page 26


 1248              	.LVL207:
 1249 08a2 0546     		mov	r5, r0
 1250 08a4 A08A     		ldrh	r0, [r4, #20]
 1251 08a6 FFF7FEFF 		bl	__aeabi_i2f
 1252              	.LVL208:
 1253 08aa 3849     		ldr	r1, .L31+48
 1254 08ac FFF7FEFF 		bl	__aeabi_fmul
 1255              	.LVL209:
 1256 08b0 0146     		mov	r1, r0
 1257 08b2 2846     		mov	r0, r5
 1258 08b4 FFF7FEFF 		bl	__aeabi_fadd
 1259              	.LVL210:
 1260 08b8 0546     		mov	r5, r0
 1261 08ba E08A     		ldrh	r0, [r4, #22]
 1262 08bc FFF7FEFF 		bl	__aeabi_i2f
 1263              	.LVL211:
 1264 08c0 3349     		ldr	r1, .L31+52
 1265 08c2 FFF7FEFF 		bl	__aeabi_fmul
 1266              	.LVL212:
 1267 08c6 0146     		mov	r1, r0
 1268 08c8 2846     		mov	r0, r5
 1269 08ca FFF7FEFF 		bl	__aeabi_fadd
 1270              	.LVL213:
 1271 08ce 0546     		mov	r5, r0
 1272 08d0 208B     		ldrh	r0, [r4, #24]
 1273 08d2 FFF7FEFF 		bl	__aeabi_i2f
 1274              	.LVL214:
 1275 08d6 2F49     		ldr	r1, .L31+56
 1276 08d8 FFF7FEFF 		bl	__aeabi_fmul
 1277              	.LVL215:
 1278 08dc 0146     		mov	r1, r0
 1279 08de 2846     		mov	r0, r5
 1280 08e0 FFF7FEFF 		bl	__aeabi_fadd
 1281              	.LVL216:
 1282 08e4 0546     		mov	r5, r0
 1283 08e6 608B     		ldrh	r0, [r4, #26]
 1284 08e8 FFF7FEFF 		bl	__aeabi_i2f
 1285              	.LVL217:
 1286 08ec 2A49     		ldr	r1, .L31+60
 1287 08ee FFF7FEFF 		bl	__aeabi_fmul
 1288              	.LVL218:
 1289 08f2 0146     		mov	r1, r0
 1290 08f4 2846     		mov	r0, r5
 1291 08f6 FFF7FEFF 		bl	__aeabi_fadd
 1292              	.LVL219:
 1293 08fa 0546     		mov	r5, r0
 1294 08fc A08B     		ldrh	r0, [r4, #28]
 1295 08fe FFF7FEFF 		bl	__aeabi_i2f
 1296              	.LVL220:
 1297 0902 2649     		ldr	r1, .L31+64
 1298 0904 FFF7FEFF 		bl	__aeabi_fmul
 1299              	.LVL221:
 1300 0908 0146     		mov	r1, r0
 1301 090a 2846     		mov	r0, r5
 1302 090c FFF7FEFF 		bl	__aeabi_fadd
 1303              	.LVL222:
 1304 0910 0546     		mov	r5, r0
ARM GAS  C:\Users\LASER_2\AppData\Local\Temp\ccBjTwtn.s 			page 27


 1305 0912 E08B     		ldrh	r0, [r4, #30]
 1306 0914 FFF7FEFF 		bl	__aeabi_i2f
 1307              	.LVL223:
 1308 0918 2149     		ldr	r1, .L31+68
 1309 091a FFF7FEFF 		bl	__aeabi_fmul
 1310              	.LVL224:
 1311 091e 0146     		mov	r1, r0
 1312 0920 2846     		mov	r0, r5
 1313 0922 FFF7FEFF 		bl	__aeabi_fadd
 1314              	.LVL225:
 1315 0926 0546     		mov	r5, r0
 1316 0928 208C     		ldrh	r0, [r4, #32]
 1317 092a FFF7FEFF 		bl	__aeabi_i2f
 1318              	.LVL226:
 1319 092e 1D49     		ldr	r1, .L31+72
 1320 0930 FFF7FEFF 		bl	__aeabi_fmul
 1321              	.LVL227:
 1322 0934 0146     		mov	r1, r0
 1323 0936 2846     		mov	r0, r5
 1324 0938 FFF7FEFF 		bl	__aeabi_fadd
 1325              	.LVL228:
 1326 093c 0546     		mov	r5, r0
 1327 093e 608C     		ldrh	r0, [r4, #34]
 1328 0940 FFF7FEFF 		bl	__aeabi_i2f
 1329              	.LVL229:
 1330 0944 1849     		ldr	r1, .L31+76
 1331 0946 FFF7FEFF 		bl	__aeabi_fmul
 1332              	.LVL230:
 1333 094a 0146     		mov	r1, r0
 1334 094c 2846     		mov	r0, r5
 1335 094e FFF7FEFF 		bl	__aeabi_fadd
 1336              	.LVL231:
 1337 0952 0546     		mov	r5, r0
 1338 0954 A08C     		ldrh	r0, [r4, #36]
 1339 0956 FFF7FEFF 		bl	__aeabi_i2f
 1340              	.LVL232:
 1341 095a 27E0     		b	.L32
 1342              	.L33:
 1343              		.align	2
 1344              	.L31:
 1345 095c 00000000 		.word	.LANCHOR0
 1346 0960 00000000 		.word	x
 1347 0964 6F1283BA 		.word	-1165815185
 1348 0968 89D2DEBA 		.word	-1159802231
 1349 096c 99BB163B 		.word	991345561
 1350 0970 FAEDEBBA 		.word	-1158943238
 1351 0974 17B7D1B9 		.word	-1177438441
 1352 0978 E02D103B 		.word	990916064
 1353 097c C364AA3B 		.word	1001022659
 1354 0980 4260E53B 		.word	1004888130
 1355 0984 17B7D13B 		.word	1003599639
 1356 0988 4260653B 		.word	996499522
 1357 098c 52499D39 		.word	966609234
 1358 0990 17B751B9 		.word	-1185827049
 1359 0994 27A0893B 		.word	998875175
 1360 0998 E3A51BBD 		.word	-1122261533
 1361 099c 2E90A03C 		.word	1017155630
ARM GAS  C:\Users\LASER_2\AppData\Local\Temp\ccBjTwtn.s 			page 28


 1362 09a0 05A3923C 		.word	1016242949
 1363 09a4 FAEDEB3A 		.word	988540410
 1364 09a8 8C4AEABC 		.word	-1125496180
 1365              	.L32:
 1366 09ac B749     		ldr	r1, .L34
 1367 09ae FFF7FEFF 		bl	__aeabi_fmul
 1368              	.LVL233:
 1369 09b2 0146     		mov	r1, r0
 1370 09b4 2846     		mov	r0, r5
 1371 09b6 FFF7FEFF 		bl	__aeabi_fadd
 1372              	.LVL234:
 1373 09ba 0546     		mov	r5, r0
 1374 09bc E08C     		ldrh	r0, [r4, #38]
 1375 09be FFF7FEFF 		bl	__aeabi_i2f
 1376              	.LVL235:
 1377 09c2 B349     		ldr	r1, .L34+4
 1378 09c4 FFF7FEFF 		bl	__aeabi_fmul
 1379              	.LVL236:
 1380 09c8 0146     		mov	r1, r0
 1381 09ca 2846     		mov	r0, r5
 1382 09cc FFF7FEFF 		bl	__aeabi_fadd
 1383              	.LVL237:
 1384 09d0 0546     		mov	r5, r0
 1385 09d2 208D     		ldrh	r0, [r4, #40]
 1386 09d4 FFF7FEFF 		bl	__aeabi_i2f
 1387              	.LVL238:
 1388 09d8 AE49     		ldr	r1, .L34+8
 1389 09da FFF7FEFF 		bl	__aeabi_fmul
 1390              	.LVL239:
 1391 09de 0146     		mov	r1, r0
 1392 09e0 2846     		mov	r0, r5
 1393 09e2 FFF7FEFF 		bl	__aeabi_fadd
 1394              	.LVL240:
 1395 09e6 0546     		mov	r5, r0
 1396 09e8 608D     		ldrh	r0, [r4, #42]
 1397 09ea FFF7FEFF 		bl	__aeabi_i2f
 1398              	.LVL241:
 1399 09ee AA49     		ldr	r1, .L34+12
 1400 09f0 FFF7FEFF 		bl	__aeabi_fmul
 1401              	.LVL242:
 1402 09f4 0146     		mov	r1, r0
 1403 09f6 2846     		mov	r0, r5
 1404 09f8 FFF7FEFF 		bl	__aeabi_fadd
 1405              	.LVL243:
 1406 09fc 0546     		mov	r5, r0
 1407 09fe A08D     		ldrh	r0, [r4, #44]
 1408 0a00 FFF7FEFF 		bl	__aeabi_i2f
 1409              	.LVL244:
 1410 0a04 A549     		ldr	r1, .L34+16
 1411 0a06 FFF7FEFF 		bl	__aeabi_fmul
 1412              	.LVL245:
 1413 0a0a 0146     		mov	r1, r0
 1414 0a0c 2846     		mov	r0, r5
 1415 0a0e FFF7FEFF 		bl	__aeabi_fadd
 1416              	.LVL246:
 1417 0a12 0546     		mov	r5, r0
 1418 0a14 E08D     		ldrh	r0, [r4, #46]
ARM GAS  C:\Users\LASER_2\AppData\Local\Temp\ccBjTwtn.s 			page 29


 1419 0a16 FFF7FEFF 		bl	__aeabi_i2f
 1420              	.LVL247:
 1421 0a1a A149     		ldr	r1, .L34+20
 1422 0a1c FFF7FEFF 		bl	__aeabi_fmul
 1423              	.LVL248:
 1424 0a20 0146     		mov	r1, r0
 1425 0a22 2846     		mov	r0, r5
 1426 0a24 FFF7FEFF 		bl	__aeabi_fadd
 1427              	.LVL249:
 1428 0a28 0546     		mov	r5, r0
 1429 0a2a 208E     		ldrh	r0, [r4, #48]
 1430 0a2c FFF7FEFF 		bl	__aeabi_i2f
 1431              	.LVL250:
 1432 0a30 9C49     		ldr	r1, .L34+24
 1433 0a32 FFF7FEFF 		bl	__aeabi_fmul
 1434              	.LVL251:
 1435 0a36 0146     		mov	r1, r0
 1436 0a38 2846     		mov	r0, r5
 1437 0a3a FFF7FEFF 		bl	__aeabi_fadd
 1438              	.LVL252:
 1439 0a3e 0546     		mov	r5, r0
 1440 0a40 608E     		ldrh	r0, [r4, #50]
 1441 0a42 FFF7FEFF 		bl	__aeabi_i2f
 1442              	.LVL253:
 1443 0a46 9849     		ldr	r1, .L34+28
 1444 0a48 FFF7FEFF 		bl	__aeabi_fmul
 1445              	.LVL254:
 1446 0a4c 0146     		mov	r1, r0
 1447 0a4e 2846     		mov	r0, r5
 1448 0a50 FFF7FEFF 		bl	__aeabi_fadd
 1449              	.LVL255:
 1450 0a54 0546     		mov	r5, r0
 1451 0a56 A08E     		ldrh	r0, [r4, #52]
 1452 0a58 FFF7FEFF 		bl	__aeabi_i2f
 1453              	.LVL256:
 1454 0a5c 9149     		ldr	r1, .L34+24
 1455 0a5e FFF7FEFF 		bl	__aeabi_fmul
 1456              	.LVL257:
 1457 0a62 0146     		mov	r1, r0
 1458 0a64 2846     		mov	r0, r5
 1459 0a66 FFF7FEFF 		bl	__aeabi_fadd
 1460              	.LVL258:
 1461 0a6a 0546     		mov	r5, r0
 1462 0a6c E08E     		ldrh	r0, [r4, #54]
 1463 0a6e FFF7FEFF 		bl	__aeabi_i2f
 1464              	.LVL259:
 1465 0a72 8B49     		ldr	r1, .L34+20
 1466 0a74 FFF7FEFF 		bl	__aeabi_fmul
 1467              	.LVL260:
 1468 0a78 0146     		mov	r1, r0
 1469 0a7a 2846     		mov	r0, r5
 1470 0a7c FFF7FEFF 		bl	__aeabi_fadd
 1471              	.LVL261:
 1472 0a80 0546     		mov	r5, r0
 1473 0a82 208F     		ldrh	r0, [r4, #56]
 1474 0a84 FFF7FEFF 		bl	__aeabi_i2f
 1475              	.LVL262:
ARM GAS  C:\Users\LASER_2\AppData\Local\Temp\ccBjTwtn.s 			page 30


 1476 0a88 8449     		ldr	r1, .L34+16
 1477 0a8a FFF7FEFF 		bl	__aeabi_fmul
 1478              	.LVL263:
 1479 0a8e 0146     		mov	r1, r0
 1480 0a90 2846     		mov	r0, r5
 1481 0a92 FFF7FEFF 		bl	__aeabi_fadd
 1482              	.LVL264:
 1483 0a96 0546     		mov	r5, r0
 1484 0a98 608F     		ldrh	r0, [r4, #58]
 1485 0a9a FFF7FEFF 		bl	__aeabi_i2f
 1486              	.LVL265:
 1487 0a9e 7E49     		ldr	r1, .L34+12
 1488 0aa0 FFF7FEFF 		bl	__aeabi_fmul
 1489              	.LVL266:
 1490 0aa4 0146     		mov	r1, r0
 1491 0aa6 2846     		mov	r0, r5
 1492 0aa8 FFF7FEFF 		bl	__aeabi_fadd
 1493              	.LVL267:
 1494 0aac 0546     		mov	r5, r0
 1495 0aae A08F     		ldrh	r0, [r4, #60]
 1496 0ab0 FFF7FEFF 		bl	__aeabi_i2f
 1497              	.LVL268:
 1498 0ab4 7749     		ldr	r1, .L34+8
 1499 0ab6 FFF7FEFF 		bl	__aeabi_fmul
 1500              	.LVL269:
 1501 0aba 0146     		mov	r1, r0
 1502 0abc 2846     		mov	r0, r5
 1503 0abe FFF7FEFF 		bl	__aeabi_fadd
 1504              	.LVL270:
 1505 0ac2 0546     		mov	r5, r0
 1506 0ac4 E08F     		ldrh	r0, [r4, #62]
 1507 0ac6 FFF7FEFF 		bl	__aeabi_i2f
 1508              	.LVL271:
 1509 0aca 7149     		ldr	r1, .L34+4
 1510 0acc FFF7FEFF 		bl	__aeabi_fmul
 1511              	.LVL272:
 1512 0ad0 0146     		mov	r1, r0
 1513 0ad2 2846     		mov	r0, r5
 1514 0ad4 FFF7FEFF 		bl	__aeabi_fadd
 1515              	.LVL273:
 1516 0ad8 0546     		mov	r5, r0
 1517 0ada B4F84000 		ldrh	r0, [r4, #64]
 1518 0ade FFF7FEFF 		bl	__aeabi_i2f
 1519              	.LVL274:
 1520 0ae2 6A49     		ldr	r1, .L34
 1521 0ae4 FFF7FEFF 		bl	__aeabi_fmul
 1522              	.LVL275:
 1523 0ae8 0146     		mov	r1, r0
 1524 0aea 2846     		mov	r0, r5
 1525 0aec FFF7FEFF 		bl	__aeabi_fadd
 1526              	.LVL276:
 1527 0af0 0546     		mov	r5, r0
 1528 0af2 B4F84200 		ldrh	r0, [r4, #66]
 1529 0af6 FFF7FEFF 		bl	__aeabi_i2f
 1530              	.LVL277:
 1531 0afa 6C49     		ldr	r1, .L34+32
 1532 0afc FFF7FEFF 		bl	__aeabi_fmul
ARM GAS  C:\Users\LASER_2\AppData\Local\Temp\ccBjTwtn.s 			page 31


 1533              	.LVL278:
 1534 0b00 0146     		mov	r1, r0
 1535 0b02 2846     		mov	r0, r5
 1536 0b04 FFF7FEFF 		bl	__aeabi_fadd
 1537              	.LVL279:
 1538 0b08 0546     		mov	r5, r0
 1539 0b0a B4F84400 		ldrh	r0, [r4, #68]
 1540 0b0e FFF7FEFF 		bl	__aeabi_i2f
 1541              	.LVL280:
 1542 0b12 6749     		ldr	r1, .L34+36
 1543 0b14 FFF7FEFF 		bl	__aeabi_fmul
 1544              	.LVL281:
 1545 0b18 0146     		mov	r1, r0
 1546 0b1a 2846     		mov	r0, r5
 1547 0b1c FFF7FEFF 		bl	__aeabi_fadd
 1548              	.LVL282:
 1549 0b20 0546     		mov	r5, r0
 1550 0b22 B4F84600 		ldrh	r0, [r4, #70]
 1551 0b26 FFF7FEFF 		bl	__aeabi_i2f
 1552              	.LVL283:
 1553 0b2a 6249     		ldr	r1, .L34+40
 1554 0b2c FFF7FEFF 		bl	__aeabi_fmul
 1555              	.LVL284:
 1556 0b30 0146     		mov	r1, r0
 1557 0b32 2846     		mov	r0, r5
 1558 0b34 FFF7FEFF 		bl	__aeabi_fadd
 1559              	.LVL285:
 1560 0b38 0546     		mov	r5, r0
 1561 0b3a B4F84800 		ldrh	r0, [r4, #72]
 1562 0b3e FFF7FEFF 		bl	__aeabi_i2f
 1563              	.LVL286:
 1564 0b42 5D49     		ldr	r1, .L34+44
 1565 0b44 FFF7FEFF 		bl	__aeabi_fmul
 1566              	.LVL287:
 1567 0b48 0146     		mov	r1, r0
 1568 0b4a 2846     		mov	r0, r5
 1569 0b4c FFF7FEFF 		bl	__aeabi_fadd
 1570              	.LVL288:
 1571 0b50 0546     		mov	r5, r0
 1572 0b52 B4F84A00 		ldrh	r0, [r4, #74]
 1573 0b56 FFF7FEFF 		bl	__aeabi_i2f
 1574              	.LVL289:
 1575 0b5a 5849     		ldr	r1, .L34+48
 1576 0b5c FFF7FEFF 		bl	__aeabi_fmul
 1577              	.LVL290:
 1578 0b60 0146     		mov	r1, r0
 1579 0b62 2846     		mov	r0, r5
 1580 0b64 FFF7FEFF 		bl	__aeabi_fadd
 1581              	.LVL291:
 1582 0b68 0546     		mov	r5, r0
 1583 0b6a B4F84C00 		ldrh	r0, [r4, #76]
 1584 0b6e FFF7FEFF 		bl	__aeabi_i2f
 1585              	.LVL292:
 1586 0b72 5349     		ldr	r1, .L34+52
 1587 0b74 FFF7FEFF 		bl	__aeabi_fmul
 1588              	.LVL293:
 1589 0b78 0146     		mov	r1, r0
ARM GAS  C:\Users\LASER_2\AppData\Local\Temp\ccBjTwtn.s 			page 32


 1590 0b7a 2846     		mov	r0, r5
 1591 0b7c FFF7FEFF 		bl	__aeabi_fadd
 1592              	.LVL294:
 1593 0b80 0546     		mov	r5, r0
 1594 0b82 B4F84E00 		ldrh	r0, [r4, #78]
 1595 0b86 FFF7FEFF 		bl	__aeabi_i2f
 1596              	.LVL295:
 1597 0b8a 4E49     		ldr	r1, .L34+56
 1598 0b8c FFF7FEFF 		bl	__aeabi_fmul
 1599              	.LVL296:
 1600 0b90 0146     		mov	r1, r0
 1601 0b92 2846     		mov	r0, r5
 1602 0b94 FFF7FEFF 		bl	__aeabi_fadd
 1603              	.LVL297:
 1604 0b98 0546     		mov	r5, r0
 1605 0b9a B4F85000 		ldrh	r0, [r4, #80]
 1606 0b9e FFF7FEFF 		bl	__aeabi_i2f
 1607              	.LVL298:
 1608 0ba2 4949     		ldr	r1, .L34+60
 1609 0ba4 FFF7FEFF 		bl	__aeabi_fmul
 1610              	.LVL299:
 1611 0ba8 0146     		mov	r1, r0
 1612 0baa 2846     		mov	r0, r5
 1613 0bac FFF7FEFF 		bl	__aeabi_fadd
 1614              	.LVL300:
 1615 0bb0 0546     		mov	r5, r0
 1616 0bb2 B4F85200 		ldrh	r0, [r4, #82]
 1617 0bb6 FFF7FEFF 		bl	__aeabi_i2f
 1618              	.LVL301:
 1619 0bba 4449     		ldr	r1, .L34+64
 1620 0bbc FFF7FEFF 		bl	__aeabi_fmul
 1621              	.LVL302:
 1622 0bc0 0146     		mov	r1, r0
 1623 0bc2 2846     		mov	r0, r5
 1624 0bc4 FFF7FEFF 		bl	__aeabi_fadd
 1625              	.LVL303:
 1626 0bc8 0546     		mov	r5, r0
 1627 0bca B4F85400 		ldrh	r0, [r4, #84]
 1628 0bce FFF7FEFF 		bl	__aeabi_i2f
 1629              	.LVL304:
 1630 0bd2 3F49     		ldr	r1, .L34+68
 1631 0bd4 FFF7FEFF 		bl	__aeabi_fmul
 1632              	.LVL305:
 1633 0bd8 0146     		mov	r1, r0
 1634 0bda 2846     		mov	r0, r5
 1635 0bdc FFF7FEFF 		bl	__aeabi_fadd
 1636              	.LVL306:
 1637 0be0 0546     		mov	r5, r0
 1638 0be2 B4F85600 		ldrh	r0, [r4, #86]
 1639 0be6 FFF7FEFF 		bl	__aeabi_i2f
 1640              	.LVL307:
 1641 0bea 3A49     		ldr	r1, .L34+72
 1642 0bec FFF7FEFF 		bl	__aeabi_fmul
 1643              	.LVL308:
 1644 0bf0 0146     		mov	r1, r0
 1645 0bf2 2846     		mov	r0, r5
 1646 0bf4 FFF7FEFF 		bl	__aeabi_fadd
ARM GAS  C:\Users\LASER_2\AppData\Local\Temp\ccBjTwtn.s 			page 33


 1647              	.LVL309:
 1648 0bf8 0546     		mov	r5, r0
 1649 0bfa B4F85800 		ldrh	r0, [r4, #88]
 1650 0bfe FFF7FEFF 		bl	__aeabi_i2f
 1651              	.LVL310:
 1652 0c02 3549     		ldr	r1, .L34+76
 1653 0c04 FFF7FEFF 		bl	__aeabi_fmul
 1654              	.LVL311:
 1655 0c08 0146     		mov	r1, r0
 1656 0c0a 2846     		mov	r0, r5
 1657 0c0c FFF7FEFF 		bl	__aeabi_fadd
 1658              	.LVL312:
 1659 0c10 0546     		mov	r5, r0
 1660 0c12 B4F85A00 		ldrh	r0, [r4, #90]
 1661 0c16 FFF7FEFF 		bl	__aeabi_i2f
 1662              	.LVL313:
 1663 0c1a 3049     		ldr	r1, .L34+80
 1664 0c1c FFF7FEFF 		bl	__aeabi_fmul
 1665              	.LVL314:
 1666 0c20 0146     		mov	r1, r0
 1667 0c22 2846     		mov	r0, r5
 1668 0c24 FFF7FEFF 		bl	__aeabi_fadd
 1669              	.LVL315:
 1670 0c28 0546     		mov	r5, r0
 1671 0c2a B4F85C00 		ldrh	r0, [r4, #92]
 1672 0c2e FFF7FEFF 		bl	__aeabi_i2f
 1673              	.LVL316:
 1674 0c32 2B49     		ldr	r1, .L34+84
 1675 0c34 FFF7FEFF 		bl	__aeabi_fmul
 1676              	.LVL317:
 1677 0c38 0146     		mov	r1, r0
 1678 0c3a 2846     		mov	r0, r5
 1679 0c3c FFF7FEFF 		bl	__aeabi_fadd
 1680              	.LVL318:
 1681 0c40 0546     		mov	r5, r0
 1682 0c42 B4F85E00 		ldrh	r0, [r4, #94]
 1683 0c46 FFF7FEFF 		bl	__aeabi_i2f
 1684              	.LVL319:
 1685 0c4a 2649     		ldr	r1, .L34+88
 1686 0c4c FFF7FEFF 		bl	__aeabi_fmul
 1687              	.LVL320:
 1688 0c50 0146     		mov	r1, r0
 1689 0c52 2846     		mov	r0, r5
 1690 0c54 FFF7FEFF 		bl	__aeabi_fadd
 1691              	.LVL321:
 1692 0c58 0546     		mov	r5, r0
 1693 0c5a B4F86000 		ldrh	r0, [r4, #96]
 1694 0c5e FFF7FEFF 		bl	__aeabi_i2f
 1695              	.LVL322:
 1696 0c62 2149     		ldr	r1, .L34+92
 1697 0c64 FFF7FEFF 		bl	__aeabi_fmul
 1698              	.LVL323:
 1699 0c68 0146     		mov	r1, r0
 1700 0c6a 2846     		mov	r0, r5
 1701 0c6c FFF7FEFF 		bl	__aeabi_fadd
 1702              	.LVL324:
 1703 0c70 0546     		mov	r5, r0
ARM GAS  C:\Users\LASER_2\AppData\Local\Temp\ccBjTwtn.s 			page 34


 1704 0c72 B4F86200 		ldrh	r0, [r4, #98]
 1705 0c76 FFF7FEFF 		bl	__aeabi_i2f
 1706              	.LVL325:
 1707 0c7a 1C49     		ldr	r1, .L34+96
 1708 0c7c FFF7FEFF 		bl	__aeabi_fmul
 1709              	.LVL326:
 1710 0c80 0146     		mov	r1, r0
 1711 0c82 2846     		mov	r0, r5
 1712 0c84 FFF7FEFF 		bl	__aeabi_fadd
 1713              	.LVL327:
 1714 0c88 0446     		mov	r4, r0
 1715 0c8a 31E0     		b	.L35
 1716              	.L36:
 1717              		.align	2
 1718              	.L34:
 1719 0c8c 931884BD 		.word	-1115416429
 1720 0c90 ECC0B9BD 		.word	-1111899924
 1721 0c94 ED9EBCBD 		.word	-1111712019
 1722 0c98 90A078BD 		.word	-1116168048
 1723 0c9c 17B7D1BA 		.word	-1160661225
 1724 0ca0 DE718A3D 		.word	1032483294
 1725 0ca4 FFB2FB3D 		.word	1039905535
 1726 0ca8 BC74133E 		.word	1041462460
 1727 0cac 8C4AEABC 		.word	-1125496180
 1728 0cb0 FAEDEB3A 		.word	988540410
 1729 0cb4 05A3923C 		.word	1016242949
 1730 0cb8 2E90A03C 		.word	1017155630
 1731 0cbc CDCC4C3C 		.word	1011666125
 1732 0cc0 27A0893B 		.word	998875175
 1733 0cc4 17B751B9 		.word	-1185827049
 1734 0cc8 52499D39 		.word	966609234
 1735 0ccc 4260653B 		.word	996499522
 1736 0cd0 17B7D13B 		.word	1003599639
 1737 0cd4 4260E53B 		.word	1004888130
 1738 0cd8 C364AA3B 		.word	1001022659
 1739 0cdc E02D103B 		.word	990916064
 1740 0ce0 17B7D1B9 		.word	-1177438441
 1741 0ce4 FAEDEBBA 		.word	-1158943238
 1742 0ce8 27A009BB 		.word	-1156997081
 1743 0cec 89D2DEBA 		.word	-1159802231
 1744              	.L35:
 1745 0cf0 094B     		ldr	r3, .L37
 1746 0cf2 B3F86400 		ldrh	r0, [r3, #100]
 1747 0cf6 FFF7FEFF 		bl	__aeabi_i2f
 1748              	.LVL328:
 1749 0cfa 0849     		ldr	r1, .L37+4
 1750 0cfc FFF7FEFF 		bl	__aeabi_fmul
 1751              	.LVL329:
 1752 0d00 0146     		mov	r1, r0
 1753 0d02 2046     		mov	r0, r4
 1754 0d04 FFF7FEFF 		bl	__aeabi_fadd
 1755              	.LVL330:
 1756 0d08 0549     		ldr	r1, .L37+8
 1757 0d0a FFF7FEFF 		bl	__aeabi_fadd
 1758              	.LVL331:
 1759 0d0e FFF7FEFF 		bl	__aeabi_f2uiz
 1760              	.LVL332:
ARM GAS  C:\Users\LASER_2\AppData\Local\Temp\ccBjTwtn.s 			page 35


 1761 0d12 C4B2     		uxtb	r4, r0
 1762              	.LVL333:
 1763 0d14 35E3     		b	.L15
 1764              	.L38:
 1765 0d16 00BF     		.align	2
 1766              	.L37:
 1767 0d18 00000000 		.word	x
 1768 0d1c 6F1283BA 		.word	-1165815185
 1769 0d20 0000D842 		.word	1121452032
 1770              	.LVL334:
 1771              	.L17:
 179:main.c        **** }else{
 180:main.c        ****     x[50] = x[49];
 1772              		.loc 1 180 0
 1773 0d24 AF4C     		ldr	r4, .L39
 1774 0d26 B4F86230 		ldrh	r3, [r4, #98]
 1775 0d2a A4F86430 		strh	r3, [r4, #100]	@ movhi
 181:main.c        ****     x[49] = x[48];
 1776              		.loc 1 181 0
 1777 0d2e B4F86030 		ldrh	r3, [r4, #96]
 1778 0d32 A4F86230 		strh	r3, [r4, #98]	@ movhi
 182:main.c        ****     x[48] = x[47];
 1779              		.loc 1 182 0
 1780 0d36 B4F85E30 		ldrh	r3, [r4, #94]
 1781 0d3a A4F86030 		strh	r3, [r4, #96]	@ movhi
 183:main.c        ****     x[47] = x[46];
 1782              		.loc 1 183 0
 1783 0d3e B4F85C30 		ldrh	r3, [r4, #92]
 1784 0d42 A4F85E30 		strh	r3, [r4, #94]	@ movhi
 184:main.c        ****     x[46] = x[45];
 1785              		.loc 1 184 0
 1786 0d46 B4F85A30 		ldrh	r3, [r4, #90]
 1787 0d4a A4F85C30 		strh	r3, [r4, #92]	@ movhi
 185:main.c        ****     x[45] = x[44];
 1788              		.loc 1 185 0
 1789 0d4e B4F85830 		ldrh	r3, [r4, #88]
 1790 0d52 A4F85A30 		strh	r3, [r4, #90]	@ movhi
 186:main.c        ****     x[44] = x[43];
 1791              		.loc 1 186 0
 1792 0d56 B4F85630 		ldrh	r3, [r4, #86]
 1793 0d5a A4F85830 		strh	r3, [r4, #88]	@ movhi
 187:main.c        ****     x[43] = x[42];
 1794              		.loc 1 187 0
 1795 0d5e B4F85430 		ldrh	r3, [r4, #84]
 1796 0d62 A4F85630 		strh	r3, [r4, #86]	@ movhi
 188:main.c        ****     x[42] = x[41];
 1797              		.loc 1 188 0
 1798 0d66 B4F85230 		ldrh	r3, [r4, #82]
 1799 0d6a A4F85430 		strh	r3, [r4, #84]	@ movhi
 189:main.c        ****     x[41] = x[40];
 1800              		.loc 1 189 0
 1801 0d6e B4F85030 		ldrh	r3, [r4, #80]
 1802 0d72 A4F85230 		strh	r3, [r4, #82]	@ movhi
 190:main.c        ****     x[40] = x[39];
 1803              		.loc 1 190 0
 1804 0d76 B4F84E30 		ldrh	r3, [r4, #78]
 1805 0d7a A4F85030 		strh	r3, [r4, #80]	@ movhi
ARM GAS  C:\Users\LASER_2\AppData\Local\Temp\ccBjTwtn.s 			page 36


 191:main.c        ****     x[39] = x[38];
 1806              		.loc 1 191 0
 1807 0d7e B4F84C30 		ldrh	r3, [r4, #76]
 1808 0d82 A4F84E30 		strh	r3, [r4, #78]	@ movhi
 192:main.c        ****     x[38] = x[37];
 1809              		.loc 1 192 0
 1810 0d86 B4F84A30 		ldrh	r3, [r4, #74]
 1811 0d8a A4F84C30 		strh	r3, [r4, #76]	@ movhi
 193:main.c        ****     x[37] = x[36];
 1812              		.loc 1 193 0
 1813 0d8e B4F84830 		ldrh	r3, [r4, #72]
 1814 0d92 A4F84A30 		strh	r3, [r4, #74]	@ movhi
 194:main.c        ****     x[36] = x[35];
 1815              		.loc 1 194 0
 1816 0d96 B4F84630 		ldrh	r3, [r4, #70]
 1817 0d9a A4F84830 		strh	r3, [r4, #72]	@ movhi
 195:main.c        ****     x[35] = x[34];
 1818              		.loc 1 195 0
 1819 0d9e B4F84430 		ldrh	r3, [r4, #68]
 1820 0da2 A4F84630 		strh	r3, [r4, #70]	@ movhi
 196:main.c        ****     x[34] = x[33];
 1821              		.loc 1 196 0
 1822 0da6 B4F84230 		ldrh	r3, [r4, #66]
 1823 0daa A4F84430 		strh	r3, [r4, #68]	@ movhi
 197:main.c        ****     x[33] = x[32];
 1824              		.loc 1 197 0
 1825 0dae B4F84030 		ldrh	r3, [r4, #64]
 1826 0db2 A4F84230 		strh	r3, [r4, #66]	@ movhi
 198:main.c        ****     x[32] = x[31];
 1827              		.loc 1 198 0
 1828 0db6 E38F     		ldrh	r3, [r4, #62]
 1829 0db8 A4F84030 		strh	r3, [r4, #64]	@ movhi
 199:main.c        ****     x[31] = x[30];
 1830              		.loc 1 199 0
 1831 0dbc A38F     		ldrh	r3, [r4, #60]
 1832 0dbe E387     		strh	r3, [r4, #62]	@ movhi
 200:main.c        ****     x[30] = x[29];
 1833              		.loc 1 200 0
 1834 0dc0 638F     		ldrh	r3, [r4, #58]
 1835 0dc2 A387     		strh	r3, [r4, #60]	@ movhi
 201:main.c        ****     x[29] = x[28];
 1836              		.loc 1 201 0
 1837 0dc4 238F     		ldrh	r3, [r4, #56]
 1838 0dc6 6387     		strh	r3, [r4, #58]	@ movhi
 202:main.c        ****     x[28] = x[27];
 1839              		.loc 1 202 0
 1840 0dc8 E38E     		ldrh	r3, [r4, #54]
 1841 0dca 2387     		strh	r3, [r4, #56]	@ movhi
 203:main.c        ****     x[27] = x[26];
 1842              		.loc 1 203 0
 1843 0dcc A38E     		ldrh	r3, [r4, #52]
 1844 0dce E386     		strh	r3, [r4, #54]	@ movhi
 204:main.c        ****     x[26] = x[25];
 1845              		.loc 1 204 0
 1846 0dd0 638E     		ldrh	r3, [r4, #50]
 1847 0dd2 A386     		strh	r3, [r4, #52]	@ movhi
 205:main.c        ****     x[25] = x[24];
ARM GAS  C:\Users\LASER_2\AppData\Local\Temp\ccBjTwtn.s 			page 37


 1848              		.loc 1 205 0
 1849 0dd4 238E     		ldrh	r3, [r4, #48]
 1850 0dd6 6386     		strh	r3, [r4, #50]	@ movhi
 206:main.c        ****     x[24] = x[23];
 1851              		.loc 1 206 0
 1852 0dd8 E38D     		ldrh	r3, [r4, #46]
 1853 0dda 2386     		strh	r3, [r4, #48]	@ movhi
 207:main.c        ****     x[23] = x[22];
 1854              		.loc 1 207 0
 1855 0ddc A38D     		ldrh	r3, [r4, #44]
 1856 0dde E385     		strh	r3, [r4, #46]	@ movhi
 208:main.c        ****     x[22] = x[21];
 1857              		.loc 1 208 0
 1858 0de0 638D     		ldrh	r3, [r4, #42]
 1859 0de2 A385     		strh	r3, [r4, #44]	@ movhi
 209:main.c        ****     x[21] = x[20];
 1860              		.loc 1 209 0
 1861 0de4 238D     		ldrh	r3, [r4, #40]
 1862 0de6 6385     		strh	r3, [r4, #42]	@ movhi
 210:main.c        ****     x[20] = x[19];
 1863              		.loc 1 210 0
 1864 0de8 E38C     		ldrh	r3, [r4, #38]
 1865 0dea 2385     		strh	r3, [r4, #40]	@ movhi
 211:main.c        ****     x[19] = x[18];
 1866              		.loc 1 211 0
 1867 0dec A38C     		ldrh	r3, [r4, #36]
 1868 0dee E384     		strh	r3, [r4, #38]	@ movhi
 212:main.c        ****     x[18] = x[17];
 1869              		.loc 1 212 0
 1870 0df0 638C     		ldrh	r3, [r4, #34]
 1871 0df2 A384     		strh	r3, [r4, #36]	@ movhi
 213:main.c        ****     x[17] = x[16];
 1872              		.loc 1 213 0
 1873 0df4 238C     		ldrh	r3, [r4, #32]
 1874 0df6 6384     		strh	r3, [r4, #34]	@ movhi
 214:main.c        ****     x[16] = x[15];
 1875              		.loc 1 214 0
 1876 0df8 E38B     		ldrh	r3, [r4, #30]
 1877 0dfa 2384     		strh	r3, [r4, #32]	@ movhi
 215:main.c        ****     x[15] = x[14];
 1878              		.loc 1 215 0
 1879 0dfc A38B     		ldrh	r3, [r4, #28]
 1880 0dfe E383     		strh	r3, [r4, #30]	@ movhi
 216:main.c        ****     x[14] = x[13];
 1881              		.loc 1 216 0
 1882 0e00 638B     		ldrh	r3, [r4, #26]
 1883 0e02 A383     		strh	r3, [r4, #28]	@ movhi
 217:main.c        ****     x[13] = x[12];
 1884              		.loc 1 217 0
 1885 0e04 238B     		ldrh	r3, [r4, #24]
 1886 0e06 6383     		strh	r3, [r4, #26]	@ movhi
 218:main.c        ****     x[12] = x[11];
 1887              		.loc 1 218 0
 1888 0e08 E38A     		ldrh	r3, [r4, #22]
 1889 0e0a 2383     		strh	r3, [r4, #24]	@ movhi
 219:main.c        ****     x[11] = x[10];
 1890              		.loc 1 219 0
ARM GAS  C:\Users\LASER_2\AppData\Local\Temp\ccBjTwtn.s 			page 38


 1891 0e0c A38A     		ldrh	r3, [r4, #20]
 1892 0e0e E382     		strh	r3, [r4, #22]	@ movhi
 220:main.c        ****     x[10] = x[9];
 1893              		.loc 1 220 0
 1894 0e10 638A     		ldrh	r3, [r4, #18]
 1895 0e12 A382     		strh	r3, [r4, #20]	@ movhi
 221:main.c        ****     x[9] = x[8];
 1896              		.loc 1 221 0
 1897 0e14 238A     		ldrh	r3, [r4, #16]
 1898 0e16 6382     		strh	r3, [r4, #18]	@ movhi
 222:main.c        ****     x[8] = x[7];
 1899              		.loc 1 222 0
 1900 0e18 E389     		ldrh	r3, [r4, #14]
 1901 0e1a 2382     		strh	r3, [r4, #16]	@ movhi
 223:main.c        ****     x[7] = x[6];
 1902              		.loc 1 223 0
 1903 0e1c A389     		ldrh	r3, [r4, #12]
 1904 0e1e E381     		strh	r3, [r4, #14]	@ movhi
 224:main.c        ****     x[6] = x[5];
 1905              		.loc 1 224 0
 1906 0e20 6389     		ldrh	r3, [r4, #10]
 1907 0e22 A381     		strh	r3, [r4, #12]	@ movhi
 225:main.c        ****     x[5] = x[4];
 1908              		.loc 1 225 0
 1909 0e24 2389     		ldrh	r3, [r4, #8]
 1910 0e26 6381     		strh	r3, [r4, #10]	@ movhi
 226:main.c        ****     x[4] = x[3];
 1911              		.loc 1 226 0
 1912 0e28 E388     		ldrh	r3, [r4, #6]
 1913 0e2a 2381     		strh	r3, [r4, #8]	@ movhi
 227:main.c        ****     x[3] = x[2];
 1914              		.loc 1 227 0
 1915 0e2c A388     		ldrh	r3, [r4, #4]
 1916 0e2e E380     		strh	r3, [r4, #6]	@ movhi
 228:main.c        ****     x[2] = x[1];
 1917              		.loc 1 228 0
 1918 0e30 6388     		ldrh	r3, [r4, #2]
 1919 0e32 A380     		strh	r3, [r4, #4]	@ movhi
 229:main.c        ****     x[1] = x[0];  
 1920              		.loc 1 229 0
 1921 0e34 2388     		ldrh	r3, [r4]
 1922 0e36 6380     		strh	r3, [r4, #2]	@ movhi
 230:main.c        ****     ADC_StartConvert();
 1923              		.loc 1 230 0
 1924 0e38 FFF7FEFF 		bl	ADC_StartConvert
 1925              	.LVL335:
 231:main.c        ****     ADC_IsEndConversion(ADC_WAIT_FOR_RESULT);
 1926              		.loc 1 231 0
 1927 0e3c 0020     		movs	r0, #0
 1928 0e3e FFF7FEFF 		bl	ADC_IsEndConversion
 1929              	.LVL336:
 232:main.c        ****     x[0] = ADC_GetResult16();
 1930              		.loc 1 232 0
 1931 0e42 FFF7FEFF 		bl	ADC_GetResult16
 1932              	.LVL337:
 1933 0e46 80B2     		uxth	r0, r0
 1934 0e48 2080     		strh	r0, [r4]	@ movhi
ARM GAS  C:\Users\LASER_2\AppData\Local\Temp\ccBjTwtn.s 			page 39


 233:main.c        ****     y = (x[0]*w[0]+x[1]*w[1]+x[2]*h[2]+x[3]*w[3]+x[4]*w[4]+x[5]*w[5]+x[6]*w[6]+x[7]*w[7]+x[8]*w[8]+
 1935              		.loc 1 233 0
 1936 0e4a FFF7FEFF 		bl	__aeabi_i2f
 1937              	.LVL338:
 1938 0e4e 0021     		movs	r1, #0
 1939 0e50 FFF7FEFF 		bl	__aeabi_fmul
 1940              	.LVL339:
 1941 0e54 0546     		mov	r5, r0
 1942 0e56 6088     		ldrh	r0, [r4, #2]
 1943 0e58 FFF7FEFF 		bl	__aeabi_i2f
 1944              	.LVL340:
 1945 0e5c 6249     		ldr	r1, .L39+4
 1946 0e5e FFF7FEFF 		bl	__aeabi_fmul
 1947              	.LVL341:
 1948 0e62 0146     		mov	r1, r0
 1949 0e64 2846     		mov	r0, r5
 1950 0e66 FFF7FEFF 		bl	__aeabi_fadd
 1951              	.LVL342:
 1952 0e6a 0546     		mov	r5, r0
 1953 0e6c A088     		ldrh	r0, [r4, #4]
 1954 0e6e FFF7FEFF 		bl	__aeabi_i2f
 1955              	.LVL343:
 1956 0e72 5E49     		ldr	r1, .L39+8
 1957 0e74 FFF7FEFF 		bl	__aeabi_fmul
 1958              	.LVL344:
 1959 0e78 0146     		mov	r1, r0
 1960 0e7a 2846     		mov	r0, r5
 1961 0e7c FFF7FEFF 		bl	__aeabi_fadd
 1962              	.LVL345:
 1963 0e80 0546     		mov	r5, r0
 1964 0e82 E088     		ldrh	r0, [r4, #6]
 1965 0e84 FFF7FEFF 		bl	__aeabi_i2f
 1966              	.LVL346:
 1967 0e88 5949     		ldr	r1, .L39+12
 1968 0e8a FFF7FEFF 		bl	__aeabi_fmul
 1969              	.LVL347:
 1970 0e8e 0146     		mov	r1, r0
 1971 0e90 2846     		mov	r0, r5
 1972 0e92 FFF7FEFF 		bl	__aeabi_fadd
 1973              	.LVL348:
 1974 0e96 0546     		mov	r5, r0
 1975 0e98 2089     		ldrh	r0, [r4, #8]
 1976 0e9a FFF7FEFF 		bl	__aeabi_i2f
 1977              	.LVL349:
 1978 0e9e 5549     		ldr	r1, .L39+16
 1979 0ea0 FFF7FEFF 		bl	__aeabi_fmul
 1980              	.LVL350:
 1981 0ea4 0146     		mov	r1, r0
 1982 0ea6 2846     		mov	r0, r5
 1983 0ea8 FFF7FEFF 		bl	__aeabi_fadd
 1984              	.LVL351:
 1985 0eac 0546     		mov	r5, r0
 1986 0eae 6089     		ldrh	r0, [r4, #10]
 1987 0eb0 FFF7FEFF 		bl	__aeabi_i2f
 1988              	.LVL352:
 1989 0eb4 5049     		ldr	r1, .L39+20
 1990 0eb6 FFF7FEFF 		bl	__aeabi_fmul
ARM GAS  C:\Users\LASER_2\AppData\Local\Temp\ccBjTwtn.s 			page 40


 1991              	.LVL353:
 1992 0eba 0146     		mov	r1, r0
 1993 0ebc 2846     		mov	r0, r5
 1994 0ebe FFF7FEFF 		bl	__aeabi_fadd
 1995              	.LVL354:
 1996 0ec2 0546     		mov	r5, r0
 1997 0ec4 A089     		ldrh	r0, [r4, #12]
 1998 0ec6 FFF7FEFF 		bl	__aeabi_i2f
 1999              	.LVL355:
 2000 0eca 4C49     		ldr	r1, .L39+24
 2001 0ecc FFF7FEFF 		bl	__aeabi_fmul
 2002              	.LVL356:
 2003 0ed0 0146     		mov	r1, r0
 2004 0ed2 2846     		mov	r0, r5
 2005 0ed4 FFF7FEFF 		bl	__aeabi_fadd
 2006              	.LVL357:
 2007 0ed8 0546     		mov	r5, r0
 2008 0eda E089     		ldrh	r0, [r4, #14]
 2009 0edc FFF7FEFF 		bl	__aeabi_i2f
 2010              	.LVL358:
 2011 0ee0 4749     		ldr	r1, .L39+28
 2012 0ee2 FFF7FEFF 		bl	__aeabi_fmul
 2013              	.LVL359:
 2014 0ee6 0146     		mov	r1, r0
 2015 0ee8 2846     		mov	r0, r5
 2016 0eea FFF7FEFF 		bl	__aeabi_fadd
 2017              	.LVL360:
 2018 0eee 0546     		mov	r5, r0
 2019 0ef0 208A     		ldrh	r0, [r4, #16]
 2020 0ef2 FFF7FEFF 		bl	__aeabi_i2f
 2021              	.LVL361:
 2022 0ef6 4349     		ldr	r1, .L39+32
 2023 0ef8 FFF7FEFF 		bl	__aeabi_fmul
 2024              	.LVL362:
 2025 0efc 0146     		mov	r1, r0
 2026 0efe 2846     		mov	r0, r5
 2027 0f00 FFF7FEFF 		bl	__aeabi_fadd
 2028              	.LVL363:
 2029 0f04 0546     		mov	r5, r0
 2030 0f06 608A     		ldrh	r0, [r4, #18]
 2031 0f08 FFF7FEFF 		bl	__aeabi_i2f
 2032              	.LVL364:
 2033 0f0c 3E49     		ldr	r1, .L39+36
 2034 0f0e FFF7FEFF 		bl	__aeabi_fmul
 2035              	.LVL365:
 2036 0f12 0146     		mov	r1, r0
 2037 0f14 2846     		mov	r0, r5
 2038 0f16 FFF7FEFF 		bl	__aeabi_fadd
 2039              	.LVL366:
 2040 0f1a 0546     		mov	r5, r0
 2041 0f1c A08A     		ldrh	r0, [r4, #20]
 2042 0f1e FFF7FEFF 		bl	__aeabi_i2f
 2043              	.LVL367:
 2044 0f22 3A49     		ldr	r1, .L39+40
 2045 0f24 FFF7FEFF 		bl	__aeabi_fmul
 2046              	.LVL368:
 2047 0f28 0146     		mov	r1, r0
ARM GAS  C:\Users\LASER_2\AppData\Local\Temp\ccBjTwtn.s 			page 41


 2048 0f2a 2846     		mov	r0, r5
 2049 0f2c FFF7FEFF 		bl	__aeabi_fadd
 2050              	.LVL369:
 2051 0f30 0546     		mov	r5, r0
 2052 0f32 E08A     		ldrh	r0, [r4, #22]
 2053 0f34 FFF7FEFF 		bl	__aeabi_i2f
 2054              	.LVL370:
 2055 0f38 3549     		ldr	r1, .L39+44
 2056 0f3a FFF7FEFF 		bl	__aeabi_fmul
 2057              	.LVL371:
 2058 0f3e 0146     		mov	r1, r0
 2059 0f40 2846     		mov	r0, r5
 2060 0f42 FFF7FEFF 		bl	__aeabi_fadd
 2061              	.LVL372:
 2062 0f46 0546     		mov	r5, r0
 2063 0f48 208B     		ldrh	r0, [r4, #24]
 2064 0f4a FFF7FEFF 		bl	__aeabi_i2f
 2065              	.LVL373:
 2066 0f4e 3149     		ldr	r1, .L39+48
 2067 0f50 FFF7FEFF 		bl	__aeabi_fmul
 2068              	.LVL374:
 2069 0f54 0146     		mov	r1, r0
 2070 0f56 2846     		mov	r0, r5
 2071 0f58 FFF7FEFF 		bl	__aeabi_fadd
 2072              	.LVL375:
 2073 0f5c 0546     		mov	r5, r0
 2074 0f5e 608B     		ldrh	r0, [r4, #26]
 2075 0f60 FFF7FEFF 		bl	__aeabi_i2f
 2076              	.LVL376:
 2077 0f64 2C49     		ldr	r1, .L39+52
 2078 0f66 FFF7FEFF 		bl	__aeabi_fmul
 2079              	.LVL377:
 2080 0f6a 0146     		mov	r1, r0
 2081 0f6c 2846     		mov	r0, r5
 2082 0f6e FFF7FEFF 		bl	__aeabi_fadd
 2083              	.LVL378:
 2084 0f72 0546     		mov	r5, r0
 2085 0f74 A08B     		ldrh	r0, [r4, #28]
 2086 0f76 FFF7FEFF 		bl	__aeabi_i2f
 2087              	.LVL379:
 2088 0f7a 2849     		ldr	r1, .L39+56
 2089 0f7c FFF7FEFF 		bl	__aeabi_fmul
 2090              	.LVL380:
 2091 0f80 0146     		mov	r1, r0
 2092 0f82 2846     		mov	r0, r5
 2093 0f84 FFF7FEFF 		bl	__aeabi_fadd
 2094              	.LVL381:
 2095 0f88 0546     		mov	r5, r0
 2096 0f8a E08B     		ldrh	r0, [r4, #30]
 2097 0f8c FFF7FEFF 		bl	__aeabi_i2f
 2098              	.LVL382:
 2099 0f90 2349     		ldr	r1, .L39+60
 2100 0f92 FFF7FEFF 		bl	__aeabi_fmul
 2101              	.LVL383:
 2102 0f96 0146     		mov	r1, r0
 2103 0f98 2846     		mov	r0, r5
 2104 0f9a FFF7FEFF 		bl	__aeabi_fadd
ARM GAS  C:\Users\LASER_2\AppData\Local\Temp\ccBjTwtn.s 			page 42


 2105              	.LVL384:
 2106 0f9e 0546     		mov	r5, r0
 2107 0fa0 208C     		ldrh	r0, [r4, #32]
 2108 0fa2 FFF7FEFF 		bl	__aeabi_i2f
 2109              	.LVL385:
 2110 0fa6 1F49     		ldr	r1, .L39+64
 2111 0fa8 FFF7FEFF 		bl	__aeabi_fmul
 2112              	.LVL386:
 2113 0fac 0146     		mov	r1, r0
 2114 0fae 2846     		mov	r0, r5
 2115 0fb0 FFF7FEFF 		bl	__aeabi_fadd
 2116              	.LVL387:
 2117 0fb4 0546     		mov	r5, r0
 2118 0fb6 608C     		ldrh	r0, [r4, #34]
 2119 0fb8 FFF7FEFF 		bl	__aeabi_i2f
 2120              	.LVL388:
 2121 0fbc 1A49     		ldr	r1, .L39+68
 2122 0fbe FFF7FEFF 		bl	__aeabi_fmul
 2123              	.LVL389:
 2124 0fc2 0146     		mov	r1, r0
 2125 0fc4 2846     		mov	r0, r5
 2126 0fc6 FFF7FEFF 		bl	__aeabi_fadd
 2127              	.LVL390:
 2128 0fca 0546     		mov	r5, r0
 2129 0fcc A08C     		ldrh	r0, [r4, #36]
 2130 0fce FFF7FEFF 		bl	__aeabi_i2f
 2131              	.LVL391:
 2132 0fd2 1649     		ldr	r1, .L39+72
 2133 0fd4 FFF7FEFF 		bl	__aeabi_fmul
 2134              	.LVL392:
 2135 0fd8 0146     		mov	r1, r0
 2136 0fda 2846     		mov	r0, r5
 2137 0fdc FFF7FEFF 		bl	__aeabi_fadd
 2138              	.LVL393:
 2139 0fe0 0546     		mov	r5, r0
 2140 0fe2 25E0     		b	.L40
 2141              	.L41:
 2142              		.align	2
 2143              	.L39:
 2144 0fe4 00000000 		.word	x
 2145 0fe8 17B7D1B8 		.word	-1194215657
 2146 0fec 99BB163B 		.word	991345561
 2147 0ff0 6F12033A 		.word	973279855
 2148 0ff4 6F1203BA 		.word	-1174203793
 2149 0ff8 6F12833A 		.word	981668463
 2150 0ffc 3B70CEBB 		.word	-1144098757
 2151 1000 5F294BBB 		.word	-1152702113
 2152 1004 52491D3B 		.word	991775058
 2153 1008 426065BB 		.word	-1150984126
 2154 100c F4FD543C 		.word	1012202996
 2155 1010 38F8423C 		.word	1011021880
 2156 1014 AC8BDBBB 		.word	-1143239764
 2157 1018 E3A51BBD 		.word	-1122261533
 2158 101c 7A36ABBC 		.word	-1129630086
 2159 1020 4C3709BD 		.word	-1123469492
 2160 1024 1B2F5D3C 		.word	1012739867
 2161 1028 F77560BC 		.word	-1134529033
ARM GAS  C:\Users\LASER_2\AppData\Local\Temp\ccBjTwtn.s 			page 43


 2162 102c 40A4DF3C 		.word	1021289536
 2163              	.L40:
 2164 1030 E08C     		ldrh	r0, [r4, #38]
 2165 1032 FFF7FEFF 		bl	__aeabi_i2f
 2166              	.LVL394:
 2167 1036 B849     		ldr	r1, .L42
 2168 1038 FFF7FEFF 		bl	__aeabi_fmul
 2169              	.LVL395:
 2170 103c 0146     		mov	r1, r0
 2171 103e 2846     		mov	r0, r5
 2172 1040 FFF7FEFF 		bl	__aeabi_fadd
 2173              	.LVL396:
 2174 1044 0546     		mov	r5, r0
 2175 1046 208D     		ldrh	r0, [r4, #40]
 2176 1048 FFF7FEFF 		bl	__aeabi_i2f
 2177              	.LVL397:
 2178 104c B349     		ldr	r1, .L42+4
 2179 104e FFF7FEFF 		bl	__aeabi_fmul
 2180              	.LVL398:
 2181 1052 0146     		mov	r1, r0
 2182 1054 2846     		mov	r0, r5
 2183 1056 FFF7FEFF 		bl	__aeabi_fadd
 2184              	.LVL399:
 2185 105a 0546     		mov	r5, r0
 2186 105c 608D     		ldrh	r0, [r4, #42]
 2187 105e FFF7FEFF 		bl	__aeabi_i2f
 2188              	.LVL400:
 2189 1062 AF49     		ldr	r1, .L42+8
 2190 1064 FFF7FEFF 		bl	__aeabi_fmul
 2191              	.LVL401:
 2192 1068 0146     		mov	r1, r0
 2193 106a 2846     		mov	r0, r5
 2194 106c FFF7FEFF 		bl	__aeabi_fadd
 2195              	.LVL402:
 2196 1070 0546     		mov	r5, r0
 2197 1072 A08D     		ldrh	r0, [r4, #44]
 2198 1074 FFF7FEFF 		bl	__aeabi_i2f
 2199              	.LVL403:
 2200 1078 AA49     		ldr	r1, .L42+12
 2201 107a FFF7FEFF 		bl	__aeabi_fmul
 2202              	.LVL404:
 2203 107e 0146     		mov	r1, r0
 2204 1080 2846     		mov	r0, r5
 2205 1082 FFF7FEFF 		bl	__aeabi_fadd
 2206              	.LVL405:
 2207 1086 0546     		mov	r5, r0
 2208 1088 E08D     		ldrh	r0, [r4, #46]
 2209 108a FFF7FEFF 		bl	__aeabi_i2f
 2210              	.LVL406:
 2211 108e A649     		ldr	r1, .L42+16
 2212 1090 FFF7FEFF 		bl	__aeabi_fmul
 2213              	.LVL407:
 2214 1094 0146     		mov	r1, r0
 2215 1096 2846     		mov	r0, r5
 2216 1098 FFF7FEFF 		bl	__aeabi_fadd
 2217              	.LVL408:
 2218 109c 0546     		mov	r5, r0
ARM GAS  C:\Users\LASER_2\AppData\Local\Temp\ccBjTwtn.s 			page 44


 2219 109e 208E     		ldrh	r0, [r4, #48]
 2220 10a0 FFF7FEFF 		bl	__aeabi_i2f
 2221              	.LVL409:
 2222 10a4 A149     		ldr	r1, .L42+20
 2223 10a6 FFF7FEFF 		bl	__aeabi_fmul
 2224              	.LVL410:
 2225 10aa 0146     		mov	r1, r0
 2226 10ac 2846     		mov	r0, r5
 2227 10ae FFF7FEFF 		bl	__aeabi_fadd
 2228              	.LVL411:
 2229 10b2 0546     		mov	r5, r0
 2230 10b4 608E     		ldrh	r0, [r4, #50]
 2231 10b6 FFF7FEFF 		bl	__aeabi_i2f
 2232              	.LVL412:
 2233 10ba 9D49     		ldr	r1, .L42+24
 2234 10bc FFF7FEFF 		bl	__aeabi_fmul
 2235              	.LVL413:
 2236 10c0 0146     		mov	r1, r0
 2237 10c2 2846     		mov	r0, r5
 2238 10c4 FFF7FEFF 		bl	__aeabi_fadd
 2239              	.LVL414:
 2240 10c8 0546     		mov	r5, r0
 2241 10ca A08E     		ldrh	r0, [r4, #52]
 2242 10cc FFF7FEFF 		bl	__aeabi_i2f
 2243              	.LVL415:
 2244 10d0 9649     		ldr	r1, .L42+20
 2245 10d2 FFF7FEFF 		bl	__aeabi_fmul
 2246              	.LVL416:
 2247 10d6 0146     		mov	r1, r0
 2248 10d8 2846     		mov	r0, r5
 2249 10da FFF7FEFF 		bl	__aeabi_fadd
 2250              	.LVL417:
 2251 10de 0546     		mov	r5, r0
 2252 10e0 E08E     		ldrh	r0, [r4, #54]
 2253 10e2 FFF7FEFF 		bl	__aeabi_i2f
 2254              	.LVL418:
 2255 10e6 9049     		ldr	r1, .L42+16
 2256 10e8 FFF7FEFF 		bl	__aeabi_fmul
 2257              	.LVL419:
 2258 10ec 0146     		mov	r1, r0
 2259 10ee 2846     		mov	r0, r5
 2260 10f0 FFF7FEFF 		bl	__aeabi_fadd
 2261              	.LVL420:
 2262 10f4 0546     		mov	r5, r0
 2263 10f6 208F     		ldrh	r0, [r4, #56]
 2264 10f8 FFF7FEFF 		bl	__aeabi_i2f
 2265              	.LVL421:
 2266 10fc 8949     		ldr	r1, .L42+12
 2267 10fe FFF7FEFF 		bl	__aeabi_fmul
 2268              	.LVL422:
 2269 1102 0146     		mov	r1, r0
 2270 1104 2846     		mov	r0, r5
 2271 1106 FFF7FEFF 		bl	__aeabi_fadd
 2272              	.LVL423:
 2273 110a 0546     		mov	r5, r0
 2274 110c 608F     		ldrh	r0, [r4, #58]
 2275 110e FFF7FEFF 		bl	__aeabi_i2f
ARM GAS  C:\Users\LASER_2\AppData\Local\Temp\ccBjTwtn.s 			page 45


 2276              	.LVL424:
 2277 1112 8349     		ldr	r1, .L42+8
 2278 1114 FFF7FEFF 		bl	__aeabi_fmul
 2279              	.LVL425:
 2280 1118 0146     		mov	r1, r0
 2281 111a 2846     		mov	r0, r5
 2282 111c FFF7FEFF 		bl	__aeabi_fadd
 2283              	.LVL426:
 2284 1120 0546     		mov	r5, r0
 2285 1122 A08F     		ldrh	r0, [r4, #60]
 2286 1124 FFF7FEFF 		bl	__aeabi_i2f
 2287              	.LVL427:
 2288 1128 7C49     		ldr	r1, .L42+4
 2289 112a FFF7FEFF 		bl	__aeabi_fmul
 2290              	.LVL428:
 2291 112e 0146     		mov	r1, r0
 2292 1130 2846     		mov	r0, r5
 2293 1132 FFF7FEFF 		bl	__aeabi_fadd
 2294              	.LVL429:
 2295 1136 0546     		mov	r5, r0
 2296 1138 E08F     		ldrh	r0, [r4, #62]
 2297 113a FFF7FEFF 		bl	__aeabi_i2f
 2298              	.LVL430:
 2299 113e 7649     		ldr	r1, .L42
 2300 1140 FFF7FEFF 		bl	__aeabi_fmul
 2301              	.LVL431:
 2302 1144 0146     		mov	r1, r0
 2303 1146 2846     		mov	r0, r5
 2304 1148 FFF7FEFF 		bl	__aeabi_fadd
 2305              	.LVL432:
 2306 114c 0546     		mov	r5, r0
 2307 114e B4F84000 		ldrh	r0, [r4, #64]
 2308 1152 FFF7FEFF 		bl	__aeabi_i2f
 2309              	.LVL433:
 2310 1156 7549     		ldr	r1, .L42+20
 2311 1158 FFF7FEFF 		bl	__aeabi_fmul
 2312              	.LVL434:
 2313 115c 0146     		mov	r1, r0
 2314 115e 2846     		mov	r0, r5
 2315 1160 FFF7FEFF 		bl	__aeabi_fadd
 2316              	.LVL435:
 2317 1164 0546     		mov	r5, r0
 2318 1166 B4F84200 		ldrh	r0, [r4, #66]
 2319 116a FFF7FEFF 		bl	__aeabi_i2f
 2320              	.LVL436:
 2321 116e 7149     		ldr	r1, .L42+28
 2322 1170 FFF7FEFF 		bl	__aeabi_fmul
 2323              	.LVL437:
 2324 1174 0146     		mov	r1, r0
 2325 1176 2846     		mov	r0, r5
 2326 1178 FFF7FEFF 		bl	__aeabi_fadd
 2327              	.LVL438:
 2328 117c 0546     		mov	r5, r0
 2329 117e B4F84400 		ldrh	r0, [r4, #68]
 2330 1182 FFF7FEFF 		bl	__aeabi_i2f
 2331              	.LVL439:
 2332 1186 6C49     		ldr	r1, .L42+32
ARM GAS  C:\Users\LASER_2\AppData\Local\Temp\ccBjTwtn.s 			page 46


 2333 1188 FFF7FEFF 		bl	__aeabi_fmul
 2334              	.LVL440:
 2335 118c 0146     		mov	r1, r0
 2336 118e 2846     		mov	r0, r5
 2337 1190 FFF7FEFF 		bl	__aeabi_fadd
 2338              	.LVL441:
 2339 1194 0546     		mov	r5, r0
 2340 1196 B4F84600 		ldrh	r0, [r4, #70]
 2341 119a FFF7FEFF 		bl	__aeabi_i2f
 2342              	.LVL442:
 2343 119e 6749     		ldr	r1, .L42+36
 2344 11a0 FFF7FEFF 		bl	__aeabi_fmul
 2345              	.LVL443:
 2346 11a4 0146     		mov	r1, r0
 2347 11a6 2846     		mov	r0, r5
 2348 11a8 FFF7FEFF 		bl	__aeabi_fadd
 2349              	.LVL444:
 2350 11ac 0546     		mov	r5, r0
 2351 11ae B4F84800 		ldrh	r0, [r4, #72]
 2352 11b2 FFF7FEFF 		bl	__aeabi_i2f
 2353              	.LVL445:
 2354 11b6 6249     		ldr	r1, .L42+40
 2355 11b8 FFF7FEFF 		bl	__aeabi_fmul
 2356              	.LVL446:
 2357 11bc 0146     		mov	r1, r0
 2358 11be 2846     		mov	r0, r5
 2359 11c0 FFF7FEFF 		bl	__aeabi_fadd
 2360              	.LVL447:
 2361 11c4 0546     		mov	r5, r0
 2362 11c6 B4F84A00 		ldrh	r0, [r4, #74]
 2363 11ca FFF7FEFF 		bl	__aeabi_i2f
 2364              	.LVL448:
 2365 11ce 5D49     		ldr	r1, .L42+44
 2366 11d0 FFF7FEFF 		bl	__aeabi_fmul
 2367              	.LVL449:
 2368 11d4 0146     		mov	r1, r0
 2369 11d6 2846     		mov	r0, r5
 2370 11d8 FFF7FEFF 		bl	__aeabi_fadd
 2371              	.LVL450:
 2372 11dc 0546     		mov	r5, r0
 2373 11de B4F84C00 		ldrh	r0, [r4, #76]
 2374 11e2 FFF7FEFF 		bl	__aeabi_i2f
 2375              	.LVL451:
 2376 11e6 5849     		ldr	r1, .L42+48
 2377 11e8 FFF7FEFF 		bl	__aeabi_fmul
 2378              	.LVL452:
 2379 11ec 0146     		mov	r1, r0
 2380 11ee 2846     		mov	r0, r5
 2381 11f0 FFF7FEFF 		bl	__aeabi_fadd
 2382              	.LVL453:
 2383 11f4 0546     		mov	r5, r0
 2384 11f6 B4F84E00 		ldrh	r0, [r4, #78]
 2385 11fa FFF7FEFF 		bl	__aeabi_i2f
 2386              	.LVL454:
 2387 11fe 5349     		ldr	r1, .L42+52
 2388 1200 FFF7FEFF 		bl	__aeabi_fmul
 2389              	.LVL455:
ARM GAS  C:\Users\LASER_2\AppData\Local\Temp\ccBjTwtn.s 			page 47


 2390 1204 0146     		mov	r1, r0
 2391 1206 2846     		mov	r0, r5
 2392 1208 FFF7FEFF 		bl	__aeabi_fadd
 2393              	.LVL456:
 2394 120c 0546     		mov	r5, r0
 2395 120e B4F85000 		ldrh	r0, [r4, #80]
 2396 1212 FFF7FEFF 		bl	__aeabi_i2f
 2397              	.LVL457:
 2398 1216 4E49     		ldr	r1, .L42+56
 2399 1218 FFF7FEFF 		bl	__aeabi_fmul
 2400              	.LVL458:
 2401 121c 0146     		mov	r1, r0
 2402 121e 2846     		mov	r0, r5
 2403 1220 FFF7FEFF 		bl	__aeabi_fadd
 2404              	.LVL459:
 2405 1224 0546     		mov	r5, r0
 2406 1226 B4F85200 		ldrh	r0, [r4, #82]
 2407 122a FFF7FEFF 		bl	__aeabi_i2f
 2408              	.LVL460:
 2409 122e 4949     		ldr	r1, .L42+60
 2410 1230 FFF7FEFF 		bl	__aeabi_fmul
 2411              	.LVL461:
 2412 1234 0146     		mov	r1, r0
 2413 1236 2846     		mov	r0, r5
 2414 1238 FFF7FEFF 		bl	__aeabi_fadd
 2415              	.LVL462:
 2416 123c 0546     		mov	r5, r0
 2417 123e B4F85400 		ldrh	r0, [r4, #84]
 2418 1242 FFF7FEFF 		bl	__aeabi_i2f
 2419              	.LVL463:
 2420 1246 4449     		ldr	r1, .L42+64
 2421 1248 FFF7FEFF 		bl	__aeabi_fmul
 2422              	.LVL464:
 2423 124c 0146     		mov	r1, r0
 2424 124e 2846     		mov	r0, r5
 2425 1250 FFF7FEFF 		bl	__aeabi_fadd
 2426              	.LVL465:
 2427 1254 0546     		mov	r5, r0
 2428 1256 B4F85600 		ldrh	r0, [r4, #86]
 2429 125a FFF7FEFF 		bl	__aeabi_i2f
 2430              	.LVL466:
 2431 125e 3F49     		ldr	r1, .L42+68
 2432 1260 FFF7FEFF 		bl	__aeabi_fmul
 2433              	.LVL467:
 2434 1264 0146     		mov	r1, r0
 2435 1266 2846     		mov	r0, r5
 2436 1268 FFF7FEFF 		bl	__aeabi_fadd
 2437              	.LVL468:
 2438 126c 0546     		mov	r5, r0
 2439 126e B4F85800 		ldrh	r0, [r4, #88]
 2440 1272 FFF7FEFF 		bl	__aeabi_i2f
 2441              	.LVL469:
 2442 1276 3A49     		ldr	r1, .L42+72
 2443 1278 FFF7FEFF 		bl	__aeabi_fmul
 2444              	.LVL470:
 2445 127c 0146     		mov	r1, r0
 2446 127e 2846     		mov	r0, r5
ARM GAS  C:\Users\LASER_2\AppData\Local\Temp\ccBjTwtn.s 			page 48


 2447 1280 FFF7FEFF 		bl	__aeabi_fadd
 2448              	.LVL471:
 2449 1284 0546     		mov	r5, r0
 2450 1286 B4F85A00 		ldrh	r0, [r4, #90]
 2451 128a FFF7FEFF 		bl	__aeabi_i2f
 2452              	.LVL472:
 2453 128e 3549     		ldr	r1, .L42+76
 2454 1290 FFF7FEFF 		bl	__aeabi_fmul
 2455              	.LVL473:
 2456 1294 0146     		mov	r1, r0
 2457 1296 2846     		mov	r0, r5
 2458 1298 FFF7FEFF 		bl	__aeabi_fadd
 2459              	.LVL474:
 2460 129c 0546     		mov	r5, r0
 2461 129e B4F85C00 		ldrh	r0, [r4, #92]
 2462 12a2 FFF7FEFF 		bl	__aeabi_i2f
 2463              	.LVL475:
 2464 12a6 3049     		ldr	r1, .L42+80
 2465 12a8 FFF7FEFF 		bl	__aeabi_fmul
 2466              	.LVL476:
 2467 12ac 0146     		mov	r1, r0
 2468 12ae 2846     		mov	r0, r5
 2469 12b0 FFF7FEFF 		bl	__aeabi_fadd
 2470              	.LVL477:
 2471 12b4 0546     		mov	r5, r0
 2472 12b6 B4F85E00 		ldrh	r0, [r4, #94]
 2473 12ba FFF7FEFF 		bl	__aeabi_i2f
 2474              	.LVL478:
 2475 12be 2B49     		ldr	r1, .L42+84
 2476 12c0 FFF7FEFF 		bl	__aeabi_fmul
 2477              	.LVL479:
 2478 12c4 0146     		mov	r1, r0
 2479 12c6 2846     		mov	r0, r5
 2480 12c8 FFF7FEFF 		bl	__aeabi_fadd
 2481              	.LVL480:
 2482 12cc 0546     		mov	r5, r0
 2483 12ce B4F86000 		ldrh	r0, [r4, #96]
 2484 12d2 FFF7FEFF 		bl	__aeabi_i2f
 2485              	.LVL481:
 2486 12d6 2649     		ldr	r1, .L42+88
 2487 12d8 FFF7FEFF 		bl	__aeabi_fmul
 2488              	.LVL482:
 2489 12dc 0146     		mov	r1, r0
 2490 12de 2846     		mov	r0, r5
 2491 12e0 FFF7FEFF 		bl	__aeabi_fadd
 2492              	.LVL483:
 2493 12e4 0546     		mov	r5, r0
 2494 12e6 B4F86200 		ldrh	r0, [r4, #98]
 2495 12ea FFF7FEFF 		bl	__aeabi_i2f
 2496              	.LVL484:
 2497 12ee 2149     		ldr	r1, .L42+92
 2498 12f0 FFF7FEFF 		bl	__aeabi_fmul
 2499              	.LVL485:
 2500 12f4 0146     		mov	r1, r0
 2501 12f6 2846     		mov	r0, r5
 2502 12f8 FFF7FEFF 		bl	__aeabi_fadd
 2503              	.LVL486:
ARM GAS  C:\Users\LASER_2\AppData\Local\Temp\ccBjTwtn.s 			page 49


 2504 12fc 0446     		mov	r4, r0
 2505 12fe 1E4B     		ldr	r3, .L42+96
 2506 1300 B3F86400 		ldrh	r0, [r3, #100]
 2507 1304 FFF7FEFF 		bl	__aeabi_i2f
 2508              	.LVL487:
 2509 1308 0021     		movs	r1, #0
 2510 130a FFF7FEFF 		bl	__aeabi_fmul
 2511              	.LVL488:
 2512 130e 0146     		mov	r1, r0
 2513 1310 2046     		mov	r0, r4
 2514 1312 FFF7FEFF 		bl	__aeabi_fadd
 2515              	.LVL489:
 2516 1316 31E0     		b	.L43
 2517              	.L44:
 2518              		.align	2
 2519              	.L42:
 2520 1318 7B14AE3D 		.word	1034818683
 2521 131c E8D9ACBC 		.word	-1129522712
 2522 1320 E2E9953C 		.word	1016457698
 2523 1324 6A4DF3BC 		.word	-1124905622
 2524 1328 9B559FBE 		.word	-1096854117
 2525 132c 40A4DF3C 		.word	1021289536
 2526 1330 6B2BF63E 		.word	1056320363
 2527 1334 F77560BC 		.word	-1134529033
 2528 1338 1B2F5D3C 		.word	1012739867
 2529 133c 4C3709BD 		.word	-1123469492
 2530 1340 7A36ABBC 		.word	-1129630086
 2531 1344 DDB5043C 		.word	1006941661
 2532 1348 AC8BDBBB 		.word	-1143239764
 2533 134c 38F8423C 		.word	1011021880
 2534 1350 F4FD543C 		.word	1012202996
 2535 1354 426065BB 		.word	-1150984126
 2536 1358 52491D3B 		.word	991775058
 2537 135c 5F294BBB 		.word	-1152702113
 2538 1360 3B70CEBB 		.word	-1144098757
 2539 1364 6F12833A 		.word	981668463
 2540 1368 6F1203BA 		.word	-1174203793
 2541 136c 6F12033A 		.word	973279855
 2542 1370 C3642A3B 		.word	992634051
 2543 1374 17B7D1B8 		.word	-1194215657
 2544 1378 00000000 		.word	x
 2545              	.L43:
 2546 137c FFF7FEFF 		bl	__aeabi_f2uiz
 2547              	.LVL490:
 2548 1380 C4B2     		uxtb	r4, r0
 2549              	.LVL491:
 2550              	.L15:
 234:main.c        ****     
 235:main.c        **** }
 236:main.c        **** if(y<128){
 2551              		.loc 1 236 0
 2552 1382 14F0800F 		tst	r4, #128
 2553 1386 05D1     		bne	.L18
 237:main.c        **** PWM_1_WriteCompare(128-y);
 2554              		.loc 1 237 0
 2555 1388 C4F18000 		rsb	r0, r4, #128
 2556 138c C0B2     		uxtb	r0, r0
ARM GAS  C:\Users\LASER_2\AppData\Local\Temp\ccBjTwtn.s 			page 50


 2557 138e FFF7FEFF 		bl	PWM_1_WriteCompare
 2558              	.LVL492:
 2559 1392 03E0     		b	.L19
 2560              	.L18:
 238:main.c        **** 
 239:main.c        **** }else{
 240:main.c        **** PWM_1_WriteCompare(y-128);
 2561              		.loc 1 240 0
 2562 1394 84F08000 		eor	r0, r4, #128
 2563 1398 FFF7FEFF 		bl	PWM_1_WriteCompare
 2564              	.LVL493:
 2565              	.L19:
 241:main.c        **** }
 242:main.c        **** 
 243:main.c        **** 
 244:main.c        **** 
 245:main.c        **** 
 246:main.c        **** 
 247:main.c        **** DAC_SetValue(y+108);
 2566              		.loc 1 247 0
 2567 139c 04F16C00 		add	r0, r4, #108
 2568 13a0 C0B2     		uxtb	r0, r0
 2569 13a2 FFF7FEFF 		bl	DAC_SetValue
 2570              	.LVL494:
 2571 13a6 38BD     		pop	{r3, r4, r5, pc}
 2572              		.cfi_endproc
 2573              	.LFE64:
 2574              		.size	llegaMuestra, .-llegaMuestra
 2575              		.section	.text.main,"ax",%progbits
 2576              		.align	2
 2577              		.global	main
 2578              		.thumb
 2579              		.thumb_func
 2580              		.type	main, %function
 2581              	main:
 2582              	.LFB65:
 248:main.c        **** 
 249:main.c        **** 
 250:main.c        **** }
 251:main.c        **** 
 252:main.c        **** int main(void)
 253:main.c        **** {
 2583              		.loc 1 253 0
 2584              		.cfi_startproc
 2585              		@ Volatile: function does not return.
 2586              		@ args = 0, pretend = 0, frame = 0
 2587              		@ frame_needed = 0, uses_anonymous_args = 0
 2588 0000 08B5     		push	{r3, lr}
 2589              		.cfi_def_cfa_offset 8
 2590              		.cfi_offset 3, -8
 2591              		.cfi_offset 14, -4
 254:main.c        ****     CyGlobalIntEnable; /* Enable wlobal interrupts. */    
 2592              		.loc 1 254 0
 2593              		.syntax unified
 2594              	@ 254 "main.c" 1
 2595 0002 62B6     		CPSIE   i
 2596              	@ 0 "" 2
ARM GAS  C:\Users\LASER_2\AppData\Local\Temp\ccBjTwtn.s 			page 51


 255:main.c        ****     /* Place your initialization/startup code here (e.w. MyInst_Start()) */
 256:main.c        ****     //Inicializamos los componentes
 257:main.c        ****     LCD_Start();
 2597              		.loc 1 257 0
 2598              		.thumb
 2599              		.syntax unified
 2600 0004 FFF7FEFF 		bl	LCD_Start
 2601              	.LVL495:
 258:main.c        ****     ADC_Start();
 2602              		.loc 1 258 0
 2603 0008 FFF7FEFF 		bl	ADC_Start
 2604              	.LVL496:
 259:main.c        ****     DAC_Start();
 2605              		.loc 1 259 0
 2606 000c FFF7FEFF 		bl	DAC_Start
 2607              	.LVL497:
 260:main.c        ****     Timer_Start();
 2608              		.loc 1 260 0
 2609 0010 FFF7FEFF 		bl	Timer_Start
 2610              	.LVL498:
 261:main.c        ****     ISR_StartEx(llegaMuestra);
 2611              		.loc 1 261 0
 2612 0014 0B48     		ldr	r0, .L48
 2613 0016 FFF7FEFF 		bl	ISR_StartEx
 2614              	.LVL499:
 262:main.c        ****     LEDS_Write(1);
 2615              		.loc 1 262 0
 2616 001a 0120     		movs	r0, #1
 2617 001c FFF7FEFF 		bl	LEDS_Write
 2618              	.LVL500:
 263:main.c        ****     PWM_1_Start();
 2619              		.loc 1 263 0
 2620 0020 FFF7FEFF 		bl	PWM_1_Start
 2621              	.LVL501:
 264:main.c        ****     ISR_1_StartEx(INT_SW);
 2622              		.loc 1 264 0
 2623 0024 0848     		ldr	r0, .L48+4
 2624 0026 FFF7FEFF 		bl	ISR_1_StartEx
 2625              	.LVL502:
 265:main.c        ****     VD_Start();
 2626              		.loc 1 265 0
 2627 002a FFF7FEFF 		bl	VD_Start
 2628              	.LVL503:
 266:main.c        ****     VD_SetValue(154);
 2629              		.loc 1 266 0
 2630 002e 9A20     		movs	r0, #154
 2631 0030 FFF7FEFF 		bl	VD_SetValue
 2632              	.LVL504:
 267:main.c        ****     //Fin inicialización variables
 268:main.c        ****     LCD_Position(0,0);
 2633              		.loc 1 268 0
 2634 0034 0021     		movs	r1, #0
 2635 0036 0846     		mov	r0, r1
 2636 0038 FFF7FEFF 		bl	LCD_Position
 2637              	.LVL505:
 269:main.c        ****     LCD_PrintString("Muestreo");
 2638              		.loc 1 269 0
ARM GAS  C:\Users\LASER_2\AppData\Local\Temp\ccBjTwtn.s 			page 52


 2639 003c 0348     		ldr	r0, .L48+8
 2640 003e FFF7FEFF 		bl	LCD_PrintString
 2641              	.LVL506:
 2642              	.L46:
 2643 0042 FEE7     		b	.L46
 2644              	.L49:
 2645              		.align	2
 2646              	.L48:
 2647 0044 00000000 		.word	llegaMuestra
 2648 0048 00000000 		.word	INT_SW
 2649 004c 00000000 		.word	.LC0
 2650              		.cfi_endproc
 2651              	.LFE65:
 2652              		.size	main, .-main
 2653              		.comm	x,102,4
 2654              		.global	cont
 2655              		.global	w
 2656              		.global	g
 2657              		.global	h
 2658              		.section	.rodata
 2659              		.align	2
 2660              		.type	w, %object
 2661              		.size	w, 204
 2662              	w:
 2663 0000 00000000 		.word	0
 2664 0004 17B7D1B8 		.word	-1194215657
 2665 0008 C3642A3B 		.word	992634051
 2666 000c 6F12033A 		.word	973279855
 2667 0010 6F1203BA 		.word	-1174203793
 2668 0014 6F12833A 		.word	981668463
 2669 0018 3B70CEBB 		.word	-1144098757
 2670 001c 5F294BBB 		.word	-1152702113
 2671 0020 52491D3B 		.word	991775058
 2672 0024 426065BB 		.word	-1150984126
 2673 0028 F4FD543C 		.word	1012202996
 2674 002c 38F8423C 		.word	1011021880
 2675 0030 AC8BDBBB 		.word	-1143239764
 2676 0034 DDB5043C 		.word	1006941661
 2677 0038 7A36ABBC 		.word	-1129630086
 2678 003c 4C3709BD 		.word	-1123469492
 2679 0040 1B2F5D3C 		.word	1012739867
 2680 0044 F77560BC 		.word	-1134529033
 2681 0048 40A4DF3C 		.word	1021289536
 2682 004c 7B14AE3D 		.word	1034818683
 2683 0050 E8D9ACBC 		.word	-1129522712
 2684 0054 E2E9953C 		.word	1016457698
 2685 0058 6A4DF3BC 		.word	-1124905622
 2686 005c 9B559FBE 		.word	-1096854117
 2687 0060 40A4DF3C 		.word	1021289536
 2688 0064 6B2BF63E 		.word	1056320363
 2689 0068 40A4DF3C 		.word	1021289536
 2690 006c 9B559FBE 		.word	-1096854117
 2691 0070 6A4DF3BC 		.word	-1124905622
 2692 0074 E2E9953C 		.word	1016457698
 2693 0078 E8D9ACBC 		.word	-1129522712
 2694 007c 7B14AE3D 		.word	1034818683
 2695 0080 40A4DF3C 		.word	1021289536
ARM GAS  C:\Users\LASER_2\AppData\Local\Temp\ccBjTwtn.s 			page 53


 2696 0084 F77560BC 		.word	-1134529033
 2697 0088 1B2F5D3C 		.word	1012739867
 2698 008c 4C3709BD 		.word	-1123469492
 2699 0090 7A36ABBC 		.word	-1129630086
 2700 0094 DDB5043C 		.word	1006941661
 2701 0098 AC8BDBBB 		.word	-1143239764
 2702 009c 38F8423C 		.word	1011021880
 2703 00a0 F4FD543C 		.word	1012202996
 2704 00a4 426065BB 		.word	-1150984126
 2705 00a8 52491D3B 		.word	991775058
 2706 00ac 5F294BBB 		.word	-1152702113
 2707 00b0 3B70CEBB 		.word	-1144098757
 2708 00b4 6F12833A 		.word	981668463
 2709 00b8 6F1203BA 		.word	-1174203793
 2710 00bc 6F12033A 		.word	973279855
 2711 00c0 C3642A3B 		.word	992634051
 2712 00c4 17B7D1B8 		.word	-1194215657
 2713 00c8 00000000 		.word	0
 2714              		.type	g, %object
 2715              		.size	g, 204
 2716              	g:
 2717 00cc 6F1283BA 		.word	-1165815185
 2718 00d0 89D2DEBA 		.word	-1159802231
 2719 00d4 27A009BB 		.word	-1156997081
 2720 00d8 FAEDEBBA 		.word	-1158943238
 2721 00dc 17B7D1B9 		.word	-1177438441
 2722 00e0 E02D103B 		.word	990916064
 2723 00e4 C364AA3B 		.word	1001022659
 2724 00e8 4260E53B 		.word	1004888130
 2725 00ec 17B7D13B 		.word	1003599639
 2726 00f0 4260653B 		.word	996499522
 2727 00f4 52499D39 		.word	966609234
 2728 00f8 17B751B9 		.word	-1185827049
 2729 00fc 27A0893B 		.word	998875175
 2730 0100 CDCC4C3C 		.word	1011666125
 2731 0104 2E90A03C 		.word	1017155630
 2732 0108 05A3923C 		.word	1016242949
 2733 010c FAEDEB3A 		.word	988540410
 2734 0110 8C4AEABC 		.word	-1125496180
 2735 0114 931884BD 		.word	-1115416429
 2736 0118 ECC0B9BD 		.word	-1111899924
 2737 011c ED9EBCBD 		.word	-1111712019
 2738 0120 90A078BD 		.word	-1116168048
 2739 0124 17B7D1BA 		.word	-1160661225
 2740 0128 DE718A3D 		.word	1032483294
 2741 012c FFB2FB3D 		.word	1039905535
 2742 0130 BC74133E 		.word	1041462460
 2743 0134 FFB2FB3D 		.word	1039905535
 2744 0138 DE718A3D 		.word	1032483294
 2745 013c 17B7D1BA 		.word	-1160661225
 2746 0140 90A078BD 		.word	-1116168048
 2747 0144 ED9EBCBD 		.word	-1111712019
 2748 0148 ECC0B9BD 		.word	-1111899924
 2749 014c 931884BD 		.word	-1115416429
 2750 0150 8C4AEABC 		.word	-1125496180
 2751 0154 FAEDEB3A 		.word	988540410
 2752 0158 05A3923C 		.word	1016242949
ARM GAS  C:\Users\LASER_2\AppData\Local\Temp\ccBjTwtn.s 			page 54


 2753 015c 2E90A03C 		.word	1017155630
 2754 0160 CDCC4C3C 		.word	1011666125
 2755 0164 27A0893B 		.word	998875175
 2756 0168 17B751B9 		.word	-1185827049
 2757 016c 52499D39 		.word	966609234
 2758 0170 4260653B 		.word	996499522
 2759 0174 17B7D13B 		.word	1003599639
 2760 0178 4260E53B 		.word	1004888130
 2761 017c C364AA3B 		.word	1001022659
 2762 0180 E02D103B 		.word	990916064
 2763 0184 17B7D1B9 		.word	-1177438441
 2764 0188 FAEDEBBA 		.word	-1158943238
 2765 018c 27A009BB 		.word	-1156997081
 2766 0190 89D2DEBA 		.word	-1159802231
 2767 0194 6F1283BA 		.word	-1165815185
 2768              		.type	h, %object
 2769              		.size	h, 204
 2770              	h:
 2771 0198 17B7D13A 		.word	986822423
 2772 019c 6C09F93A 		.word	989399404
 2773 01a0 99BB163B 		.word	991345561
 2774 01a4 C3642A3B 		.word	992634051
 2775 01a8 C3642A3B 		.word	992634051
 2776 01ac 6F12033B 		.word	990057071
 2777 01b0 52491D3A 		.word	974997842
 2778 01b4 E02D10BB 		.word	-1156567584
 2779 01b8 3B70CEBB 		.word	-1144098757
 2780 01bc CA5441BC 		.word	-1136569142
 2781 01c0 508D97BC 		.word	-1130918576
 2782 01c4 CE88D2BC 		.word	-1127053106
 2783 01c8 948705BD 		.word	-1123711084
 2784 01cc E3A51BBD 		.word	-1122261533
 2785 01d0 C28627BD 		.word	-1121483070
 2786 01d4 9D1125BD 		.word	-1121644131
 2787 01d8 97FF10BD 		.word	-1122959465
 2788 01dc ABCFD5BC 		.word	-1126838357
 2789 01e0 CDCC4CBC 		.word	-1135817523
 2790 01e4 BC74933B 		.word	999519420
 2791 01e8 1283C03C 		.word	1019249426
 2792 01ec 0E4F2F3D 		.word	1026510606
 2793 01f0 FE65773D 		.word	1031235070
 2794 01f4 E3C7983D 		.word	1033422819
 2795 01f8 E86AAB3D 		.word	1034644200
 2796 01fc A1F8B13D 		.word	1035073697
 2797 0200 E86AAB3D 		.word	1034644200
 2798 0204 E3C7983D 		.word	1033422819
 2799 0208 FE65773D 		.word	1031235070
 2800 020c 0E4F2F3D 		.word	1026510606
 2801 0210 1283C03C 		.word	1019249426
 2802 0214 BC74933B 		.word	999519420
 2803 0218 CDCC4CBC 		.word	-1135817523
 2804 021c ABCFD5BC 		.word	-1126838357
 2805 0220 97FF10BD 		.word	-1122959465
 2806 0224 9D1125BD 		.word	-1121644131
 2807 0228 C28627BD 		.word	-1121483070
 2808 022c E3A51BBD 		.word	-1122261533
 2809 0230 948705BD 		.word	-1123711084
ARM GAS  C:\Users\LASER_2\AppData\Local\Temp\ccBjTwtn.s 			page 55


 2810 0234 CE88D2BC 		.word	-1127053106
 2811 0238 508D97BC 		.word	-1130918576
 2812 023c CA5441BC 		.word	-1136569142
 2813 0240 3B70CEBB 		.word	-1144098757
 2814 0244 E02D10BB 		.word	-1156567584
 2815 0248 52491D3A 		.word	974997842
 2816 024c 6F12033B 		.word	990057071
 2817 0250 C3642A3B 		.word	992634051
 2818 0254 C3642A3B 		.word	992634051
 2819 0258 99BB163B 		.word	991345561
 2820 025c 6C09F93A 		.word	989399404
 2821 0260 17B7D13A 		.word	986822423
 2822              		.section	.rodata.str1.4,"aMS",%progbits,1
 2823              		.align	2
 2824              	.LC0:
 2825 0000 4D756573 		.ascii	"Muestreo\000"
 2825      7472656F 
 2825      00
 2826 0009 000000   		.space	3
 2827              	.LC1:
 2828 000c 416C6661 		.ascii	"Alfa\000"
 2828      00
 2829 0011 000000   		.space	3
 2830              	.LC2:
 2831 0014 42657461 		.ascii	"Beta\000"
 2831      00
 2832 0019 000000   		.space	3
 2833              	.LC3:
 2834 001c 47616D6D 		.ascii	"Gamma\000"
 2834      6100
 2835              		.bss
 2836              		.set	.LANCHOR0,. + 0
 2837              		.type	cont, %object
 2838              		.size	cont, 1
 2839              	cont:
 2840 0000 00       		.space	1
 2841              		.text
 2842              	.Letext0:
 2843              		.file 2 "c:\\program files (x86)\\cypress\\psoc creator\\4.2\\psoc creator\\import\\gnu\\arm\\5.4.
 2844              		.file 3 "c:\\program files (x86)\\cypress\\psoc creator\\4.2\\psoc creator\\import\\gnu\\arm\\5.4.
 2845              		.file 4 "Generated_Source\\PSoC5/cytypes.h"
 2846              		.file 5 "Generated_Source\\PSoC5/core_cm3.h"
 2847              		.file 6 "Generated_Source\\PSoC5/LEDS.h"
 2848              		.file 7 "Generated_Source\\PSoC5/LCD.h"
 2849              		.file 8 "Generated_Source\\PSoC5/SW.h"
 2850              		.file 9 "Generated_Source\\PSoC5/ADC.h"
 2851              		.file 10 "Generated_Source\\PSoC5/PWM_1.h"
 2852              		.file 11 "Generated_Source\\PSoC5/DAC.h"
 2853              		.file 12 "Generated_Source\\PSoC5/Timer.h"
 2854              		.file 13 "Generated_Source\\PSoC5/ISR.h"
 2855              		.file 14 "Generated_Source\\PSoC5/ISR_1.h"
 2856              		.file 15 "Generated_Source\\PSoC5/VD.h"
 2857              		.section	.debug_info,"",%progbits
 2858              	.Ldebug_info0:
 2859 0000 BF040000 		.4byte	0x4bf
 2860 0004 0400     		.2byte	0x4
 2861 0006 00000000 		.4byte	.Ldebug_abbrev0
ARM GAS  C:\Users\LASER_2\AppData\Local\Temp\ccBjTwtn.s 			page 56


 2862 000a 04       		.byte	0x4
 2863 000b 01       		.uleb128 0x1
 2864 000c 76000000 		.4byte	.LASF41
 2865 0010 0C       		.byte	0xc
 2866 0011 1A020000 		.4byte	.LASF42
 2867 0015 41020000 		.4byte	.LASF43
 2868 0019 00000000 		.4byte	.Ldebug_ranges0+0
 2869 001d 00000000 		.4byte	0
 2870 0021 00000000 		.4byte	.Ldebug_line0
 2871 0025 02       		.uleb128 0x2
 2872 0026 01       		.byte	0x1
 2873 0027 06       		.byte	0x6
 2874 0028 CE020000 		.4byte	.LASF0
 2875 002c 02       		.uleb128 0x2
 2876 002d 01       		.byte	0x1
 2877 002e 08       		.byte	0x8
 2878 002f 68000000 		.4byte	.LASF1
 2879 0033 02       		.uleb128 0x2
 2880 0034 02       		.byte	0x2
 2881 0035 05       		.byte	0x5
 2882 0036 37020000 		.4byte	.LASF2
 2883 003a 02       		.uleb128 0x2
 2884 003b 02       		.byte	0x2
 2885 003c 07       		.byte	0x7
 2886 003d 1C000000 		.4byte	.LASF3
 2887 0041 03       		.uleb128 0x3
 2888 0042 12000000 		.4byte	.LASF9
 2889 0046 02       		.byte	0x2
 2890 0047 3F       		.byte	0x3f
 2891 0048 4C000000 		.4byte	0x4c
 2892 004c 02       		.uleb128 0x2
 2893 004d 04       		.byte	0x4
 2894 004e 05       		.byte	0x5
 2895 004f AB020000 		.4byte	.LASF4
 2896 0053 02       		.uleb128 0x2
 2897 0054 04       		.byte	0x4
 2898 0055 07       		.byte	0x7
 2899 0056 5B010000 		.4byte	.LASF5
 2900 005a 02       		.uleb128 0x2
 2901 005b 08       		.byte	0x8
 2902 005c 05       		.byte	0x5
 2903 005d 0C020000 		.4byte	.LASF6
 2904 0061 02       		.uleb128 0x2
 2905 0062 08       		.byte	0x8
 2906 0063 07       		.byte	0x7
 2907 0064 B6010000 		.4byte	.LASF7
 2908 0068 04       		.uleb128 0x4
 2909 0069 04       		.byte	0x4
 2910 006a 05       		.byte	0x5
 2911 006b 696E7400 		.ascii	"int\000"
 2912 006f 02       		.uleb128 0x2
 2913 0070 04       		.byte	0x4
 2914 0071 07       		.byte	0x7
 2915 0072 A9010000 		.4byte	.LASF8
 2916 0076 03       		.uleb128 0x3
 2917 0077 43000000 		.4byte	.LASF10
 2918 007b 03       		.byte	0x3
ARM GAS  C:\Users\LASER_2\AppData\Local\Temp\ccBjTwtn.s 			page 57


 2919 007c 2C       		.byte	0x2c
 2920 007d 41000000 		.4byte	0x41
 2921 0081 05       		.uleb128 0x5
 2922 0082 84010000 		.4byte	.LASF11
 2923 0086 04       		.byte	0x4
 2924 0087 E501     		.2byte	0x1e5
 2925 0089 3A000000 		.4byte	0x3a
 2926 008d 02       		.uleb128 0x2
 2927 008e 04       		.byte	0x4
 2928 008f 04       		.byte	0x4
 2929 0090 4B000000 		.4byte	.LASF12
 2930 0094 02       		.uleb128 0x2
 2931 0095 08       		.byte	0x8
 2932 0096 04       		.byte	0x4
 2933 0097 3C000000 		.4byte	.LASF13
 2934 009b 02       		.uleb128 0x2
 2935 009c 01       		.byte	0x1
 2936 009d 08       		.byte	0x8
 2937 009e 21020000 		.4byte	.LASF14
 2938 00a2 02       		.uleb128 0x2
 2939 00a3 08       		.byte	0x8
 2940 00a4 04       		.byte	0x4
 2941 00a5 E4010000 		.4byte	.LASF15
 2942 00a9 02       		.uleb128 0x2
 2943 00aa 04       		.byte	0x4
 2944 00ab 07       		.byte	0x7
 2945 00ac F0010000 		.4byte	.LASF16
 2946 00b0 06       		.uleb128 0x6
 2947 00b1 6D010000 		.4byte	.LASF17
 2948 00b5 01       		.byte	0x1
 2949 00b6 1B       		.byte	0x1b
 2950 00b7 00000000 		.4byte	.LFB63
 2951 00bb 8C000000 		.4byte	.LFE63-.LFB63
 2952 00bf 01       		.uleb128 0x1
 2953 00c0 9C       		.byte	0x9c
 2954 00c1 89010000 		.4byte	0x189
 2955 00c5 07       		.uleb128 0x7
 2956 00c6 06000000 		.4byte	.LVL0
 2957 00ca E6030000 		.4byte	0x3e6
 2958 00ce 07       		.uleb128 0x7
 2959 00cf 0E000000 		.4byte	.LVL1
 2960 00d3 F1030000 		.4byte	0x3f1
 2961 00d7 08       		.uleb128 0x8
 2962 00d8 42000000 		.4byte	.LVL2
 2963 00dc FC030000 		.4byte	0x3fc
 2964 00e0 EA000000 		.4byte	0xea
 2965 00e4 09       		.uleb128 0x9
 2966 00e5 01       		.uleb128 0x1
 2967 00e6 50       		.byte	0x50
 2968 00e7 01       		.uleb128 0x1
 2969 00e8 31       		.byte	0x31
 2970 00e9 00       		.byte	0
 2971 00ea 08       		.uleb128 0x8
 2972 00eb 48000000 		.4byte	.LVL3
 2973 00ef 07040000 		.4byte	0x407
 2974 00f3 01010000 		.4byte	0x101
 2975 00f7 09       		.uleb128 0x9
ARM GAS  C:\Users\LASER_2\AppData\Local\Temp\ccBjTwtn.s 			page 58


 2976 00f8 01       		.uleb128 0x1
 2977 00f9 50       		.byte	0x50
 2978 00fa 05       		.uleb128 0x5
 2979 00fb 03       		.byte	0x3
 2980 00fc 00000000 		.4byte	.LC0
 2981 0100 00       		.byte	0
 2982 0101 08       		.uleb128 0x8
 2983 0102 50000000 		.4byte	.LVL4
 2984 0106 FC030000 		.4byte	0x3fc
 2985 010a 14010000 		.4byte	0x114
 2986 010e 09       		.uleb128 0x9
 2987 010f 01       		.uleb128 0x1
 2988 0110 50       		.byte	0x50
 2989 0111 01       		.uleb128 0x1
 2990 0112 31       		.byte	0x31
 2991 0113 00       		.byte	0
 2992 0114 08       		.uleb128 0x8
 2993 0115 56000000 		.4byte	.LVL5
 2994 0119 07040000 		.4byte	0x407
 2995 011d 2B010000 		.4byte	0x12b
 2996 0121 09       		.uleb128 0x9
 2997 0122 01       		.uleb128 0x1
 2998 0123 50       		.byte	0x50
 2999 0124 05       		.uleb128 0x5
 3000 0125 03       		.byte	0x3
 3001 0126 0C000000 		.4byte	.LC1
 3002 012a 00       		.byte	0
 3003 012b 08       		.uleb128 0x8
 3004 012c 5E000000 		.4byte	.LVL6
 3005 0130 FC030000 		.4byte	0x3fc
 3006 0134 3E010000 		.4byte	0x13e
 3007 0138 09       		.uleb128 0x9
 3008 0139 01       		.uleb128 0x1
 3009 013a 50       		.byte	0x50
 3010 013b 01       		.uleb128 0x1
 3011 013c 31       		.byte	0x31
 3012 013d 00       		.byte	0
 3013 013e 08       		.uleb128 0x8
 3014 013f 64000000 		.4byte	.LVL7
 3015 0143 07040000 		.4byte	0x407
 3016 0147 55010000 		.4byte	0x155
 3017 014b 09       		.uleb128 0x9
 3018 014c 01       		.uleb128 0x1
 3019 014d 50       		.byte	0x50
 3020 014e 05       		.uleb128 0x5
 3021 014f 03       		.byte	0x3
 3022 0150 14000000 		.4byte	.LC2
 3023 0154 00       		.byte	0
 3024 0155 08       		.uleb128 0x8
 3025 0156 6C000000 		.4byte	.LVL8
 3026 015a FC030000 		.4byte	0x3fc
 3027 015e 68010000 		.4byte	0x168
 3028 0162 09       		.uleb128 0x9
 3029 0163 01       		.uleb128 0x1
 3030 0164 50       		.byte	0x50
 3031 0165 01       		.uleb128 0x1
 3032 0166 31       		.byte	0x31
ARM GAS  C:\Users\LASER_2\AppData\Local\Temp\ccBjTwtn.s 			page 59


 3033 0167 00       		.byte	0
 3034 0168 08       		.uleb128 0x8
 3035 0169 72000000 		.4byte	.LVL9
 3036 016d 07040000 		.4byte	0x407
 3037 0171 7F010000 		.4byte	0x17f
 3038 0175 09       		.uleb128 0x9
 3039 0176 01       		.uleb128 0x1
 3040 0177 50       		.byte	0x50
 3041 0178 05       		.uleb128 0x5
 3042 0179 03       		.byte	0x3
 3043 017a 1C000000 		.4byte	.LC3
 3044 017e 00       		.byte	0
 3045 017f 07       		.uleb128 0x7
 3046 0180 76000000 		.4byte	.LVL10
 3047 0184 12040000 		.4byte	0x412
 3048 0188 00       		.byte	0
 3049 0189 0A       		.uleb128 0xa
 3050 018a 5B000000 		.4byte	.LASF18
 3051 018e 01       		.byte	0x1
 3052 018f 3F       		.byte	0x3f
 3053 0190 00000000 		.4byte	.LFB64
 3054 0194 A8130000 		.4byte	.LFE64-.LFB64
 3055 0198 01       		.uleb128 0x1
 3056 0199 9C       		.byte	0x9c
 3057 019a 7F020000 		.4byte	0x27f
 3058 019e 0B       		.uleb128 0xb
 3059 019f 7900     		.ascii	"y\000"
 3060 01a1 01       		.byte	0x1
 3061 01a2 40       		.byte	0x40
 3062 01a3 2C000000 		.4byte	0x2c
 3063 01a7 00000000 		.4byte	.LLST0
 3064 01ab 07       		.uleb128 0x7
 3065 01ac 10000000 		.4byte	.LVL12
 3066 01b0 1D040000 		.4byte	0x41d
 3067 01b4 08       		.uleb128 0x8
 3068 01b5 16000000 		.4byte	.LVL13
 3069 01b9 28040000 		.4byte	0x428
 3070 01bd C7010000 		.4byte	0x1c7
 3071 01c1 09       		.uleb128 0x9
 3072 01c2 01       		.uleb128 0x1
 3073 01c3 50       		.byte	0x50
 3074 01c4 01       		.uleb128 0x1
 3075 01c5 30       		.byte	0x30
 3076 01c6 00       		.byte	0
 3077 01c7 07       		.uleb128 0x7
 3078 01c8 1A000000 		.4byte	.LVL14
 3079 01cc 33040000 		.4byte	0x433
 3080 01d0 07       		.uleb128 0x7
 3081 01d1 48010000 		.4byte	.LVL17
 3082 01d5 1D040000 		.4byte	0x41d
 3083 01d9 08       		.uleb128 0x8
 3084 01da 4E010000 		.4byte	.LVL18
 3085 01de 28040000 		.4byte	0x428
 3086 01e2 EC010000 		.4byte	0x1ec
 3087 01e6 09       		.uleb128 0x9
 3088 01e7 01       		.uleb128 0x1
 3089 01e8 50       		.byte	0x50
ARM GAS  C:\Users\LASER_2\AppData\Local\Temp\ccBjTwtn.s 			page 60


 3090 01e9 01       		.uleb128 0x1
 3091 01ea 30       		.byte	0x30
 3092 01eb 00       		.byte	0
 3093 01ec 07       		.uleb128 0x7
 3094 01ed 52010000 		.4byte	.LVL19
 3095 01f1 33040000 		.4byte	0x433
 3096 01f5 07       		.uleb128 0x7
 3097 01f6 C4070000 		.4byte	.LVL176
 3098 01fa 1D040000 		.4byte	0x41d
 3099 01fe 08       		.uleb128 0x8
 3100 01ff CA070000 		.4byte	.LVL177
 3101 0203 28040000 		.4byte	0x428
 3102 0207 11020000 		.4byte	0x211
 3103 020b 09       		.uleb128 0x9
 3104 020c 01       		.uleb128 0x1
 3105 020d 50       		.byte	0x50
 3106 020e 01       		.uleb128 0x1
 3107 020f 30       		.byte	0x30
 3108 0210 00       		.byte	0
 3109 0211 07       		.uleb128 0x7
 3110 0212 CE070000 		.4byte	.LVL178
 3111 0216 33040000 		.4byte	0x433
 3112 021a 07       		.uleb128 0x7
 3113 021b 3C0E0000 		.4byte	.LVL335
 3114 021f 1D040000 		.4byte	0x41d
 3115 0223 08       		.uleb128 0x8
 3116 0224 420E0000 		.4byte	.LVL336
 3117 0228 28040000 		.4byte	0x428
 3118 022c 36020000 		.4byte	0x236
 3119 0230 09       		.uleb128 0x9
 3120 0231 01       		.uleb128 0x1
 3121 0232 50       		.byte	0x50
 3122 0233 01       		.uleb128 0x1
 3123 0234 30       		.byte	0x30
 3124 0235 00       		.byte	0
 3125 0236 07       		.uleb128 0x7
 3126 0237 460E0000 		.4byte	.LVL337
 3127 023b 33040000 		.4byte	0x433
 3128 023f 08       		.uleb128 0x8
 3129 0240 92130000 		.4byte	.LVL492
 3130 0244 3E040000 		.4byte	0x43e
 3131 0248 56020000 		.4byte	0x256
 3132 024c 09       		.uleb128 0x9
 3133 024d 01       		.uleb128 0x1
 3134 024e 50       		.byte	0x50
 3135 024f 05       		.uleb128 0x5
 3136 0250 08       		.byte	0x8
 3137 0251 80       		.byte	0x80
 3138 0252 74       		.byte	0x74
 3139 0253 00       		.sleb128 0
 3140 0254 1C       		.byte	0x1c
 3141 0255 00       		.byte	0
 3142 0256 08       		.uleb128 0x8
 3143 0257 9C130000 		.4byte	.LVL493
 3144 025b 3E040000 		.4byte	0x43e
 3145 025f 6D020000 		.4byte	0x26d
 3146 0263 09       		.uleb128 0x9
ARM GAS  C:\Users\LASER_2\AppData\Local\Temp\ccBjTwtn.s 			page 61


 3147 0264 01       		.uleb128 0x1
 3148 0265 50       		.byte	0x50
 3149 0266 05       		.uleb128 0x5
 3150 0267 74       		.byte	0x74
 3151 0268 00       		.sleb128 0
 3152 0269 08       		.byte	0x8
 3153 026a 80       		.byte	0x80
 3154 026b 27       		.byte	0x27
 3155 026c 00       		.byte	0
 3156 026d 0C       		.uleb128 0xc
 3157 026e A6130000 		.4byte	.LVL494
 3158 0272 49040000 		.4byte	0x449
 3159 0276 09       		.uleb128 0x9
 3160 0277 01       		.uleb128 0x1
 3161 0278 50       		.byte	0x50
 3162 0279 03       		.uleb128 0x3
 3163 027a 74       		.byte	0x74
 3164 027b EC00     		.sleb128 108
 3165 027d 00       		.byte	0
 3166 027e 00       		.byte	0
 3167 027f 0D       		.uleb128 0xd
 3168 0280 98010000 		.4byte	.LASF44
 3169 0284 01       		.byte	0x1
 3170 0285 FC       		.byte	0xfc
 3171 0286 68000000 		.4byte	0x68
 3172 028a 00000000 		.4byte	.LFB65
 3173 028e 50000000 		.4byte	.LFE65-.LFB65
 3174 0292 01       		.uleb128 0x1
 3175 0293 9C       		.byte	0x9c
 3176 0294 4F030000 		.4byte	0x34f
 3177 0298 07       		.uleb128 0x7
 3178 0299 08000000 		.4byte	.LVL495
 3179 029d 54040000 		.4byte	0x454
 3180 02a1 07       		.uleb128 0x7
 3181 02a2 0C000000 		.4byte	.LVL496
 3182 02a6 5F040000 		.4byte	0x45f
 3183 02aa 07       		.uleb128 0x7
 3184 02ab 10000000 		.4byte	.LVL497
 3185 02af 6A040000 		.4byte	0x46a
 3186 02b3 07       		.uleb128 0x7
 3187 02b4 14000000 		.4byte	.LVL498
 3188 02b8 75040000 		.4byte	0x475
 3189 02bc 08       		.uleb128 0x8
 3190 02bd 1A000000 		.4byte	.LVL499
 3191 02c1 80040000 		.4byte	0x480
 3192 02c5 D3020000 		.4byte	0x2d3
 3193 02c9 09       		.uleb128 0x9
 3194 02ca 01       		.uleb128 0x1
 3195 02cb 50       		.byte	0x50
 3196 02cc 05       		.uleb128 0x5
 3197 02cd 03       		.byte	0x3
 3198 02ce 00000000 		.4byte	llegaMuestra
 3199 02d2 00       		.byte	0
 3200 02d3 08       		.uleb128 0x8
 3201 02d4 20000000 		.4byte	.LVL500
 3202 02d8 F1030000 		.4byte	0x3f1
 3203 02dc E6020000 		.4byte	0x2e6
ARM GAS  C:\Users\LASER_2\AppData\Local\Temp\ccBjTwtn.s 			page 62


 3204 02e0 09       		.uleb128 0x9
 3205 02e1 01       		.uleb128 0x1
 3206 02e2 50       		.byte	0x50
 3207 02e3 01       		.uleb128 0x1
 3208 02e4 31       		.byte	0x31
 3209 02e5 00       		.byte	0
 3210 02e6 07       		.uleb128 0x7
 3211 02e7 24000000 		.4byte	.LVL501
 3212 02eb 8B040000 		.4byte	0x48b
 3213 02ef 08       		.uleb128 0x8
 3214 02f0 2A000000 		.4byte	.LVL502
 3215 02f4 96040000 		.4byte	0x496
 3216 02f8 06030000 		.4byte	0x306
 3217 02fc 09       		.uleb128 0x9
 3218 02fd 01       		.uleb128 0x1
 3219 02fe 50       		.byte	0x50
 3220 02ff 05       		.uleb128 0x5
 3221 0300 03       		.byte	0x3
 3222 0301 00000000 		.4byte	INT_SW
 3223 0305 00       		.byte	0
 3224 0306 07       		.uleb128 0x7
 3225 0307 2E000000 		.4byte	.LVL503
 3226 030b A1040000 		.4byte	0x4a1
 3227 030f 08       		.uleb128 0x8
 3228 0310 34000000 		.4byte	.LVL504
 3229 0314 AC040000 		.4byte	0x4ac
 3230 0318 23030000 		.4byte	0x323
 3231 031c 09       		.uleb128 0x9
 3232 031d 01       		.uleb128 0x1
 3233 031e 50       		.byte	0x50
 3234 031f 02       		.uleb128 0x2
 3235 0320 09       		.byte	0x9
 3236 0321 9A       		.byte	0x9a
 3237 0322 00       		.byte	0
 3238 0323 08       		.uleb128 0x8
 3239 0324 3C000000 		.4byte	.LVL505
 3240 0328 B7040000 		.4byte	0x4b7
 3241 032c 3B030000 		.4byte	0x33b
 3242 0330 09       		.uleb128 0x9
 3243 0331 01       		.uleb128 0x1
 3244 0332 50       		.byte	0x50
 3245 0333 01       		.uleb128 0x1
 3246 0334 30       		.byte	0x30
 3247 0335 09       		.uleb128 0x9
 3248 0336 01       		.uleb128 0x1
 3249 0337 51       		.byte	0x51
 3250 0338 01       		.uleb128 0x1
 3251 0339 30       		.byte	0x30
 3252 033a 00       		.byte	0
 3253 033b 0C       		.uleb128 0xc
 3254 033c 42000000 		.4byte	.LVL506
 3255 0340 07040000 		.4byte	0x407
 3256 0344 09       		.uleb128 0x9
 3257 0345 01       		.uleb128 0x1
 3258 0346 50       		.byte	0x50
 3259 0347 05       		.uleb128 0x5
 3260 0348 03       		.byte	0x3
ARM GAS  C:\Users\LASER_2\AppData\Local\Temp\ccBjTwtn.s 			page 63


 3261 0349 00000000 		.4byte	.LC0
 3262 034d 00       		.byte	0
 3263 034e 00       		.byte	0
 3264 034f 0E       		.uleb128 0xe
 3265 0350 8B010000 		.4byte	.LASF19
 3266 0354 05       		.byte	0x5
 3267 0355 1207     		.2byte	0x712
 3268 0357 5B030000 		.4byte	0x35b
 3269 035b 0F       		.uleb128 0xf
 3270 035c 76000000 		.4byte	0x76
 3271 0360 10       		.uleb128 0x10
 3272 0361 70030000 		.4byte	0x370
 3273 0365 70030000 		.4byte	0x370
 3274 0369 11       		.uleb128 0x11
 3275 036a A9000000 		.4byte	0xa9
 3276 036e 32       		.byte	0x32
 3277 036f 00       		.byte	0
 3278 0370 12       		.uleb128 0x12
 3279 0371 8D000000 		.4byte	0x8d
 3280 0375 13       		.uleb128 0x13
 3281 0376 6800     		.ascii	"h\000"
 3282 0378 01       		.byte	0x1
 3283 0379 14       		.byte	0x14
 3284 037a 84030000 		.4byte	0x384
 3285 037e 05       		.uleb128 0x5
 3286 037f 03       		.byte	0x3
 3287 0380 00000000 		.4byte	h
 3288 0384 12       		.uleb128 0x12
 3289 0385 60030000 		.4byte	0x360
 3290 0389 13       		.uleb128 0x13
 3291 038a 6700     		.ascii	"g\000"
 3292 038c 01       		.byte	0x1
 3293 038d 15       		.byte	0x15
 3294 038e 98030000 		.4byte	0x398
 3295 0392 05       		.uleb128 0x5
 3296 0393 03       		.byte	0x3
 3297 0394 00000000 		.4byte	g
 3298 0398 12       		.uleb128 0x12
 3299 0399 60030000 		.4byte	0x360
 3300 039d 13       		.uleb128 0x13
 3301 039e 7700     		.ascii	"w\000"
 3302 03a0 01       		.byte	0x1
 3303 03a1 16       		.byte	0x16
 3304 03a2 AC030000 		.4byte	0x3ac
 3305 03a6 05       		.uleb128 0x5
 3306 03a7 03       		.byte	0x3
 3307 03a8 00000000 		.4byte	w
 3308 03ac 12       		.uleb128 0x12
 3309 03ad 60030000 		.4byte	0x360
 3310 03b1 14       		.uleb128 0x14
 3311 03b2 BD020000 		.4byte	.LASF20
 3312 03b6 01       		.byte	0x1
 3313 03b7 17       		.byte	0x17
 3314 03b8 C2030000 		.4byte	0x3c2
 3315 03bc 05       		.uleb128 0x5
 3316 03bd 03       		.byte	0x3
 3317 03be 00000000 		.4byte	cont
ARM GAS  C:\Users\LASER_2\AppData\Local\Temp\ccBjTwtn.s 			page 64


 3318 03c2 0F       		.uleb128 0xf
 3319 03c3 2C000000 		.4byte	0x2c
 3320 03c7 10       		.uleb128 0x10
 3321 03c8 81000000 		.4byte	0x81
 3322 03cc D7030000 		.4byte	0x3d7
 3323 03d0 11       		.uleb128 0x11
 3324 03d1 A9000000 		.4byte	0xa9
 3325 03d5 32       		.byte	0x32
 3326 03d6 00       		.byte	0
 3327 03d7 13       		.uleb128 0x13
 3328 03d8 7800     		.ascii	"x\000"
 3329 03da 01       		.byte	0x1
 3330 03db 18       		.byte	0x18
 3331 03dc C7030000 		.4byte	0x3c7
 3332 03e0 05       		.uleb128 0x5
 3333 03e1 03       		.byte	0x3
 3334 03e2 00000000 		.4byte	x
 3335 03e6 15       		.uleb128 0x15
 3336 03e7 93020000 		.4byte	.LASF21
 3337 03eb 93020000 		.4byte	.LASF21
 3338 03ef 06       		.byte	0x6
 3339 03f0 29       		.byte	0x29
 3340 03f1 15       		.uleb128 0x15
 3341 03f2 DA020000 		.4byte	.LASF22
 3342 03f6 DA020000 		.4byte	.LASF22
 3343 03fa 06       		.byte	0x6
 3344 03fb 26       		.byte	0x26
 3345 03fc 15       		.uleb128 0x15
 3346 03fd 26020000 		.4byte	.LASF23
 3347 0401 26020000 		.4byte	.LASF23
 3348 0405 07       		.byte	0x7
 3349 0406 3A       		.byte	0x3a
 3350 0407 15       		.uleb128 0x15
 3351 0408 74010000 		.4byte	.LASF24
 3352 040c 74010000 		.4byte	.LASF24
 3353 0410 07       		.byte	0x7
 3354 0411 3C       		.byte	0x3c
 3355 0412 15       		.uleb128 0x15
 3356 0413 00000000 		.4byte	.LASF25
 3357 0417 00000000 		.4byte	.LASF25
 3358 041b 08       		.byte	0x8
 3359 041c 2B       		.byte	0x2b
 3360 041d 15       		.uleb128 0x15
 3361 041e 04010000 		.4byte	.LASF26
 3362 0422 04010000 		.4byte	.LASF26
 3363 0426 09       		.byte	0x9
 3364 0427 D1       		.byte	0xd1
 3365 0428 15       		.uleb128 0x15
 3366 0429 3D010000 		.4byte	.LASF27
 3367 042d 3D010000 		.4byte	.LASF27
 3368 0431 09       		.byte	0x9
 3369 0432 39       		.byte	0x39
 3370 0433 15       		.uleb128 0x15
 3371 0434 21010000 		.4byte	.LASF28
 3372 0438 21010000 		.4byte	.LASF28
 3373 043c 09       		.byte	0x9
 3374 043d 3B       		.byte	0x3b
ARM GAS  C:\Users\LASER_2\AppData\Local\Temp\ccBjTwtn.s 			page 65


 3375 043e 15       		.uleb128 0x15
 3376 043f F9010000 		.4byte	.LASF29
 3377 0443 F9010000 		.4byte	.LASF29
 3378 0447 0A       		.byte	0xa
 3379 0448 C3       		.byte	0xc3
 3380 0449 15       		.uleb128 0x15
 3381 044a 2F000000 		.4byte	.LASF30
 3382 044e 2F000000 		.4byte	.LASF30
 3383 0452 0B       		.byte	0xb
 3384 0453 37       		.byte	0x37
 3385 0454 15       		.uleb128 0x15
 3386 0455 51000000 		.4byte	.LASF31
 3387 0459 51000000 		.4byte	.LASF31
 3388 045d 07       		.byte	0x7
 3389 045e 38       		.byte	0x38
 3390 045f 15       		.uleb128 0x15
 3391 0460 DA010000 		.4byte	.LASF32
 3392 0464 DA010000 		.4byte	.LASF32
 3393 0468 09       		.byte	0x9
 3394 0469 34       		.byte	0x34
 3395 046a 15       		.uleb128 0x15
 3396 046b 51010000 		.4byte	.LASF33
 3397 046f 51010000 		.4byte	.LASF33
 3398 0473 0B       		.byte	0xb
 3399 0474 33       		.byte	0x33
 3400 0475 15       		.uleb128 0x15
 3401 0476 9D010000 		.4byte	.LASF34
 3402 047a 9D010000 		.4byte	.LASF34
 3403 047e 0C       		.byte	0xc
 3404 047f 5A       		.byte	0x5a
 3405 0480 15       		.uleb128 0x15
 3406 0481 31010000 		.4byte	.LASF35
 3407 0485 31010000 		.4byte	.LASF35
 3408 0489 0D       		.byte	0xd
 3409 048a 18       		.byte	0x18
 3410 048b 15       		.uleb128 0x15
 3411 048c 15010000 		.4byte	.LASF36
 3412 0490 15010000 		.4byte	.LASF36
 3413 0494 0A       		.byte	0xa
 3414 0495 92       		.byte	0x92
 3415 0496 15       		.uleb128 0x15
 3416 0497 9D020000 		.4byte	.LASF37
 3417 049b 9D020000 		.4byte	.LASF37
 3418 049f 0E       		.byte	0xe
 3419 04a0 18       		.byte	0x18
 3420 04a1 15       		.uleb128 0x15
 3421 04a2 B4020000 		.4byte	.LASF38
 3422 04a6 B4020000 		.4byte	.LASF38
 3423 04aa 0F       		.byte	0xf
 3424 04ab 33       		.byte	0x33
 3425 04ac 15       		.uleb128 0x15
 3426 04ad C2020000 		.4byte	.LASF39
 3427 04b1 C2020000 		.4byte	.LASF39
 3428 04b5 0F       		.byte	0xf
 3429 04b6 37       		.byte	0x37
 3430 04b7 15       		.uleb128 0x15
 3431 04b8 CD010000 		.4byte	.LASF40
ARM GAS  C:\Users\LASER_2\AppData\Local\Temp\ccBjTwtn.s 			page 66


 3432 04bc CD010000 		.4byte	.LASF40
 3433 04c0 07       		.byte	0x7
 3434 04c1 3D       		.byte	0x3d
 3435 04c2 00       		.byte	0
 3436              		.section	.debug_abbrev,"",%progbits
 3437              	.Ldebug_abbrev0:
 3438 0000 01       		.uleb128 0x1
 3439 0001 11       		.uleb128 0x11
 3440 0002 01       		.byte	0x1
 3441 0003 25       		.uleb128 0x25
 3442 0004 0E       		.uleb128 0xe
 3443 0005 13       		.uleb128 0x13
 3444 0006 0B       		.uleb128 0xb
 3445 0007 03       		.uleb128 0x3
 3446 0008 0E       		.uleb128 0xe
 3447 0009 1B       		.uleb128 0x1b
 3448 000a 0E       		.uleb128 0xe
 3449 000b 55       		.uleb128 0x55
 3450 000c 17       		.uleb128 0x17
 3451 000d 11       		.uleb128 0x11
 3452 000e 01       		.uleb128 0x1
 3453 000f 10       		.uleb128 0x10
 3454 0010 17       		.uleb128 0x17
 3455 0011 00       		.byte	0
 3456 0012 00       		.byte	0
 3457 0013 02       		.uleb128 0x2
 3458 0014 24       		.uleb128 0x24
 3459 0015 00       		.byte	0
 3460 0016 0B       		.uleb128 0xb
 3461 0017 0B       		.uleb128 0xb
 3462 0018 3E       		.uleb128 0x3e
 3463 0019 0B       		.uleb128 0xb
 3464 001a 03       		.uleb128 0x3
 3465 001b 0E       		.uleb128 0xe
 3466 001c 00       		.byte	0
 3467 001d 00       		.byte	0
 3468 001e 03       		.uleb128 0x3
 3469 001f 16       		.uleb128 0x16
 3470 0020 00       		.byte	0
 3471 0021 03       		.uleb128 0x3
 3472 0022 0E       		.uleb128 0xe
 3473 0023 3A       		.uleb128 0x3a
 3474 0024 0B       		.uleb128 0xb
 3475 0025 3B       		.uleb128 0x3b
 3476 0026 0B       		.uleb128 0xb
 3477 0027 49       		.uleb128 0x49
 3478 0028 13       		.uleb128 0x13
 3479 0029 00       		.byte	0
 3480 002a 00       		.byte	0
 3481 002b 04       		.uleb128 0x4
 3482 002c 24       		.uleb128 0x24
 3483 002d 00       		.byte	0
 3484 002e 0B       		.uleb128 0xb
 3485 002f 0B       		.uleb128 0xb
 3486 0030 3E       		.uleb128 0x3e
 3487 0031 0B       		.uleb128 0xb
 3488 0032 03       		.uleb128 0x3
ARM GAS  C:\Users\LASER_2\AppData\Local\Temp\ccBjTwtn.s 			page 67


 3489 0033 08       		.uleb128 0x8
 3490 0034 00       		.byte	0
 3491 0035 00       		.byte	0
 3492 0036 05       		.uleb128 0x5
 3493 0037 16       		.uleb128 0x16
 3494 0038 00       		.byte	0
 3495 0039 03       		.uleb128 0x3
 3496 003a 0E       		.uleb128 0xe
 3497 003b 3A       		.uleb128 0x3a
 3498 003c 0B       		.uleb128 0xb
 3499 003d 3B       		.uleb128 0x3b
 3500 003e 05       		.uleb128 0x5
 3501 003f 49       		.uleb128 0x49
 3502 0040 13       		.uleb128 0x13
 3503 0041 00       		.byte	0
 3504 0042 00       		.byte	0
 3505 0043 06       		.uleb128 0x6
 3506 0044 2E       		.uleb128 0x2e
 3507 0045 01       		.byte	0x1
 3508 0046 3F       		.uleb128 0x3f
 3509 0047 19       		.uleb128 0x19
 3510 0048 03       		.uleb128 0x3
 3511 0049 0E       		.uleb128 0xe
 3512 004a 3A       		.uleb128 0x3a
 3513 004b 0B       		.uleb128 0xb
 3514 004c 3B       		.uleb128 0x3b
 3515 004d 0B       		.uleb128 0xb
 3516 004e 27       		.uleb128 0x27
 3517 004f 19       		.uleb128 0x19
 3518 0050 11       		.uleb128 0x11
 3519 0051 01       		.uleb128 0x1
 3520 0052 12       		.uleb128 0x12
 3521 0053 06       		.uleb128 0x6
 3522 0054 40       		.uleb128 0x40
 3523 0055 18       		.uleb128 0x18
 3524 0056 9742     		.uleb128 0x2117
 3525 0058 19       		.uleb128 0x19
 3526 0059 01       		.uleb128 0x1
 3527 005a 13       		.uleb128 0x13
 3528 005b 00       		.byte	0
 3529 005c 00       		.byte	0
 3530 005d 07       		.uleb128 0x7
 3531 005e 898201   		.uleb128 0x4109
 3532 0061 00       		.byte	0
 3533 0062 11       		.uleb128 0x11
 3534 0063 01       		.uleb128 0x1
 3535 0064 31       		.uleb128 0x31
 3536 0065 13       		.uleb128 0x13
 3537 0066 00       		.byte	0
 3538 0067 00       		.byte	0
 3539 0068 08       		.uleb128 0x8
 3540 0069 898201   		.uleb128 0x4109
 3541 006c 01       		.byte	0x1
 3542 006d 11       		.uleb128 0x11
 3543 006e 01       		.uleb128 0x1
 3544 006f 31       		.uleb128 0x31
 3545 0070 13       		.uleb128 0x13
ARM GAS  C:\Users\LASER_2\AppData\Local\Temp\ccBjTwtn.s 			page 68


 3546 0071 01       		.uleb128 0x1
 3547 0072 13       		.uleb128 0x13
 3548 0073 00       		.byte	0
 3549 0074 00       		.byte	0
 3550 0075 09       		.uleb128 0x9
 3551 0076 8A8201   		.uleb128 0x410a
 3552 0079 00       		.byte	0
 3553 007a 02       		.uleb128 0x2
 3554 007b 18       		.uleb128 0x18
 3555 007c 9142     		.uleb128 0x2111
 3556 007e 18       		.uleb128 0x18
 3557 007f 00       		.byte	0
 3558 0080 00       		.byte	0
 3559 0081 0A       		.uleb128 0xa
 3560 0082 2E       		.uleb128 0x2e
 3561 0083 01       		.byte	0x1
 3562 0084 3F       		.uleb128 0x3f
 3563 0085 19       		.uleb128 0x19
 3564 0086 03       		.uleb128 0x3
 3565 0087 0E       		.uleb128 0xe
 3566 0088 3A       		.uleb128 0x3a
 3567 0089 0B       		.uleb128 0xb
 3568 008a 3B       		.uleb128 0x3b
 3569 008b 0B       		.uleb128 0xb
 3570 008c 27       		.uleb128 0x27
 3571 008d 19       		.uleb128 0x19
 3572 008e 11       		.uleb128 0x11
 3573 008f 01       		.uleb128 0x1
 3574 0090 12       		.uleb128 0x12
 3575 0091 06       		.uleb128 0x6
 3576 0092 40       		.uleb128 0x40
 3577 0093 18       		.uleb128 0x18
 3578 0094 9642     		.uleb128 0x2116
 3579 0096 19       		.uleb128 0x19
 3580 0097 01       		.uleb128 0x1
 3581 0098 13       		.uleb128 0x13
 3582 0099 00       		.byte	0
 3583 009a 00       		.byte	0
 3584 009b 0B       		.uleb128 0xb
 3585 009c 34       		.uleb128 0x34
 3586 009d 00       		.byte	0
 3587 009e 03       		.uleb128 0x3
 3588 009f 08       		.uleb128 0x8
 3589 00a0 3A       		.uleb128 0x3a
 3590 00a1 0B       		.uleb128 0xb
 3591 00a2 3B       		.uleb128 0x3b
 3592 00a3 0B       		.uleb128 0xb
 3593 00a4 49       		.uleb128 0x49
 3594 00a5 13       		.uleb128 0x13
 3595 00a6 02       		.uleb128 0x2
 3596 00a7 17       		.uleb128 0x17
 3597 00a8 00       		.byte	0
 3598 00a9 00       		.byte	0
 3599 00aa 0C       		.uleb128 0xc
 3600 00ab 898201   		.uleb128 0x4109
 3601 00ae 01       		.byte	0x1
 3602 00af 11       		.uleb128 0x11
ARM GAS  C:\Users\LASER_2\AppData\Local\Temp\ccBjTwtn.s 			page 69


 3603 00b0 01       		.uleb128 0x1
 3604 00b1 31       		.uleb128 0x31
 3605 00b2 13       		.uleb128 0x13
 3606 00b3 00       		.byte	0
 3607 00b4 00       		.byte	0
 3608 00b5 0D       		.uleb128 0xd
 3609 00b6 2E       		.uleb128 0x2e
 3610 00b7 01       		.byte	0x1
 3611 00b8 3F       		.uleb128 0x3f
 3612 00b9 19       		.uleb128 0x19
 3613 00ba 03       		.uleb128 0x3
 3614 00bb 0E       		.uleb128 0xe
 3615 00bc 3A       		.uleb128 0x3a
 3616 00bd 0B       		.uleb128 0xb
 3617 00be 3B       		.uleb128 0x3b
 3618 00bf 0B       		.uleb128 0xb
 3619 00c0 27       		.uleb128 0x27
 3620 00c1 19       		.uleb128 0x19
 3621 00c2 49       		.uleb128 0x49
 3622 00c3 13       		.uleb128 0x13
 3623 00c4 8701     		.uleb128 0x87
 3624 00c6 19       		.uleb128 0x19
 3625 00c7 11       		.uleb128 0x11
 3626 00c8 01       		.uleb128 0x1
 3627 00c9 12       		.uleb128 0x12
 3628 00ca 06       		.uleb128 0x6
 3629 00cb 40       		.uleb128 0x40
 3630 00cc 18       		.uleb128 0x18
 3631 00cd 9742     		.uleb128 0x2117
 3632 00cf 19       		.uleb128 0x19
 3633 00d0 01       		.uleb128 0x1
 3634 00d1 13       		.uleb128 0x13
 3635 00d2 00       		.byte	0
 3636 00d3 00       		.byte	0
 3637 00d4 0E       		.uleb128 0xe
 3638 00d5 34       		.uleb128 0x34
 3639 00d6 00       		.byte	0
 3640 00d7 03       		.uleb128 0x3
 3641 00d8 0E       		.uleb128 0xe
 3642 00d9 3A       		.uleb128 0x3a
 3643 00da 0B       		.uleb128 0xb
 3644 00db 3B       		.uleb128 0x3b
 3645 00dc 05       		.uleb128 0x5
 3646 00dd 49       		.uleb128 0x49
 3647 00de 13       		.uleb128 0x13
 3648 00df 3F       		.uleb128 0x3f
 3649 00e0 19       		.uleb128 0x19
 3650 00e1 3C       		.uleb128 0x3c
 3651 00e2 19       		.uleb128 0x19
 3652 00e3 00       		.byte	0
 3653 00e4 00       		.byte	0
 3654 00e5 0F       		.uleb128 0xf
 3655 00e6 35       		.uleb128 0x35
 3656 00e7 00       		.byte	0
 3657 00e8 49       		.uleb128 0x49
 3658 00e9 13       		.uleb128 0x13
 3659 00ea 00       		.byte	0
ARM GAS  C:\Users\LASER_2\AppData\Local\Temp\ccBjTwtn.s 			page 70


 3660 00eb 00       		.byte	0
 3661 00ec 10       		.uleb128 0x10
 3662 00ed 01       		.uleb128 0x1
 3663 00ee 01       		.byte	0x1
 3664 00ef 49       		.uleb128 0x49
 3665 00f0 13       		.uleb128 0x13
 3666 00f1 01       		.uleb128 0x1
 3667 00f2 13       		.uleb128 0x13
 3668 00f3 00       		.byte	0
 3669 00f4 00       		.byte	0
 3670 00f5 11       		.uleb128 0x11
 3671 00f6 21       		.uleb128 0x21
 3672 00f7 00       		.byte	0
 3673 00f8 49       		.uleb128 0x49
 3674 00f9 13       		.uleb128 0x13
 3675 00fa 2F       		.uleb128 0x2f
 3676 00fb 0B       		.uleb128 0xb
 3677 00fc 00       		.byte	0
 3678 00fd 00       		.byte	0
 3679 00fe 12       		.uleb128 0x12
 3680 00ff 26       		.uleb128 0x26
 3681 0100 00       		.byte	0
 3682 0101 49       		.uleb128 0x49
 3683 0102 13       		.uleb128 0x13
 3684 0103 00       		.byte	0
 3685 0104 00       		.byte	0
 3686 0105 13       		.uleb128 0x13
 3687 0106 34       		.uleb128 0x34
 3688 0107 00       		.byte	0
 3689 0108 03       		.uleb128 0x3
 3690 0109 08       		.uleb128 0x8
 3691 010a 3A       		.uleb128 0x3a
 3692 010b 0B       		.uleb128 0xb
 3693 010c 3B       		.uleb128 0x3b
 3694 010d 0B       		.uleb128 0xb
 3695 010e 49       		.uleb128 0x49
 3696 010f 13       		.uleb128 0x13
 3697 0110 3F       		.uleb128 0x3f
 3698 0111 19       		.uleb128 0x19
 3699 0112 02       		.uleb128 0x2
 3700 0113 18       		.uleb128 0x18
 3701 0114 00       		.byte	0
 3702 0115 00       		.byte	0
 3703 0116 14       		.uleb128 0x14
 3704 0117 34       		.uleb128 0x34
 3705 0118 00       		.byte	0
 3706 0119 03       		.uleb128 0x3
 3707 011a 0E       		.uleb128 0xe
 3708 011b 3A       		.uleb128 0x3a
 3709 011c 0B       		.uleb128 0xb
 3710 011d 3B       		.uleb128 0x3b
 3711 011e 0B       		.uleb128 0xb
 3712 011f 49       		.uleb128 0x49
 3713 0120 13       		.uleb128 0x13
 3714 0121 3F       		.uleb128 0x3f
 3715 0122 19       		.uleb128 0x19
 3716 0123 02       		.uleb128 0x2
ARM GAS  C:\Users\LASER_2\AppData\Local\Temp\ccBjTwtn.s 			page 71


 3717 0124 18       		.uleb128 0x18
 3718 0125 00       		.byte	0
 3719 0126 00       		.byte	0
 3720 0127 15       		.uleb128 0x15
 3721 0128 2E       		.uleb128 0x2e
 3722 0129 00       		.byte	0
 3723 012a 3F       		.uleb128 0x3f
 3724 012b 19       		.uleb128 0x19
 3725 012c 3C       		.uleb128 0x3c
 3726 012d 19       		.uleb128 0x19
 3727 012e 6E       		.uleb128 0x6e
 3728 012f 0E       		.uleb128 0xe
 3729 0130 03       		.uleb128 0x3
 3730 0131 0E       		.uleb128 0xe
 3731 0132 3A       		.uleb128 0x3a
 3732 0133 0B       		.uleb128 0xb
 3733 0134 3B       		.uleb128 0x3b
 3734 0135 0B       		.uleb128 0xb
 3735 0136 00       		.byte	0
 3736 0137 00       		.byte	0
 3737 0138 00       		.byte	0
 3738              		.section	.debug_loc,"",%progbits
 3739              	.Ldebug_loc0:
 3740              	.LLST0:
 3741 0000 02000000 		.4byte	.LVL11
 3742 0004 1C000000 		.4byte	.LVL15
 3743 0008 0200     		.2byte	0x2
 3744 000a 30       		.byte	0x30
 3745 000b 9F       		.byte	0x9f
 3746 000c 1C000000 		.4byte	.LVL15
 3747 0010 24000000 		.4byte	.LVL16
 3748 0014 0100     		.2byte	0x1
 3749 0016 54       		.byte	0x54
 3750 0017 24000000 		.4byte	.LVL16
 3751 001b 90060000 		.4byte	.LVL174
 3752 001f 0200     		.2byte	0x2
 3753 0021 30       		.byte	0x30
 3754 0022 9F       		.byte	0x9f
 3755 0023 90060000 		.4byte	.LVL174
 3756 0027 A0060000 		.4byte	.LVL175
 3757 002b 0100     		.2byte	0x1
 3758 002d 54       		.byte	0x54
 3759 002e A0060000 		.4byte	.LVL175
 3760 0032 140D0000 		.4byte	.LVL333
 3761 0036 0200     		.2byte	0x2
 3762 0038 30       		.byte	0x30
 3763 0039 9F       		.byte	0x9f
 3764 003a 140D0000 		.4byte	.LVL333
 3765 003e 240D0000 		.4byte	.LVL334
 3766 0042 0100     		.2byte	0x1
 3767 0044 54       		.byte	0x54
 3768 0045 240D0000 		.4byte	.LVL334
 3769 0049 82130000 		.4byte	.LVL491
 3770 004d 0200     		.2byte	0x2
 3771 004f 30       		.byte	0x30
 3772 0050 9F       		.byte	0x9f
 3773 0051 82130000 		.4byte	.LVL491
ARM GAS  C:\Users\LASER_2\AppData\Local\Temp\ccBjTwtn.s 			page 72


 3774 0055 A8130000 		.4byte	.LFE64
 3775 0059 0100     		.2byte	0x1
 3776 005b 54       		.byte	0x54
 3777 005c 00000000 		.4byte	0
 3778 0060 00000000 		.4byte	0
 3779              		.section	.debug_aranges,"",%progbits
 3780 0000 2C000000 		.4byte	0x2c
 3781 0004 0200     		.2byte	0x2
 3782 0006 00000000 		.4byte	.Ldebug_info0
 3783 000a 04       		.byte	0x4
 3784 000b 00       		.byte	0
 3785 000c 0000     		.2byte	0
 3786 000e 0000     		.2byte	0
 3787 0010 00000000 		.4byte	.LFB63
 3788 0014 8C000000 		.4byte	.LFE63-.LFB63
 3789 0018 00000000 		.4byte	.LFB64
 3790 001c A8130000 		.4byte	.LFE64-.LFB64
 3791 0020 00000000 		.4byte	.LFB65
 3792 0024 50000000 		.4byte	.LFE65-.LFB65
 3793 0028 00000000 		.4byte	0
 3794 002c 00000000 		.4byte	0
 3795              		.section	.debug_ranges,"",%progbits
 3796              	.Ldebug_ranges0:
 3797 0000 00000000 		.4byte	.LFB63
 3798 0004 8C000000 		.4byte	.LFE63
 3799 0008 00000000 		.4byte	.LFB64
 3800 000c A8130000 		.4byte	.LFE64
 3801 0010 00000000 		.4byte	.LFB65
 3802 0014 50000000 		.4byte	.LFE65
 3803 0018 00000000 		.4byte	0
 3804 001c 00000000 		.4byte	0
 3805              		.section	.debug_line,"",%progbits
 3806              	.Ldebug_line0:
 3807 0000 B2020000 		.section	.debug_str,"MS",%progbits,1
 3807      0200AB01 
 3807      00000201 
 3807      FB0E0D00 
 3807      01010101 
 3808              	.LASF25:
 3809 0000 53575F43 		.ascii	"SW_ClearInterrupt\000"
 3809      6C656172 
 3809      496E7465 
 3809      72727570 
 3809      7400
 3810              	.LASF9:
 3811 0012 5F5F696E 		.ascii	"__int32_t\000"
 3811      7433325F 
 3811      7400
 3812              	.LASF3:
 3813 001c 73686F72 		.ascii	"short unsigned int\000"
 3813      7420756E 
 3813      7369676E 
 3813      65642069 
 3813      6E7400
 3814              	.LASF30:
 3815 002f 4441435F 		.ascii	"DAC_SetValue\000"
 3815      53657456 
ARM GAS  C:\Users\LASER_2\AppData\Local\Temp\ccBjTwtn.s 			page 73


 3815      616C7565 
 3815      00
 3816              	.LASF13:
 3817 003c 646F7562 		.ascii	"double\000"
 3817      6C6500
 3818              	.LASF10:
 3819 0043 696E7433 		.ascii	"int32_t\000"
 3819      325F7400 
 3820              	.LASF12:
 3821 004b 666C6F61 		.ascii	"float\000"
 3821      7400
 3822              	.LASF31:
 3823 0051 4C43445F 		.ascii	"LCD_Start\000"
 3823      53746172 
 3823      7400
 3824              	.LASF18:
 3825 005b 6C6C6567 		.ascii	"llegaMuestra\000"
 3825      614D7565 
 3825      73747261 
 3825      00
 3826              	.LASF1:
 3827 0068 756E7369 		.ascii	"unsigned char\000"
 3827      676E6564 
 3827      20636861 
 3827      7200
 3828              	.LASF41:
 3829 0076 474E5520 		.ascii	"GNU C11 5.4.1 20160609 (release) [ARM/embedded-5-br"
 3829      43313120 
 3829      352E342E 
 3829      31203230 
 3829      31363036 
 3830 00a9 616E6368 		.ascii	"anch revision 237715] -mcpu=cortex-m3 -mthumb -g -O"
 3830      20726576 
 3830      6973696F 
 3830      6E203233 
 3830      37373135 
 3831 00dc 67202D66 		.ascii	"g -ffunction-sections -ffat-lto-objects\000"
 3831      66756E63 
 3831      74696F6E 
 3831      2D736563 
 3831      74696F6E 
 3832              	.LASF26:
 3833 0104 4144435F 		.ascii	"ADC_StartConvert\000"
 3833      53746172 
 3833      74436F6E 
 3833      76657274 
 3833      00
 3834              	.LASF36:
 3835 0115 50574D5F 		.ascii	"PWM_1_Start\000"
 3835      315F5374 
 3835      61727400 
 3836              	.LASF28:
 3837 0121 4144435F 		.ascii	"ADC_GetResult16\000"
 3837      47657452 
 3837      6573756C 
 3837      74313600 
 3838              	.LASF35:
ARM GAS  C:\Users\LASER_2\AppData\Local\Temp\ccBjTwtn.s 			page 74


 3839 0131 4953525F 		.ascii	"ISR_StartEx\000"
 3839      53746172 
 3839      74457800 
 3840              	.LASF27:
 3841 013d 4144435F 		.ascii	"ADC_IsEndConversion\000"
 3841      4973456E 
 3841      64436F6E 
 3841      76657273 
 3841      696F6E00 
 3842              	.LASF33:
 3843 0151 4441435F 		.ascii	"DAC_Start\000"
 3843      53746172 
 3843      7400
 3844              	.LASF5:
 3845 015b 6C6F6E67 		.ascii	"long unsigned int\000"
 3845      20756E73 
 3845      69676E65 
 3845      6420696E 
 3845      7400
 3846              	.LASF17:
 3847 016d 494E545F 		.ascii	"INT_SW\000"
 3847      535700
 3848              	.LASF24:
 3849 0174 4C43445F 		.ascii	"LCD_PrintString\000"
 3849      5072696E 
 3849      74537472 
 3849      696E6700 
 3850              	.LASF11:
 3851 0184 75696E74 		.ascii	"uint16\000"
 3851      313600
 3852              	.LASF19:
 3853 018b 49544D5F 		.ascii	"ITM_RxBuffer\000"
 3853      52784275 
 3853      66666572 
 3853      00
 3854              	.LASF44:
 3855 0198 6D61696E 		.ascii	"main\000"
 3855      00
 3856              	.LASF34:
 3857 019d 54696D65 		.ascii	"Timer_Start\000"
 3857      725F5374 
 3857      61727400 
 3858              	.LASF8:
 3859 01a9 756E7369 		.ascii	"unsigned int\000"
 3859      676E6564 
 3859      20696E74 
 3859      00
 3860              	.LASF7:
 3861 01b6 6C6F6E67 		.ascii	"long long unsigned int\000"
 3861      206C6F6E 
 3861      6720756E 
 3861      7369676E 
 3861      65642069 
 3862              	.LASF40:
 3863 01cd 4C43445F 		.ascii	"LCD_Position\000"
 3863      506F7369 
 3863      74696F6E 
ARM GAS  C:\Users\LASER_2\AppData\Local\Temp\ccBjTwtn.s 			page 75


 3863      00
 3864              	.LASF32:
 3865 01da 4144435F 		.ascii	"ADC_Start\000"
 3865      53746172 
 3865      7400
 3866              	.LASF15:
 3867 01e4 6C6F6E67 		.ascii	"long double\000"
 3867      20646F75 
 3867      626C6500 
 3868              	.LASF16:
 3869 01f0 73697A65 		.ascii	"sizetype\000"
 3869      74797065 
 3869      00
 3870              	.LASF29:
 3871 01f9 50574D5F 		.ascii	"PWM_1_WriteCompare\000"
 3871      315F5772 
 3871      69746543 
 3871      6F6D7061 
 3871      726500
 3872              	.LASF6:
 3873 020c 6C6F6E67 		.ascii	"long long int\000"
 3873      206C6F6E 
 3873      6720696E 
 3873      7400
 3874              	.LASF42:
 3875 021a 6D61696E 		.ascii	"main.c\000"
 3875      2E6300
 3876              	.LASF14:
 3877 0221 63686172 		.ascii	"char\000"
 3877      00
 3878              	.LASF23:
 3879 0226 4C43445F 		.ascii	"LCD_WriteControl\000"
 3879      57726974 
 3879      65436F6E 
 3879      74726F6C 
 3879      00
 3880              	.LASF2:
 3881 0237 73686F72 		.ascii	"short int\000"
 3881      7420696E 
 3881      7400
 3882              	.LASF43:
 3883 0241 433A5C55 		.ascii	"C:\\Users\\LASER_2\\Documents\\PSoC Creator\\Filtro"
 3883      73657273 
 3883      5C4C4153 
 3883      45525F32 
 3883      5C446F63 
 3884 026f 46495244 		.ascii	"FIRDigitalProgramable\\Proy3_1.cydsn\000"
 3884      69676974 
 3884      616C5072 
 3884      6F677261 
 3884      6D61626C 
 3885              	.LASF21:
 3886 0293 4C454453 		.ascii	"LEDS_Read\000"
 3886      5F526561 
 3886      6400
 3887              	.LASF37:
 3888 029d 4953525F 		.ascii	"ISR_1_StartEx\000"
ARM GAS  C:\Users\LASER_2\AppData\Local\Temp\ccBjTwtn.s 			page 76


 3888      315F5374 
 3888      61727445 
 3888      7800
 3889              	.LASF4:
 3890 02ab 6C6F6E67 		.ascii	"long int\000"
 3890      20696E74 
 3890      00
 3891              	.LASF38:
 3892 02b4 56445F53 		.ascii	"VD_Start\000"
 3892      74617274 
 3892      00
 3893              	.LASF20:
 3894 02bd 636F6E74 		.ascii	"cont\000"
 3894      00
 3895              	.LASF39:
 3896 02c2 56445F53 		.ascii	"VD_SetValue\000"
 3896      65745661 
 3896      6C756500 
 3897              	.LASF0:
 3898 02ce 7369676E 		.ascii	"signed char\000"
 3898      65642063 
 3898      68617200 
 3899              	.LASF22:
 3900 02da 4C454453 		.ascii	"LEDS_Write\000"
 3900      5F577269 
 3900      746500
 3901              		.ident	"GCC: (GNU Tools for ARM Embedded Processors) 5.4.1 20160609 (release) [ARM/embedded-5-bran
