ARM GAS  C:\Users\s_bej\AppData\Local\Temp\cczIgxd7.s 			page 1


   1              		.syntax unified
   2              		.cpu cortex-m3
   3              		.fpu softvfp
   4              		.eabi_attribute 20, 1
   5              		.eabi_attribute 21, 1
   6              		.eabi_attribute 23, 3
   7              		.eabi_attribute 24, 1
   8              		.eabi_attribute 25, 1
   9              		.eabi_attribute 26, 1
  10              		.eabi_attribute 30, 1
  11              		.eabi_attribute 34, 1
  12              		.eabi_attribute 18, 4
  13              		.thumb
  14              		.syntax unified
  15              		.file	"main.c"
  16              		.text
  17              	.Ltext0:
  18              		.cfi_sections	.debug_frame
  19              		.global	__aeabi_ui2d
  20              		.global	__aeabi_dmul
  21              		.global	__aeabi_dadd
  22              		.global	__aeabi_d2iz
  23              		.global	__aeabi_i2d
  24              		.global	__aeabi_d2uiz
  25              		.section	.text.llegaMuestra,"ax",%progbits
  26              		.align	2
  27              		.global	llegaMuestra
  28              		.thumb
  29              		.thumb_func
  30              		.type	llegaMuestra, %function
  31              	llegaMuestra:
  32              	.LFB63:
  33              		.file 1 "main.c"
   1:main.c        **** /* ========================================
   2:main.c        ****  *
   3:main.c        ****  * Copyright YOUR COMPANY, THE YEAR
   4:main.c        ****  * All Rights Reserved
   5:main.c        ****  * UNPUBLISHED, LICENSED SOFTWARE.
   6:main.c        ****  *
   7:main.c        ****  * CONFIDENTIAL AND PROPRIETARY INFORMATION
   8:main.c        ****  * WHICH IS THE PROPERTY OF your company.
   9:main.c        ****  *
  10:main.c        ****  * ========================================
  11:main.c        **** */
  12:main.c        **** #include "project.h"
  13:main.c        **** #include <math.h>
  14:main.c        **** 
  15:main.c        **** 
  16:main.c        **** //Creación de variables h para los coeficientes del filtro, x para las muestras, y para la salida,
  17:main.c        **** //tecla para guardar lo recibido del teclado
  18:main.c        **** 
  19:main.c        **** volatile double h[51];
  20:main.c        **** uint16 x[51];
  21:main.c        **** uint16 frec_final;
  22:main.c        **** volatile uint8 i,cont_char,u_frec,d_frec,c_frec,um_frec;
  23:main.c        **** volatile char fila, tecla, columna,paso,filtro;
  24:main.c        **** volatile char frec[4];
ARM GAS  C:\Users\s_bej\AppData\Local\Temp\cczIgxd7.s 			page 2


  25:main.c        **** 
  26:main.c        **** CY_ISR(llegaMuestra)
  27:main.c        **** {    
  34              		.loc 1 27 0
  35              		.cfi_startproc
  36              		@ args = 0, pretend = 0, frame = 0
  37              		@ frame_needed = 0, uses_anonymous_args = 0
  38 0000 F8B5     		push	{r3, r4, r5, r6, r7, lr}
  39              		.cfi_def_cfa_offset 24
  40              		.cfi_offset 3, -24
  41              		.cfi_offset 4, -20
  42              		.cfi_offset 5, -16
  43              		.cfi_offset 6, -12
  44              		.cfi_offset 7, -8
  45              		.cfi_offset 14, -4
  28:main.c        ****     x[50] = x[49];
  46              		.loc 1 28 0
  47 0002 C14C     		ldr	r4, .L6
  48 0004 B4F86230 		ldrh	r3, [r4, #98]
  49 0008 A4F86430 		strh	r3, [r4, #100]	@ movhi
  29:main.c        ****     x[49] = x[48];
  50              		.loc 1 29 0
  51 000c B4F86030 		ldrh	r3, [r4, #96]
  52 0010 A4F86230 		strh	r3, [r4, #98]	@ movhi
  30:main.c        ****     x[48] = x[47];
  53              		.loc 1 30 0
  54 0014 B4F85E30 		ldrh	r3, [r4, #94]
  55 0018 A4F86030 		strh	r3, [r4, #96]	@ movhi
  31:main.c        ****     x[47] = x[46];
  56              		.loc 1 31 0
  57 001c B4F85C30 		ldrh	r3, [r4, #92]
  58 0020 A4F85E30 		strh	r3, [r4, #94]	@ movhi
  32:main.c        ****     x[46] = x[45];
  59              		.loc 1 32 0
  60 0024 B4F85A30 		ldrh	r3, [r4, #90]
  61 0028 A4F85C30 		strh	r3, [r4, #92]	@ movhi
  33:main.c        ****     x[45] = x[44];
  62              		.loc 1 33 0
  63 002c B4F85830 		ldrh	r3, [r4, #88]
  64 0030 A4F85A30 		strh	r3, [r4, #90]	@ movhi
  34:main.c        ****     x[44] = x[43];
  65              		.loc 1 34 0
  66 0034 B4F85630 		ldrh	r3, [r4, #86]
  67 0038 A4F85830 		strh	r3, [r4, #88]	@ movhi
  35:main.c        ****     x[43] = x[42];
  68              		.loc 1 35 0
  69 003c B4F85430 		ldrh	r3, [r4, #84]
  70 0040 A4F85630 		strh	r3, [r4, #86]	@ movhi
  36:main.c        ****     x[42] = x[41];
  71              		.loc 1 36 0
  72 0044 B4F85230 		ldrh	r3, [r4, #82]
  73 0048 A4F85430 		strh	r3, [r4, #84]	@ movhi
  37:main.c        ****     x[41] = x[40];
  74              		.loc 1 37 0
  75 004c B4F85030 		ldrh	r3, [r4, #80]
  76 0050 A4F85230 		strh	r3, [r4, #82]	@ movhi
  38:main.c        ****     x[40] = x[39];
ARM GAS  C:\Users\s_bej\AppData\Local\Temp\cczIgxd7.s 			page 3


  77              		.loc 1 38 0
  78 0054 B4F84E30 		ldrh	r3, [r4, #78]
  79 0058 A4F85030 		strh	r3, [r4, #80]	@ movhi
  39:main.c        ****     x[39] = x[38];
  80              		.loc 1 39 0
  81 005c B4F84C30 		ldrh	r3, [r4, #76]
  82 0060 A4F84E30 		strh	r3, [r4, #78]	@ movhi
  40:main.c        ****     x[38] = x[37];
  83              		.loc 1 40 0
  84 0064 B4F84A30 		ldrh	r3, [r4, #74]
  85 0068 A4F84C30 		strh	r3, [r4, #76]	@ movhi
  41:main.c        ****     x[37] = x[36];
  86              		.loc 1 41 0
  87 006c B4F84830 		ldrh	r3, [r4, #72]
  88 0070 A4F84A30 		strh	r3, [r4, #74]	@ movhi
  42:main.c        ****     x[36] = x[35];
  89              		.loc 1 42 0
  90 0074 B4F84630 		ldrh	r3, [r4, #70]
  91 0078 A4F84830 		strh	r3, [r4, #72]	@ movhi
  43:main.c        ****     x[35] = x[34];
  92              		.loc 1 43 0
  93 007c B4F84430 		ldrh	r3, [r4, #68]
  94 0080 A4F84630 		strh	r3, [r4, #70]	@ movhi
  44:main.c        ****     x[34] = x[33];
  95              		.loc 1 44 0
  96 0084 B4F84230 		ldrh	r3, [r4, #66]
  97 0088 A4F84430 		strh	r3, [r4, #68]	@ movhi
  45:main.c        ****     x[33] = x[32];
  98              		.loc 1 45 0
  99 008c B4F84030 		ldrh	r3, [r4, #64]
 100 0090 A4F84230 		strh	r3, [r4, #66]	@ movhi
  46:main.c        ****     x[32] = x[31];
 101              		.loc 1 46 0
 102 0094 E38F     		ldrh	r3, [r4, #62]
 103 0096 A4F84030 		strh	r3, [r4, #64]	@ movhi
  47:main.c        ****     x[31] = x[30];
 104              		.loc 1 47 0
 105 009a A38F     		ldrh	r3, [r4, #60]
 106 009c E387     		strh	r3, [r4, #62]	@ movhi
  48:main.c        ****     x[30] = x[29];
 107              		.loc 1 48 0
 108 009e 638F     		ldrh	r3, [r4, #58]
 109 00a0 A387     		strh	r3, [r4, #60]	@ movhi
  49:main.c        ****     x[29] = x[28];
 110              		.loc 1 49 0
 111 00a2 238F     		ldrh	r3, [r4, #56]
 112 00a4 6387     		strh	r3, [r4, #58]	@ movhi
  50:main.c        ****     x[28] = x[27];
 113              		.loc 1 50 0
 114 00a6 E38E     		ldrh	r3, [r4, #54]
 115 00a8 2387     		strh	r3, [r4, #56]	@ movhi
  51:main.c        ****     x[27] = x[26];
 116              		.loc 1 51 0
 117 00aa A38E     		ldrh	r3, [r4, #52]
 118 00ac E386     		strh	r3, [r4, #54]	@ movhi
  52:main.c        ****     x[26] = x[25];
 119              		.loc 1 52 0
ARM GAS  C:\Users\s_bej\AppData\Local\Temp\cczIgxd7.s 			page 4


 120 00ae 638E     		ldrh	r3, [r4, #50]
 121 00b0 A386     		strh	r3, [r4, #52]	@ movhi
  53:main.c        ****     x[25] = x[24];
 122              		.loc 1 53 0
 123 00b2 238E     		ldrh	r3, [r4, #48]
 124 00b4 6386     		strh	r3, [r4, #50]	@ movhi
  54:main.c        ****     x[24] = x[23];
 125              		.loc 1 54 0
 126 00b6 E38D     		ldrh	r3, [r4, #46]
 127 00b8 2386     		strh	r3, [r4, #48]	@ movhi
  55:main.c        ****     x[23] = x[22];
 128              		.loc 1 55 0
 129 00ba A38D     		ldrh	r3, [r4, #44]
 130 00bc E385     		strh	r3, [r4, #46]	@ movhi
  56:main.c        ****     x[22] = x[21];
 131              		.loc 1 56 0
 132 00be 638D     		ldrh	r3, [r4, #42]
 133 00c0 A385     		strh	r3, [r4, #44]	@ movhi
  57:main.c        ****     x[21] = x[20];
 134              		.loc 1 57 0
 135 00c2 238D     		ldrh	r3, [r4, #40]
 136 00c4 6385     		strh	r3, [r4, #42]	@ movhi
  58:main.c        ****     x[20] = x[19];
 137              		.loc 1 58 0
 138 00c6 E38C     		ldrh	r3, [r4, #38]
 139 00c8 2385     		strh	r3, [r4, #40]	@ movhi
  59:main.c        ****     x[19] = x[18];
 140              		.loc 1 59 0
 141 00ca A38C     		ldrh	r3, [r4, #36]
 142 00cc E384     		strh	r3, [r4, #38]	@ movhi
  60:main.c        ****     x[18] = x[17];
 143              		.loc 1 60 0
 144 00ce 638C     		ldrh	r3, [r4, #34]
 145 00d0 A384     		strh	r3, [r4, #36]	@ movhi
  61:main.c        ****     x[17] = x[16];
 146              		.loc 1 61 0
 147 00d2 238C     		ldrh	r3, [r4, #32]
 148 00d4 6384     		strh	r3, [r4, #34]	@ movhi
  62:main.c        ****     x[16] = x[15];
 149              		.loc 1 62 0
 150 00d6 E38B     		ldrh	r3, [r4, #30]
 151 00d8 2384     		strh	r3, [r4, #32]	@ movhi
  63:main.c        ****     x[15] = x[14];
 152              		.loc 1 63 0
 153 00da A38B     		ldrh	r3, [r4, #28]
 154 00dc E383     		strh	r3, [r4, #30]	@ movhi
  64:main.c        ****     x[14] = x[13];
 155              		.loc 1 64 0
 156 00de 638B     		ldrh	r3, [r4, #26]
 157 00e0 A383     		strh	r3, [r4, #28]	@ movhi
  65:main.c        ****     x[13] = x[12];
 158              		.loc 1 65 0
 159 00e2 238B     		ldrh	r3, [r4, #24]
 160 00e4 6383     		strh	r3, [r4, #26]	@ movhi
  66:main.c        ****     x[12] = x[11];
 161              		.loc 1 66 0
 162 00e6 E38A     		ldrh	r3, [r4, #22]
ARM GAS  C:\Users\s_bej\AppData\Local\Temp\cczIgxd7.s 			page 5


 163 00e8 2383     		strh	r3, [r4, #24]	@ movhi
  67:main.c        ****     x[11] = x[10];
 164              		.loc 1 67 0
 165 00ea A38A     		ldrh	r3, [r4, #20]
 166 00ec E382     		strh	r3, [r4, #22]	@ movhi
  68:main.c        ****     x[10] = x[9];
 167              		.loc 1 68 0
 168 00ee 638A     		ldrh	r3, [r4, #18]
 169 00f0 A382     		strh	r3, [r4, #20]	@ movhi
  69:main.c        ****     x[9] = x[8];
 170              		.loc 1 69 0
 171 00f2 238A     		ldrh	r3, [r4, #16]
 172 00f4 6382     		strh	r3, [r4, #18]	@ movhi
  70:main.c        ****     x[8] = x[7];
 173              		.loc 1 70 0
 174 00f6 E389     		ldrh	r3, [r4, #14]
 175 00f8 2382     		strh	r3, [r4, #16]	@ movhi
  71:main.c        ****     x[7] = x[6];
 176              		.loc 1 71 0
 177 00fa A389     		ldrh	r3, [r4, #12]
 178 00fc E381     		strh	r3, [r4, #14]	@ movhi
  72:main.c        ****     x[6] = x[5];
 179              		.loc 1 72 0
 180 00fe 6389     		ldrh	r3, [r4, #10]
 181 0100 A381     		strh	r3, [r4, #12]	@ movhi
  73:main.c        ****     x[5] = x[4];
 182              		.loc 1 73 0
 183 0102 2389     		ldrh	r3, [r4, #8]
 184 0104 6381     		strh	r3, [r4, #10]	@ movhi
  74:main.c        ****     x[4] = x[3];
 185              		.loc 1 74 0
 186 0106 E388     		ldrh	r3, [r4, #6]
 187 0108 2381     		strh	r3, [r4, #8]	@ movhi
  75:main.c        ****     x[3] = x[2];
 188              		.loc 1 75 0
 189 010a A388     		ldrh	r3, [r4, #4]
 190 010c E380     		strh	r3, [r4, #6]	@ movhi
  76:main.c        ****     x[2] = x[1];
 191              		.loc 1 76 0
 192 010e 6388     		ldrh	r3, [r4, #2]
 193 0110 A380     		strh	r3, [r4, #4]	@ movhi
  77:main.c        ****     x[1] = x[0];    
 194              		.loc 1 77 0
 195 0112 2388     		ldrh	r3, [r4]
 196 0114 6380     		strh	r3, [r4, #2]	@ movhi
  78:main.c        ****     x[0] = ADC_GetResult16();    
 197              		.loc 1 78 0
 198 0116 FFF7FEFF 		bl	ADC_GetResult16
 199              	.LVL0:
 200 011a 80B2     		uxth	r0, r0
 201 011c 2080     		strh	r0, [r4]	@ movhi
  79:main.c        ****     
  80:main.c        ****       
  81:main.c        ****     if(filtro == 2 || filtro == 3)
 202              		.loc 1 81 0
 203 011e 7B4B     		ldr	r3, .L6+4
 204 0120 1B78     		ldrb	r3, [r3]	@ zero_extendqisi2
ARM GAS  C:\Users\s_bej\AppData\Local\Temp\cczIgxd7.s 			page 6


 205 0122 DBB2     		uxtb	r3, r3
 206 0124 022B     		cmp	r3, #2
 207 0126 05D0     		beq	.L2
 208              		.loc 1 81 0 is_stmt 0 discriminator 1
 209 0128 784B     		ldr	r3, .L6+4
 210 012a 1B78     		ldrb	r3, [r3]	@ zero_extendqisi2
 211 012c DBB2     		uxtb	r3, r3
 212 012e 032B     		cmp	r3, #3
 213 0130 40F04183 		bne	.L3
 214              	.L2:
 215              	.LBB2:
  82:main.c        ****     {
  83:main.c        ****         double y = (double)x[0]*h[0]+(double)x[1]*h[1]+(double)x[2]*h[2]+(double)x[3]*h[3]+(double)
 216              		.loc 1 83 0 is_stmt 1
 217 0134 FFF7FEFF 		bl	__aeabi_ui2d
 218              	.LVL1:
 219 0138 754C     		ldr	r4, .L6+8
 220 013a D4E90023 		ldrd	r2, [r4]
 221 013e FFF7FEFF 		bl	__aeabi_dmul
 222              	.LVL2:
 223 0142 0646     		mov	r6, r0
 224 0144 0F46     		mov	r7, r1
 225 0146 704D     		ldr	r5, .L6
 226 0148 6888     		ldrh	r0, [r5, #2]
 227 014a FFF7FEFF 		bl	__aeabi_ui2d
 228              	.LVL3:
 229 014e D4E90223 		ldrd	r2, [r4, #8]
 230 0152 FFF7FEFF 		bl	__aeabi_dmul
 231              	.LVL4:
 232 0156 0246     		mov	r2, r0
 233 0158 0B46     		mov	r3, r1
 234 015a 3046     		mov	r0, r6
 235 015c 3946     		mov	r1, r7
 236 015e FFF7FEFF 		bl	__aeabi_dadd
 237              	.LVL5:
 238 0162 0646     		mov	r6, r0
 239 0164 0F46     		mov	r7, r1
 240 0166 A888     		ldrh	r0, [r5, #4]
 241 0168 FFF7FEFF 		bl	__aeabi_ui2d
 242              	.LVL6:
 243 016c D4E90423 		ldrd	r2, [r4, #16]
 244 0170 FFF7FEFF 		bl	__aeabi_dmul
 245              	.LVL7:
 246 0174 0246     		mov	r2, r0
 247 0176 0B46     		mov	r3, r1
 248 0178 3046     		mov	r0, r6
 249 017a 3946     		mov	r1, r7
 250 017c FFF7FEFF 		bl	__aeabi_dadd
 251              	.LVL8:
 252 0180 0646     		mov	r6, r0
 253 0182 0F46     		mov	r7, r1
 254 0184 E888     		ldrh	r0, [r5, #6]
 255 0186 FFF7FEFF 		bl	__aeabi_ui2d
 256              	.LVL9:
 257 018a D4E90623 		ldrd	r2, [r4, #24]
 258 018e FFF7FEFF 		bl	__aeabi_dmul
 259              	.LVL10:
ARM GAS  C:\Users\s_bej\AppData\Local\Temp\cczIgxd7.s 			page 7


 260 0192 0246     		mov	r2, r0
 261 0194 0B46     		mov	r3, r1
 262 0196 3046     		mov	r0, r6
 263 0198 3946     		mov	r1, r7
 264 019a FFF7FEFF 		bl	__aeabi_dadd
 265              	.LVL11:
 266 019e 0646     		mov	r6, r0
 267 01a0 0F46     		mov	r7, r1
 268 01a2 2889     		ldrh	r0, [r5, #8]
 269 01a4 FFF7FEFF 		bl	__aeabi_ui2d
 270              	.LVL12:
 271 01a8 D4E90823 		ldrd	r2, [r4, #32]
 272 01ac FFF7FEFF 		bl	__aeabi_dmul
 273              	.LVL13:
 274 01b0 0246     		mov	r2, r0
 275 01b2 0B46     		mov	r3, r1
 276 01b4 3046     		mov	r0, r6
 277 01b6 3946     		mov	r1, r7
 278 01b8 FFF7FEFF 		bl	__aeabi_dadd
 279              	.LVL14:
 280 01bc 0646     		mov	r6, r0
 281 01be 0F46     		mov	r7, r1
 282 01c0 6889     		ldrh	r0, [r5, #10]
 283 01c2 FFF7FEFF 		bl	__aeabi_ui2d
 284              	.LVL15:
 285 01c6 D4E90A23 		ldrd	r2, [r4, #40]
 286 01ca FFF7FEFF 		bl	__aeabi_dmul
 287              	.LVL16:
 288 01ce 0246     		mov	r2, r0
 289 01d0 0B46     		mov	r3, r1
 290 01d2 3046     		mov	r0, r6
 291 01d4 3946     		mov	r1, r7
 292 01d6 FFF7FEFF 		bl	__aeabi_dadd
 293              	.LVL17:
 294 01da 0646     		mov	r6, r0
 295 01dc 0F46     		mov	r7, r1
 296 01de A889     		ldrh	r0, [r5, #12]
 297 01e0 FFF7FEFF 		bl	__aeabi_ui2d
 298              	.LVL18:
 299 01e4 D4E90C23 		ldrd	r2, [r4, #48]
 300 01e8 FFF7FEFF 		bl	__aeabi_dmul
 301              	.LVL19:
 302 01ec 0246     		mov	r2, r0
 303 01ee 0B46     		mov	r3, r1
 304 01f0 3046     		mov	r0, r6
 305 01f2 3946     		mov	r1, r7
 306 01f4 FFF7FEFF 		bl	__aeabi_dadd
 307              	.LVL20:
 308 01f8 0646     		mov	r6, r0
 309 01fa 0F46     		mov	r7, r1
 310 01fc E889     		ldrh	r0, [r5, #14]
 311 01fe FFF7FEFF 		bl	__aeabi_ui2d
 312              	.LVL21:
 313 0202 D4E90E23 		ldrd	r2, [r4, #56]
 314 0206 FFF7FEFF 		bl	__aeabi_dmul
 315              	.LVL22:
 316 020a 0246     		mov	r2, r0
ARM GAS  C:\Users\s_bej\AppData\Local\Temp\cczIgxd7.s 			page 8


 317 020c 0B46     		mov	r3, r1
 318 020e 3046     		mov	r0, r6
 319 0210 3946     		mov	r1, r7
 320 0212 FFF7FEFF 		bl	__aeabi_dadd
 321              	.LVL23:
 322 0216 0646     		mov	r6, r0
 323 0218 0F46     		mov	r7, r1
 324 021a 288A     		ldrh	r0, [r5, #16]
 325 021c FFF7FEFF 		bl	__aeabi_ui2d
 326              	.LVL24:
 327 0220 D4E91023 		ldrd	r2, [r4, #64]
 328 0224 FFF7FEFF 		bl	__aeabi_dmul
 329              	.LVL25:
 330 0228 0246     		mov	r2, r0
 331 022a 0B46     		mov	r3, r1
 332 022c 3046     		mov	r0, r6
 333 022e 3946     		mov	r1, r7
 334 0230 FFF7FEFF 		bl	__aeabi_dadd
 335              	.LVL26:
 336 0234 0646     		mov	r6, r0
 337 0236 0F46     		mov	r7, r1
 338 0238 688A     		ldrh	r0, [r5, #18]
 339 023a FFF7FEFF 		bl	__aeabi_ui2d
 340              	.LVL27:
 341 023e D4E91223 		ldrd	r2, [r4, #72]
 342 0242 FFF7FEFF 		bl	__aeabi_dmul
 343              	.LVL28:
 344 0246 0246     		mov	r2, r0
 345 0248 0B46     		mov	r3, r1
 346 024a 3046     		mov	r0, r6
 347 024c 3946     		mov	r1, r7
 348 024e FFF7FEFF 		bl	__aeabi_dadd
 349              	.LVL29:
 350 0252 0646     		mov	r6, r0
 351 0254 0F46     		mov	r7, r1
 352 0256 A88A     		ldrh	r0, [r5, #20]
 353 0258 FFF7FEFF 		bl	__aeabi_ui2d
 354              	.LVL30:
 355 025c D4E91423 		ldrd	r2, [r4, #80]
 356 0260 FFF7FEFF 		bl	__aeabi_dmul
 357              	.LVL31:
 358 0264 0246     		mov	r2, r0
 359 0266 0B46     		mov	r3, r1
 360 0268 3046     		mov	r0, r6
 361 026a 3946     		mov	r1, r7
 362 026c FFF7FEFF 		bl	__aeabi_dadd
 363              	.LVL32:
 364 0270 0646     		mov	r6, r0
 365 0272 0F46     		mov	r7, r1
 366 0274 E88A     		ldrh	r0, [r5, #22]
 367 0276 FFF7FEFF 		bl	__aeabi_ui2d
 368              	.LVL33:
 369 027a D4E91623 		ldrd	r2, [r4, #88]
 370 027e FFF7FEFF 		bl	__aeabi_dmul
 371              	.LVL34:
 372 0282 0246     		mov	r2, r0
 373 0284 0B46     		mov	r3, r1
ARM GAS  C:\Users\s_bej\AppData\Local\Temp\cczIgxd7.s 			page 9


 374 0286 3046     		mov	r0, r6
 375 0288 3946     		mov	r1, r7
 376 028a FFF7FEFF 		bl	__aeabi_dadd
 377              	.LVL35:
 378 028e 0646     		mov	r6, r0
 379 0290 0F46     		mov	r7, r1
 380 0292 288B     		ldrh	r0, [r5, #24]
 381 0294 FFF7FEFF 		bl	__aeabi_ui2d
 382              	.LVL36:
 383 0298 D4E91823 		ldrd	r2, [r4, #96]
 384 029c FFF7FEFF 		bl	__aeabi_dmul
 385              	.LVL37:
 386 02a0 0246     		mov	r2, r0
 387 02a2 0B46     		mov	r3, r1
 388 02a4 3046     		mov	r0, r6
 389 02a6 3946     		mov	r1, r7
 390 02a8 FFF7FEFF 		bl	__aeabi_dadd
 391              	.LVL38:
 392 02ac 0646     		mov	r6, r0
 393 02ae 0F46     		mov	r7, r1
 394 02b0 688B     		ldrh	r0, [r5, #26]
 395 02b2 FFF7FEFF 		bl	__aeabi_ui2d
 396              	.LVL39:
 397 02b6 D4E91A23 		ldrd	r2, [r4, #104]
 398 02ba FFF7FEFF 		bl	__aeabi_dmul
 399              	.LVL40:
 400 02be 0246     		mov	r2, r0
 401 02c0 0B46     		mov	r3, r1
 402 02c2 3046     		mov	r0, r6
 403 02c4 3946     		mov	r1, r7
 404 02c6 FFF7FEFF 		bl	__aeabi_dadd
 405              	.LVL41:
 406 02ca 0646     		mov	r6, r0
 407 02cc 0F46     		mov	r7, r1
 408 02ce A88B     		ldrh	r0, [r5, #28]
 409 02d0 FFF7FEFF 		bl	__aeabi_ui2d
 410              	.LVL42:
 411 02d4 D4E91C23 		ldrd	r2, [r4, #112]
 412 02d8 FFF7FEFF 		bl	__aeabi_dmul
 413              	.LVL43:
 414 02dc 0246     		mov	r2, r0
 415 02de 0B46     		mov	r3, r1
 416 02e0 3046     		mov	r0, r6
 417 02e2 3946     		mov	r1, r7
 418 02e4 FFF7FEFF 		bl	__aeabi_dadd
 419              	.LVL44:
 420 02e8 0646     		mov	r6, r0
 421 02ea 0F46     		mov	r7, r1
 422 02ec E88B     		ldrh	r0, [r5, #30]
 423 02ee FFF7FEFF 		bl	__aeabi_ui2d
 424              	.LVL45:
 425 02f2 D4E91E23 		ldrd	r2, [r4, #120]
 426 02f6 FFF7FEFF 		bl	__aeabi_dmul
 427              	.LVL46:
 428 02fa 0246     		mov	r2, r0
 429 02fc 0B46     		mov	r3, r1
 430 02fe 3046     		mov	r0, r6
ARM GAS  C:\Users\s_bej\AppData\Local\Temp\cczIgxd7.s 			page 10


 431 0300 3946     		mov	r1, r7
 432 0302 FFF7FEFF 		bl	__aeabi_dadd
 433              	.LVL47:
 434 0306 05E0     		b	.L7
 435              	.L8:
 436              		.align	2
 437              	.L6:
 438 0308 00000000 		.word	x
 439 030c 00000000 		.word	filtro
 440 0310 00000000 		.word	h
 441              	.L7:
 442 0314 0646     		mov	r6, r0
 443 0316 0F46     		mov	r7, r1
 444 0318 288C     		ldrh	r0, [r5, #32]
 445 031a FFF7FEFF 		bl	__aeabi_ui2d
 446              	.LVL48:
 447 031e D4E92023 		ldrd	r2, [r4, #128]
 448 0322 FFF7FEFF 		bl	__aeabi_dmul
 449              	.LVL49:
 450 0326 0246     		mov	r2, r0
 451 0328 0B46     		mov	r3, r1
 452 032a 3046     		mov	r0, r6
 453 032c 3946     		mov	r1, r7
 454 032e FFF7FEFF 		bl	__aeabi_dadd
 455              	.LVL50:
 456 0332 0646     		mov	r6, r0
 457 0334 0F46     		mov	r7, r1
 458 0336 688C     		ldrh	r0, [r5, #34]
 459 0338 FFF7FEFF 		bl	__aeabi_ui2d
 460              	.LVL51:
 461 033c D4E92223 		ldrd	r2, [r4, #136]
 462 0340 FFF7FEFF 		bl	__aeabi_dmul
 463              	.LVL52:
 464 0344 0246     		mov	r2, r0
 465 0346 0B46     		mov	r3, r1
 466 0348 3046     		mov	r0, r6
 467 034a 3946     		mov	r1, r7
 468 034c FFF7FEFF 		bl	__aeabi_dadd
 469              	.LVL53:
 470 0350 0646     		mov	r6, r0
 471 0352 0F46     		mov	r7, r1
 472 0354 A88C     		ldrh	r0, [r5, #36]
 473 0356 FFF7FEFF 		bl	__aeabi_ui2d
 474              	.LVL54:
 475 035a D4E92423 		ldrd	r2, [r4, #144]
 476 035e FFF7FEFF 		bl	__aeabi_dmul
 477              	.LVL55:
 478 0362 0246     		mov	r2, r0
 479 0364 0B46     		mov	r3, r1
 480 0366 3046     		mov	r0, r6
 481 0368 3946     		mov	r1, r7
 482 036a FFF7FEFF 		bl	__aeabi_dadd
 483              	.LVL56:
 484 036e 0646     		mov	r6, r0
 485 0370 0F46     		mov	r7, r1
 486 0372 E88C     		ldrh	r0, [r5, #38]
 487 0374 FFF7FEFF 		bl	__aeabi_ui2d
ARM GAS  C:\Users\s_bej\AppData\Local\Temp\cczIgxd7.s 			page 11


 488              	.LVL57:
 489 0378 D4E92623 		ldrd	r2, [r4, #152]
 490 037c FFF7FEFF 		bl	__aeabi_dmul
 491              	.LVL58:
 492 0380 0246     		mov	r2, r0
 493 0382 0B46     		mov	r3, r1
 494 0384 3046     		mov	r0, r6
 495 0386 3946     		mov	r1, r7
 496 0388 FFF7FEFF 		bl	__aeabi_dadd
 497              	.LVL59:
 498 038c 0646     		mov	r6, r0
 499 038e 0F46     		mov	r7, r1
 500 0390 288D     		ldrh	r0, [r5, #40]
 501 0392 FFF7FEFF 		bl	__aeabi_ui2d
 502              	.LVL60:
 503 0396 D4E92823 		ldrd	r2, [r4, #160]
 504 039a FFF7FEFF 		bl	__aeabi_dmul
 505              	.LVL61:
 506 039e 0246     		mov	r2, r0
 507 03a0 0B46     		mov	r3, r1
 508 03a2 3046     		mov	r0, r6
 509 03a4 3946     		mov	r1, r7
 510 03a6 FFF7FEFF 		bl	__aeabi_dadd
 511              	.LVL62:
 512 03aa 0646     		mov	r6, r0
 513 03ac 0F46     		mov	r7, r1
 514 03ae 688D     		ldrh	r0, [r5, #42]
 515 03b0 FFF7FEFF 		bl	__aeabi_ui2d
 516              	.LVL63:
 517 03b4 D4E92A23 		ldrd	r2, [r4, #168]
 518 03b8 FFF7FEFF 		bl	__aeabi_dmul
 519              	.LVL64:
 520 03bc 0246     		mov	r2, r0
 521 03be 0B46     		mov	r3, r1
 522 03c0 3046     		mov	r0, r6
 523 03c2 3946     		mov	r1, r7
 524 03c4 FFF7FEFF 		bl	__aeabi_dadd
 525              	.LVL65:
 526 03c8 0646     		mov	r6, r0
 527 03ca 0F46     		mov	r7, r1
 528 03cc A88D     		ldrh	r0, [r5, #44]
 529 03ce FFF7FEFF 		bl	__aeabi_ui2d
 530              	.LVL66:
 531 03d2 D4E92C23 		ldrd	r2, [r4, #176]
 532 03d6 FFF7FEFF 		bl	__aeabi_dmul
 533              	.LVL67:
 534 03da 0246     		mov	r2, r0
 535 03dc 0B46     		mov	r3, r1
 536 03de 3046     		mov	r0, r6
 537 03e0 3946     		mov	r1, r7
 538 03e2 FFF7FEFF 		bl	__aeabi_dadd
 539              	.LVL68:
 540 03e6 0646     		mov	r6, r0
 541 03e8 0F46     		mov	r7, r1
 542 03ea E88D     		ldrh	r0, [r5, #46]
 543 03ec FFF7FEFF 		bl	__aeabi_ui2d
 544              	.LVL69:
ARM GAS  C:\Users\s_bej\AppData\Local\Temp\cczIgxd7.s 			page 12


 545 03f0 D4E92E23 		ldrd	r2, [r4, #184]
 546 03f4 FFF7FEFF 		bl	__aeabi_dmul
 547              	.LVL70:
 548 03f8 0246     		mov	r2, r0
 549 03fa 0B46     		mov	r3, r1
 550 03fc 3046     		mov	r0, r6
 551 03fe 3946     		mov	r1, r7
 552 0400 FFF7FEFF 		bl	__aeabi_dadd
 553              	.LVL71:
 554 0404 0646     		mov	r6, r0
 555 0406 0F46     		mov	r7, r1
 556 0408 288E     		ldrh	r0, [r5, #48]
 557 040a FFF7FEFF 		bl	__aeabi_ui2d
 558              	.LVL72:
 559 040e D4E93023 		ldrd	r2, [r4, #192]
 560 0412 FFF7FEFF 		bl	__aeabi_dmul
 561              	.LVL73:
 562 0416 0246     		mov	r2, r0
 563 0418 0B46     		mov	r3, r1
 564 041a 3046     		mov	r0, r6
 565 041c 3946     		mov	r1, r7
 566 041e FFF7FEFF 		bl	__aeabi_dadd
 567              	.LVL74:
 568 0422 0646     		mov	r6, r0
 569 0424 0F46     		mov	r7, r1
 570 0426 688E     		ldrh	r0, [r5, #50]
 571 0428 FFF7FEFF 		bl	__aeabi_ui2d
 572              	.LVL75:
 573 042c D4E93223 		ldrd	r2, [r4, #200]
 574 0430 FFF7FEFF 		bl	__aeabi_dmul
 575              	.LVL76:
 576 0434 0246     		mov	r2, r0
 577 0436 0B46     		mov	r3, r1
 578 0438 3046     		mov	r0, r6
 579 043a 3946     		mov	r1, r7
 580 043c FFF7FEFF 		bl	__aeabi_dadd
 581              	.LVL77:
 582 0440 0646     		mov	r6, r0
 583 0442 0F46     		mov	r7, r1
 584 0444 A88E     		ldrh	r0, [r5, #52]
 585 0446 FFF7FEFF 		bl	__aeabi_ui2d
 586              	.LVL78:
 587 044a D4E93423 		ldrd	r2, [r4, #208]
 588 044e FFF7FEFF 		bl	__aeabi_dmul
 589              	.LVL79:
 590 0452 0246     		mov	r2, r0
 591 0454 0B46     		mov	r3, r1
 592 0456 3046     		mov	r0, r6
 593 0458 3946     		mov	r1, r7
 594 045a FFF7FEFF 		bl	__aeabi_dadd
 595              	.LVL80:
 596 045e 0646     		mov	r6, r0
 597 0460 0F46     		mov	r7, r1
 598 0462 E88E     		ldrh	r0, [r5, #54]
 599 0464 FFF7FEFF 		bl	__aeabi_ui2d
 600              	.LVL81:
 601 0468 D4E93623 		ldrd	r2, [r4, #216]
ARM GAS  C:\Users\s_bej\AppData\Local\Temp\cczIgxd7.s 			page 13


 602 046c FFF7FEFF 		bl	__aeabi_dmul
 603              	.LVL82:
 604 0470 0246     		mov	r2, r0
 605 0472 0B46     		mov	r3, r1
 606 0474 3046     		mov	r0, r6
 607 0476 3946     		mov	r1, r7
 608 0478 FFF7FEFF 		bl	__aeabi_dadd
 609              	.LVL83:
 610 047c 0646     		mov	r6, r0
 611 047e 0F46     		mov	r7, r1
 612 0480 288F     		ldrh	r0, [r5, #56]
 613 0482 FFF7FEFF 		bl	__aeabi_ui2d
 614              	.LVL84:
 615 0486 D4E93823 		ldrd	r2, [r4, #224]
 616 048a FFF7FEFF 		bl	__aeabi_dmul
 617              	.LVL85:
 618 048e 0246     		mov	r2, r0
 619 0490 0B46     		mov	r3, r1
 620 0492 3046     		mov	r0, r6
 621 0494 3946     		mov	r1, r7
 622 0496 FFF7FEFF 		bl	__aeabi_dadd
 623              	.LVL86:
 624 049a 0646     		mov	r6, r0
 625 049c 0F46     		mov	r7, r1
 626 049e 688F     		ldrh	r0, [r5, #58]
 627 04a0 FFF7FEFF 		bl	__aeabi_ui2d
 628              	.LVL87:
 629 04a4 D4E93A23 		ldrd	r2, [r4, #232]
 630 04a8 FFF7FEFF 		bl	__aeabi_dmul
 631              	.LVL88:
 632 04ac 0246     		mov	r2, r0
 633 04ae 0B46     		mov	r3, r1
 634 04b0 3046     		mov	r0, r6
 635 04b2 3946     		mov	r1, r7
 636 04b4 FFF7FEFF 		bl	__aeabi_dadd
 637              	.LVL89:
 638 04b8 0646     		mov	r6, r0
 639 04ba 0F46     		mov	r7, r1
 640 04bc A88F     		ldrh	r0, [r5, #60]
 641 04be FFF7FEFF 		bl	__aeabi_ui2d
 642              	.LVL90:
 643 04c2 D4E93C23 		ldrd	r2, [r4, #240]
 644 04c6 FFF7FEFF 		bl	__aeabi_dmul
 645              	.LVL91:
 646 04ca 0246     		mov	r2, r0
 647 04cc 0B46     		mov	r3, r1
 648 04ce 3046     		mov	r0, r6
 649 04d0 3946     		mov	r1, r7
 650 04d2 FFF7FEFF 		bl	__aeabi_dadd
 651              	.LVL92:
 652 04d6 0646     		mov	r6, r0
 653 04d8 0F46     		mov	r7, r1
 654 04da E88F     		ldrh	r0, [r5, #62]
 655 04dc FFF7FEFF 		bl	__aeabi_ui2d
 656              	.LVL93:
 657 04e0 D4E93E23 		ldrd	r2, [r4, #248]
 658 04e4 FFF7FEFF 		bl	__aeabi_dmul
ARM GAS  C:\Users\s_bej\AppData\Local\Temp\cczIgxd7.s 			page 14


 659              	.LVL94:
 660 04e8 0246     		mov	r2, r0
 661 04ea 0B46     		mov	r3, r1
 662 04ec 3046     		mov	r0, r6
 663 04ee 3946     		mov	r1, r7
 664 04f0 FFF7FEFF 		bl	__aeabi_dadd
 665              	.LVL95:
 666 04f4 0646     		mov	r6, r0
 667 04f6 0F46     		mov	r7, r1
 668 04f8 B5F84000 		ldrh	r0, [r5, #64]
 669 04fc FFF7FEFF 		bl	__aeabi_ui2d
 670              	.LVL96:
 671 0500 04F58073 		add	r3, r4, #256
 672 0504 D3E90023 		ldrd	r2, [r3]
 673 0508 FFF7FEFF 		bl	__aeabi_dmul
 674              	.LVL97:
 675 050c 0246     		mov	r2, r0
 676 050e 0B46     		mov	r3, r1
 677 0510 3046     		mov	r0, r6
 678 0512 3946     		mov	r1, r7
 679 0514 FFF7FEFF 		bl	__aeabi_dadd
 680              	.LVL98:
 681 0518 0646     		mov	r6, r0
 682 051a 0F46     		mov	r7, r1
 683 051c B5F84200 		ldrh	r0, [r5, #66]
 684 0520 FFF7FEFF 		bl	__aeabi_ui2d
 685              	.LVL99:
 686 0524 04F58473 		add	r3, r4, #264
 687 0528 D3E90023 		ldrd	r2, [r3]
 688 052c FFF7FEFF 		bl	__aeabi_dmul
 689              	.LVL100:
 690 0530 0246     		mov	r2, r0
 691 0532 0B46     		mov	r3, r1
 692 0534 3046     		mov	r0, r6
 693 0536 3946     		mov	r1, r7
 694 0538 FFF7FEFF 		bl	__aeabi_dadd
 695              	.LVL101:
 696 053c 0646     		mov	r6, r0
 697 053e 0F46     		mov	r7, r1
 698 0540 B5F84400 		ldrh	r0, [r5, #68]
 699 0544 FFF7FEFF 		bl	__aeabi_ui2d
 700              	.LVL102:
 701 0548 04F58873 		add	r3, r4, #272
 702 054c D3E90023 		ldrd	r2, [r3]
 703 0550 FFF7FEFF 		bl	__aeabi_dmul
 704              	.LVL103:
 705 0554 0246     		mov	r2, r0
 706 0556 0B46     		mov	r3, r1
 707 0558 3046     		mov	r0, r6
 708 055a 3946     		mov	r1, r7
 709 055c FFF7FEFF 		bl	__aeabi_dadd
 710              	.LVL104:
 711 0560 0646     		mov	r6, r0
 712 0562 0F46     		mov	r7, r1
 713 0564 B5F84600 		ldrh	r0, [r5, #70]
 714 0568 FFF7FEFF 		bl	__aeabi_ui2d
 715              	.LVL105:
ARM GAS  C:\Users\s_bej\AppData\Local\Temp\cczIgxd7.s 			page 15


 716 056c 04F58C73 		add	r3, r4, #280
 717 0570 D3E90023 		ldrd	r2, [r3]
 718 0574 FFF7FEFF 		bl	__aeabi_dmul
 719              	.LVL106:
 720 0578 0246     		mov	r2, r0
 721 057a 0B46     		mov	r3, r1
 722 057c 3046     		mov	r0, r6
 723 057e 3946     		mov	r1, r7
 724 0580 FFF7FEFF 		bl	__aeabi_dadd
 725              	.LVL107:
 726 0584 0646     		mov	r6, r0
 727 0586 0F46     		mov	r7, r1
 728 0588 B5F84800 		ldrh	r0, [r5, #72]
 729 058c FFF7FEFF 		bl	__aeabi_ui2d
 730              	.LVL108:
 731 0590 04F59073 		add	r3, r4, #288
 732 0594 D3E90023 		ldrd	r2, [r3]
 733 0598 FFF7FEFF 		bl	__aeabi_dmul
 734              	.LVL109:
 735 059c 0246     		mov	r2, r0
 736 059e 0B46     		mov	r3, r1
 737 05a0 3046     		mov	r0, r6
 738 05a2 3946     		mov	r1, r7
 739 05a4 FFF7FEFF 		bl	__aeabi_dadd
 740              	.LVL110:
 741 05a8 0646     		mov	r6, r0
 742 05aa 0F46     		mov	r7, r1
 743 05ac B5F84A00 		ldrh	r0, [r5, #74]
 744 05b0 FFF7FEFF 		bl	__aeabi_ui2d
 745              	.LVL111:
 746 05b4 04F59473 		add	r3, r4, #296
 747 05b8 D3E90023 		ldrd	r2, [r3]
 748 05bc FFF7FEFF 		bl	__aeabi_dmul
 749              	.LVL112:
 750 05c0 0246     		mov	r2, r0
 751 05c2 0B46     		mov	r3, r1
 752 05c4 3046     		mov	r0, r6
 753 05c6 3946     		mov	r1, r7
 754 05c8 FFF7FEFF 		bl	__aeabi_dadd
 755              	.LVL113:
 756 05cc 0646     		mov	r6, r0
 757 05ce 0F46     		mov	r7, r1
 758 05d0 B5F84C00 		ldrh	r0, [r5, #76]
 759 05d4 FFF7FEFF 		bl	__aeabi_ui2d
 760              	.LVL114:
 761 05d8 04F59873 		add	r3, r4, #304
 762 05dc D3E90023 		ldrd	r2, [r3]
 763 05e0 FFF7FEFF 		bl	__aeabi_dmul
 764              	.LVL115:
 765 05e4 0246     		mov	r2, r0
 766 05e6 0B46     		mov	r3, r1
 767 05e8 3046     		mov	r0, r6
 768 05ea 3946     		mov	r1, r7
 769 05ec FFF7FEFF 		bl	__aeabi_dadd
 770              	.LVL116:
 771 05f0 0646     		mov	r6, r0
 772 05f2 0F46     		mov	r7, r1
ARM GAS  C:\Users\s_bej\AppData\Local\Temp\cczIgxd7.s 			page 16


 773 05f4 B5F84E00 		ldrh	r0, [r5, #78]
 774 05f8 FFF7FEFF 		bl	__aeabi_ui2d
 775              	.LVL117:
 776 05fc 04F59C73 		add	r3, r4, #312
 777 0600 D3E90023 		ldrd	r2, [r3]
 778 0604 FFF7FEFF 		bl	__aeabi_dmul
 779              	.LVL118:
 780 0608 0246     		mov	r2, r0
 781 060a 0B46     		mov	r3, r1
 782 060c 3046     		mov	r0, r6
 783 060e 3946     		mov	r1, r7
 784 0610 FFF7FEFF 		bl	__aeabi_dadd
 785              	.LVL119:
 786 0614 0646     		mov	r6, r0
 787 0616 0F46     		mov	r7, r1
 788 0618 B5F85000 		ldrh	r0, [r5, #80]
 789 061c FFF7FEFF 		bl	__aeabi_ui2d
 790              	.LVL120:
 791 0620 04F5A073 		add	r3, r4, #320
 792 0624 D3E90023 		ldrd	r2, [r3]
 793 0628 FFF7FEFF 		bl	__aeabi_dmul
 794              	.LVL121:
 795 062c 0246     		mov	r2, r0
 796 062e 0B46     		mov	r3, r1
 797 0630 3046     		mov	r0, r6
 798 0632 3946     		mov	r1, r7
 799 0634 FFF7FEFF 		bl	__aeabi_dadd
 800              	.LVL122:
 801 0638 0646     		mov	r6, r0
 802 063a 0F46     		mov	r7, r1
 803 063c B5F85200 		ldrh	r0, [r5, #82]
 804 0640 FFF7FEFF 		bl	__aeabi_ui2d
 805              	.LVL123:
 806 0644 04F5A473 		add	r3, r4, #328
 807 0648 D3E90023 		ldrd	r2, [r3]
 808 064c FFF7FEFF 		bl	__aeabi_dmul
 809              	.LVL124:
 810 0650 0246     		mov	r2, r0
 811 0652 0B46     		mov	r3, r1
 812 0654 3046     		mov	r0, r6
 813 0656 3946     		mov	r1, r7
 814 0658 FFF7FEFF 		bl	__aeabi_dadd
 815              	.LVL125:
 816 065c 0646     		mov	r6, r0
 817 065e 0F46     		mov	r7, r1
 818 0660 B5F85400 		ldrh	r0, [r5, #84]
 819 0664 FFF7FEFF 		bl	__aeabi_ui2d
 820              	.LVL126:
 821 0668 04F5A873 		add	r3, r4, #336
 822 066c D3E90023 		ldrd	r2, [r3]
 823 0670 FFF7FEFF 		bl	__aeabi_dmul
 824              	.LVL127:
 825 0674 0246     		mov	r2, r0
 826 0676 0B46     		mov	r3, r1
 827 0678 3046     		mov	r0, r6
 828 067a 3946     		mov	r1, r7
 829 067c FFF7FEFF 		bl	__aeabi_dadd
ARM GAS  C:\Users\s_bej\AppData\Local\Temp\cczIgxd7.s 			page 17


 830              	.LVL128:
 831 0680 0646     		mov	r6, r0
 832 0682 0F46     		mov	r7, r1
 833 0684 B5F85600 		ldrh	r0, [r5, #86]
 834 0688 FFF7FEFF 		bl	__aeabi_ui2d
 835              	.LVL129:
 836 068c 04F5AC73 		add	r3, r4, #344
 837 0690 D3E90023 		ldrd	r2, [r3]
 838 0694 FFF7FEFF 		bl	__aeabi_dmul
 839              	.LVL130:
 840 0698 0246     		mov	r2, r0
 841 069a 0B46     		mov	r3, r1
 842 069c 3046     		mov	r0, r6
 843 069e 3946     		mov	r1, r7
 844 06a0 FFF7FEFF 		bl	__aeabi_dadd
 845              	.LVL131:
 846 06a4 0646     		mov	r6, r0
 847 06a6 0F46     		mov	r7, r1
 848 06a8 B5F85800 		ldrh	r0, [r5, #88]
 849 06ac FFF7FEFF 		bl	__aeabi_ui2d
 850              	.LVL132:
 851 06b0 04F5B073 		add	r3, r4, #352
 852 06b4 D3E90023 		ldrd	r2, [r3]
 853 06b8 FFF7FEFF 		bl	__aeabi_dmul
 854              	.LVL133:
 855 06bc 0246     		mov	r2, r0
 856 06be 0B46     		mov	r3, r1
 857 06c0 3046     		mov	r0, r6
 858 06c2 3946     		mov	r1, r7
 859 06c4 FFF7FEFF 		bl	__aeabi_dadd
 860              	.LVL134:
 861 06c8 0646     		mov	r6, r0
 862 06ca 0F46     		mov	r7, r1
 863 06cc B5F85A00 		ldrh	r0, [r5, #90]
 864 06d0 FFF7FEFF 		bl	__aeabi_ui2d
 865              	.LVL135:
 866 06d4 04F5B473 		add	r3, r4, #360
 867 06d8 D3E90023 		ldrd	r2, [r3]
 868 06dc FFF7FEFF 		bl	__aeabi_dmul
 869              	.LVL136:
 870 06e0 0246     		mov	r2, r0
 871 06e2 0B46     		mov	r3, r1
 872 06e4 3046     		mov	r0, r6
 873 06e6 3946     		mov	r1, r7
 874 06e8 FFF7FEFF 		bl	__aeabi_dadd
 875              	.LVL137:
 876 06ec 0646     		mov	r6, r0
 877 06ee 0F46     		mov	r7, r1
 878 06f0 B5F85C00 		ldrh	r0, [r5, #92]
 879 06f4 FFF7FEFF 		bl	__aeabi_ui2d
 880              	.LVL138:
 881 06f8 04F5B873 		add	r3, r4, #368
 882 06fc D3E90023 		ldrd	r2, [r3]
 883 0700 FFF7FEFF 		bl	__aeabi_dmul
 884              	.LVL139:
 885 0704 0246     		mov	r2, r0
 886 0706 0B46     		mov	r3, r1
ARM GAS  C:\Users\s_bej\AppData\Local\Temp\cczIgxd7.s 			page 18


 887 0708 3046     		mov	r0, r6
 888 070a 3946     		mov	r1, r7
 889 070c FFF7FEFF 		bl	__aeabi_dadd
 890              	.LVL140:
 891 0710 0646     		mov	r6, r0
 892 0712 0F46     		mov	r7, r1
 893 0714 B5F85E00 		ldrh	r0, [r5, #94]
 894 0718 FFF7FEFF 		bl	__aeabi_ui2d
 895              	.LVL141:
 896 071c 04F5BC73 		add	r3, r4, #376
 897 0720 D3E90023 		ldrd	r2, [r3]
 898 0724 FFF7FEFF 		bl	__aeabi_dmul
 899              	.LVL142:
 900 0728 0246     		mov	r2, r0
 901 072a 0B46     		mov	r3, r1
 902 072c 3046     		mov	r0, r6
 903 072e 3946     		mov	r1, r7
 904 0730 FFF7FEFF 		bl	__aeabi_dadd
 905              	.LVL143:
 906 0734 0646     		mov	r6, r0
 907 0736 0F46     		mov	r7, r1
 908 0738 B5F86000 		ldrh	r0, [r5, #96]
 909 073c FFF7FEFF 		bl	__aeabi_ui2d
 910              	.LVL144:
 911 0740 04F5C073 		add	r3, r4, #384
 912 0744 D3E90023 		ldrd	r2, [r3]
 913 0748 FFF7FEFF 		bl	__aeabi_dmul
 914              	.LVL145:
 915 074c 0246     		mov	r2, r0
 916 074e 0B46     		mov	r3, r1
 917 0750 3046     		mov	r0, r6
 918 0752 3946     		mov	r1, r7
 919 0754 FFF7FEFF 		bl	__aeabi_dadd
 920              	.LVL146:
 921 0758 0646     		mov	r6, r0
 922 075a 0F46     		mov	r7, r1
 923 075c B5F86200 		ldrh	r0, [r5, #98]
 924 0760 FFF7FEFF 		bl	__aeabi_ui2d
 925              	.LVL147:
 926 0764 04F5C473 		add	r3, r4, #392
 927 0768 D3E90023 		ldrd	r2, [r3]
 928 076c FFF7FEFF 		bl	__aeabi_dmul
 929              	.LVL148:
 930 0770 0246     		mov	r2, r0
 931 0772 0B46     		mov	r3, r1
 932 0774 3046     		mov	r0, r6
 933 0776 3946     		mov	r1, r7
 934 0778 FFF7FEFF 		bl	__aeabi_dadd
 935              	.LVL149:
 936 077c 0646     		mov	r6, r0
 937 077e 0F46     		mov	r7, r1
 938 0780 B5F86400 		ldrh	r0, [r5, #100]
 939 0784 FFF7FEFF 		bl	__aeabi_ui2d
 940              	.LVL150:
 941 0788 04F5C874 		add	r4, r4, #400
 942 078c D4E90023 		ldrd	r2, [r4]
 943 0790 FFF7FEFF 		bl	__aeabi_dmul
ARM GAS  C:\Users\s_bej\AppData\Local\Temp\cczIgxd7.s 			page 19


 944              	.LVL151:
 945 0794 0246     		mov	r2, r0
 946 0796 0B46     		mov	r3, r1
 947 0798 3046     		mov	r0, r6
 948 079a 3946     		mov	r1, r7
 949 079c FFF7FEFF 		bl	__aeabi_dadd
 950              	.LVL152:
  84:main.c        ****         y+=512;
 951              		.loc 1 84 0
 952 07a0 0022     		movs	r2, #0
 953 07a2 4FF08143 		mov	r3, #1082130432
 954 07a6 FFF7FEFF 		bl	__aeabi_dadd
 955              	.LVL153:
  85:main.c        ****         DAC_SetValue((int)trunc(y));
 956              		.loc 1 85 0
 957 07aa FFF7FEFF 		bl	__aeabi_d2iz
 958              	.LVL154:
 959 07ae 80B2     		uxth	r0, r0
 960 07b0 FFF7FEFF 		bl	DAC_SetValue
 961              	.LVL155:
 962              	.LBE2:
  82:main.c        ****     {
 963              		.loc 1 82 0
 964 07b4 F8BD     		pop	{r3, r4, r5, r6, r7, pc}
 965              	.L3:
 966              	.LBB3:
  86:main.c        ****     }
  87:main.c        ****     else
  88:main.c        ****     {
  89:main.c        ****         int y = (double)x[0]*h[0]+(double)x[1]*h[1]+(double)x[2]*h[2]+(double)x[3]*h[3]+(double)x[4
 967              		.loc 1 89 0
 968 07b6 FFF7FEFF 		bl	__aeabi_ui2d
 969              	.LVL156:
 970 07ba D24C     		ldr	r4, .L9
 971 07bc D4E90023 		ldrd	r2, [r4]
 972 07c0 FFF7FEFF 		bl	__aeabi_dmul
 973              	.LVL157:
 974 07c4 0646     		mov	r6, r0
 975 07c6 0F46     		mov	r7, r1
 976 07c8 CF4D     		ldr	r5, .L9+4
 977 07ca 6888     		ldrh	r0, [r5, #2]
 978 07cc FFF7FEFF 		bl	__aeabi_ui2d
 979              	.LVL158:
 980 07d0 D4E90223 		ldrd	r2, [r4, #8]
 981 07d4 FFF7FEFF 		bl	__aeabi_dmul
 982              	.LVL159:
 983 07d8 0246     		mov	r2, r0
 984 07da 0B46     		mov	r3, r1
 985 07dc 3046     		mov	r0, r6
 986 07de 3946     		mov	r1, r7
 987 07e0 FFF7FEFF 		bl	__aeabi_dadd
 988              	.LVL160:
 989 07e4 0646     		mov	r6, r0
 990 07e6 0F46     		mov	r7, r1
 991 07e8 A888     		ldrh	r0, [r5, #4]
 992 07ea FFF7FEFF 		bl	__aeabi_ui2d
 993              	.LVL161:
ARM GAS  C:\Users\s_bej\AppData\Local\Temp\cczIgxd7.s 			page 20


 994 07ee D4E90423 		ldrd	r2, [r4, #16]
 995 07f2 FFF7FEFF 		bl	__aeabi_dmul
 996              	.LVL162:
 997 07f6 0246     		mov	r2, r0
 998 07f8 0B46     		mov	r3, r1
 999 07fa 3046     		mov	r0, r6
 1000 07fc 3946     		mov	r1, r7
 1001 07fe FFF7FEFF 		bl	__aeabi_dadd
 1002              	.LVL163:
 1003 0802 0646     		mov	r6, r0
 1004 0804 0F46     		mov	r7, r1
 1005 0806 E888     		ldrh	r0, [r5, #6]
 1006 0808 FFF7FEFF 		bl	__aeabi_ui2d
 1007              	.LVL164:
 1008 080c D4E90623 		ldrd	r2, [r4, #24]
 1009 0810 FFF7FEFF 		bl	__aeabi_dmul
 1010              	.LVL165:
 1011 0814 0246     		mov	r2, r0
 1012 0816 0B46     		mov	r3, r1
 1013 0818 3046     		mov	r0, r6
 1014 081a 3946     		mov	r1, r7
 1015 081c FFF7FEFF 		bl	__aeabi_dadd
 1016              	.LVL166:
 1017 0820 0646     		mov	r6, r0
 1018 0822 0F46     		mov	r7, r1
 1019 0824 2889     		ldrh	r0, [r5, #8]
 1020 0826 FFF7FEFF 		bl	__aeabi_ui2d
 1021              	.LVL167:
 1022 082a D4E90823 		ldrd	r2, [r4, #32]
 1023 082e FFF7FEFF 		bl	__aeabi_dmul
 1024              	.LVL168:
 1025 0832 0246     		mov	r2, r0
 1026 0834 0B46     		mov	r3, r1
 1027 0836 3046     		mov	r0, r6
 1028 0838 3946     		mov	r1, r7
 1029 083a FFF7FEFF 		bl	__aeabi_dadd
 1030              	.LVL169:
 1031 083e 0646     		mov	r6, r0
 1032 0840 0F46     		mov	r7, r1
 1033 0842 6889     		ldrh	r0, [r5, #10]
 1034 0844 FFF7FEFF 		bl	__aeabi_ui2d
 1035              	.LVL170:
 1036 0848 D4E90A23 		ldrd	r2, [r4, #40]
 1037 084c FFF7FEFF 		bl	__aeabi_dmul
 1038              	.LVL171:
 1039 0850 0246     		mov	r2, r0
 1040 0852 0B46     		mov	r3, r1
 1041 0854 3046     		mov	r0, r6
 1042 0856 3946     		mov	r1, r7
 1043 0858 FFF7FEFF 		bl	__aeabi_dadd
 1044              	.LVL172:
 1045 085c 0646     		mov	r6, r0
 1046 085e 0F46     		mov	r7, r1
 1047 0860 A889     		ldrh	r0, [r5, #12]
 1048 0862 FFF7FEFF 		bl	__aeabi_ui2d
 1049              	.LVL173:
 1050 0866 D4E90C23 		ldrd	r2, [r4, #48]
ARM GAS  C:\Users\s_bej\AppData\Local\Temp\cczIgxd7.s 			page 21


 1051 086a FFF7FEFF 		bl	__aeabi_dmul
 1052              	.LVL174:
 1053 086e 0246     		mov	r2, r0
 1054 0870 0B46     		mov	r3, r1
 1055 0872 3046     		mov	r0, r6
 1056 0874 3946     		mov	r1, r7
 1057 0876 FFF7FEFF 		bl	__aeabi_dadd
 1058              	.LVL175:
 1059 087a 0646     		mov	r6, r0
 1060 087c 0F46     		mov	r7, r1
 1061 087e E889     		ldrh	r0, [r5, #14]
 1062 0880 FFF7FEFF 		bl	__aeabi_ui2d
 1063              	.LVL176:
 1064 0884 D4E90E23 		ldrd	r2, [r4, #56]
 1065 0888 FFF7FEFF 		bl	__aeabi_dmul
 1066              	.LVL177:
 1067 088c 0246     		mov	r2, r0
 1068 088e 0B46     		mov	r3, r1
 1069 0890 3046     		mov	r0, r6
 1070 0892 3946     		mov	r1, r7
 1071 0894 FFF7FEFF 		bl	__aeabi_dadd
 1072              	.LVL178:
 1073 0898 0646     		mov	r6, r0
 1074 089a 0F46     		mov	r7, r1
 1075 089c 288A     		ldrh	r0, [r5, #16]
 1076 089e FFF7FEFF 		bl	__aeabi_ui2d
 1077              	.LVL179:
 1078 08a2 D4E91023 		ldrd	r2, [r4, #64]
 1079 08a6 FFF7FEFF 		bl	__aeabi_dmul
 1080              	.LVL180:
 1081 08aa 0246     		mov	r2, r0
 1082 08ac 0B46     		mov	r3, r1
 1083 08ae 3046     		mov	r0, r6
 1084 08b0 3946     		mov	r1, r7
 1085 08b2 FFF7FEFF 		bl	__aeabi_dadd
 1086              	.LVL181:
 1087 08b6 0646     		mov	r6, r0
 1088 08b8 0F46     		mov	r7, r1
 1089 08ba 688A     		ldrh	r0, [r5, #18]
 1090 08bc FFF7FEFF 		bl	__aeabi_ui2d
 1091              	.LVL182:
 1092 08c0 D4E91223 		ldrd	r2, [r4, #72]
 1093 08c4 FFF7FEFF 		bl	__aeabi_dmul
 1094              	.LVL183:
 1095 08c8 0246     		mov	r2, r0
 1096 08ca 0B46     		mov	r3, r1
 1097 08cc 3046     		mov	r0, r6
 1098 08ce 3946     		mov	r1, r7
 1099 08d0 FFF7FEFF 		bl	__aeabi_dadd
 1100              	.LVL184:
 1101 08d4 0646     		mov	r6, r0
 1102 08d6 0F46     		mov	r7, r1
 1103 08d8 A88A     		ldrh	r0, [r5, #20]
 1104 08da FFF7FEFF 		bl	__aeabi_ui2d
 1105              	.LVL185:
 1106 08de D4E91423 		ldrd	r2, [r4, #80]
 1107 08e2 FFF7FEFF 		bl	__aeabi_dmul
ARM GAS  C:\Users\s_bej\AppData\Local\Temp\cczIgxd7.s 			page 22


 1108              	.LVL186:
 1109 08e6 0246     		mov	r2, r0
 1110 08e8 0B46     		mov	r3, r1
 1111 08ea 3046     		mov	r0, r6
 1112 08ec 3946     		mov	r1, r7
 1113 08ee FFF7FEFF 		bl	__aeabi_dadd
 1114              	.LVL187:
 1115 08f2 0646     		mov	r6, r0
 1116 08f4 0F46     		mov	r7, r1
 1117 08f6 E88A     		ldrh	r0, [r5, #22]
 1118 08f8 FFF7FEFF 		bl	__aeabi_ui2d
 1119              	.LVL188:
 1120 08fc D4E91623 		ldrd	r2, [r4, #88]
 1121 0900 FFF7FEFF 		bl	__aeabi_dmul
 1122              	.LVL189:
 1123 0904 0246     		mov	r2, r0
 1124 0906 0B46     		mov	r3, r1
 1125 0908 3046     		mov	r0, r6
 1126 090a 3946     		mov	r1, r7
 1127 090c FFF7FEFF 		bl	__aeabi_dadd
 1128              	.LVL190:
 1129 0910 0646     		mov	r6, r0
 1130 0912 0F46     		mov	r7, r1
 1131 0914 288B     		ldrh	r0, [r5, #24]
 1132 0916 FFF7FEFF 		bl	__aeabi_ui2d
 1133              	.LVL191:
 1134 091a D4E91823 		ldrd	r2, [r4, #96]
 1135 091e FFF7FEFF 		bl	__aeabi_dmul
 1136              	.LVL192:
 1137 0922 0246     		mov	r2, r0
 1138 0924 0B46     		mov	r3, r1
 1139 0926 3046     		mov	r0, r6
 1140 0928 3946     		mov	r1, r7
 1141 092a FFF7FEFF 		bl	__aeabi_dadd
 1142              	.LVL193:
 1143 092e 0646     		mov	r6, r0
 1144 0930 0F46     		mov	r7, r1
 1145 0932 688B     		ldrh	r0, [r5, #26]
 1146 0934 FFF7FEFF 		bl	__aeabi_ui2d
 1147              	.LVL194:
 1148 0938 D4E91A23 		ldrd	r2, [r4, #104]
 1149 093c FFF7FEFF 		bl	__aeabi_dmul
 1150              	.LVL195:
 1151 0940 0246     		mov	r2, r0
 1152 0942 0B46     		mov	r3, r1
 1153 0944 3046     		mov	r0, r6
 1154 0946 3946     		mov	r1, r7
 1155 0948 FFF7FEFF 		bl	__aeabi_dadd
 1156              	.LVL196:
 1157 094c 0646     		mov	r6, r0
 1158 094e 0F46     		mov	r7, r1
 1159 0950 A88B     		ldrh	r0, [r5, #28]
 1160 0952 FFF7FEFF 		bl	__aeabi_ui2d
 1161              	.LVL197:
 1162 0956 D4E91C23 		ldrd	r2, [r4, #112]
 1163 095a FFF7FEFF 		bl	__aeabi_dmul
 1164              	.LVL198:
ARM GAS  C:\Users\s_bej\AppData\Local\Temp\cczIgxd7.s 			page 23


 1165 095e 0246     		mov	r2, r0
 1166 0960 0B46     		mov	r3, r1
 1167 0962 3046     		mov	r0, r6
 1168 0964 3946     		mov	r1, r7
 1169 0966 FFF7FEFF 		bl	__aeabi_dadd
 1170              	.LVL199:
 1171 096a 0646     		mov	r6, r0
 1172 096c 0F46     		mov	r7, r1
 1173 096e E88B     		ldrh	r0, [r5, #30]
 1174 0970 FFF7FEFF 		bl	__aeabi_ui2d
 1175              	.LVL200:
 1176 0974 D4E91E23 		ldrd	r2, [r4, #120]
 1177 0978 FFF7FEFF 		bl	__aeabi_dmul
 1178              	.LVL201:
 1179 097c 0246     		mov	r2, r0
 1180 097e 0B46     		mov	r3, r1
 1181 0980 3046     		mov	r0, r6
 1182 0982 3946     		mov	r1, r7
 1183 0984 FFF7FEFF 		bl	__aeabi_dadd
 1184              	.LVL202:
 1185 0988 0646     		mov	r6, r0
 1186 098a 0F46     		mov	r7, r1
 1187 098c 288C     		ldrh	r0, [r5, #32]
 1188 098e FFF7FEFF 		bl	__aeabi_ui2d
 1189              	.LVL203:
 1190 0992 D4E92023 		ldrd	r2, [r4, #128]
 1191 0996 FFF7FEFF 		bl	__aeabi_dmul
 1192              	.LVL204:
 1193 099a 0246     		mov	r2, r0
 1194 099c 0B46     		mov	r3, r1
 1195 099e 3046     		mov	r0, r6
 1196 09a0 3946     		mov	r1, r7
 1197 09a2 FFF7FEFF 		bl	__aeabi_dadd
 1198              	.LVL205:
 1199 09a6 0646     		mov	r6, r0
 1200 09a8 0F46     		mov	r7, r1
 1201 09aa 688C     		ldrh	r0, [r5, #34]
 1202 09ac FFF7FEFF 		bl	__aeabi_ui2d
 1203              	.LVL206:
 1204 09b0 D4E92223 		ldrd	r2, [r4, #136]
 1205 09b4 FFF7FEFF 		bl	__aeabi_dmul
 1206              	.LVL207:
 1207 09b8 0246     		mov	r2, r0
 1208 09ba 0B46     		mov	r3, r1
 1209 09bc 3046     		mov	r0, r6
 1210 09be 3946     		mov	r1, r7
 1211 09c0 FFF7FEFF 		bl	__aeabi_dadd
 1212              	.LVL208:
 1213 09c4 0646     		mov	r6, r0
 1214 09c6 0F46     		mov	r7, r1
 1215 09c8 A88C     		ldrh	r0, [r5, #36]
 1216 09ca FFF7FEFF 		bl	__aeabi_ui2d
 1217              	.LVL209:
 1218 09ce D4E92423 		ldrd	r2, [r4, #144]
 1219 09d2 FFF7FEFF 		bl	__aeabi_dmul
 1220              	.LVL210:
 1221 09d6 0246     		mov	r2, r0
ARM GAS  C:\Users\s_bej\AppData\Local\Temp\cczIgxd7.s 			page 24


 1222 09d8 0B46     		mov	r3, r1
 1223 09da 3046     		mov	r0, r6
 1224 09dc 3946     		mov	r1, r7
 1225 09de FFF7FEFF 		bl	__aeabi_dadd
 1226              	.LVL211:
 1227 09e2 0646     		mov	r6, r0
 1228 09e4 0F46     		mov	r7, r1
 1229 09e6 E88C     		ldrh	r0, [r5, #38]
 1230 09e8 FFF7FEFF 		bl	__aeabi_ui2d
 1231              	.LVL212:
 1232 09ec D4E92623 		ldrd	r2, [r4, #152]
 1233 09f0 FFF7FEFF 		bl	__aeabi_dmul
 1234              	.LVL213:
 1235 09f4 0246     		mov	r2, r0
 1236 09f6 0B46     		mov	r3, r1
 1237 09f8 3046     		mov	r0, r6
 1238 09fa 3946     		mov	r1, r7
 1239 09fc FFF7FEFF 		bl	__aeabi_dadd
 1240              	.LVL214:
 1241 0a00 0646     		mov	r6, r0
 1242 0a02 0F46     		mov	r7, r1
 1243 0a04 288D     		ldrh	r0, [r5, #40]
 1244 0a06 FFF7FEFF 		bl	__aeabi_ui2d
 1245              	.LVL215:
 1246 0a0a D4E92823 		ldrd	r2, [r4, #160]
 1247 0a0e FFF7FEFF 		bl	__aeabi_dmul
 1248              	.LVL216:
 1249 0a12 0246     		mov	r2, r0
 1250 0a14 0B46     		mov	r3, r1
 1251 0a16 3046     		mov	r0, r6
 1252 0a18 3946     		mov	r1, r7
 1253 0a1a FFF7FEFF 		bl	__aeabi_dadd
 1254              	.LVL217:
 1255 0a1e 0646     		mov	r6, r0
 1256 0a20 0F46     		mov	r7, r1
 1257 0a22 688D     		ldrh	r0, [r5, #42]
 1258 0a24 FFF7FEFF 		bl	__aeabi_ui2d
 1259              	.LVL218:
 1260 0a28 D4E92A23 		ldrd	r2, [r4, #168]
 1261 0a2c FFF7FEFF 		bl	__aeabi_dmul
 1262              	.LVL219:
 1263 0a30 0246     		mov	r2, r0
 1264 0a32 0B46     		mov	r3, r1
 1265 0a34 3046     		mov	r0, r6
 1266 0a36 3946     		mov	r1, r7
 1267 0a38 FFF7FEFF 		bl	__aeabi_dadd
 1268              	.LVL220:
 1269 0a3c 0646     		mov	r6, r0
 1270 0a3e 0F46     		mov	r7, r1
 1271 0a40 A88D     		ldrh	r0, [r5, #44]
 1272 0a42 FFF7FEFF 		bl	__aeabi_ui2d
 1273              	.LVL221:
 1274 0a46 D4E92C23 		ldrd	r2, [r4, #176]
 1275 0a4a FFF7FEFF 		bl	__aeabi_dmul
 1276              	.LVL222:
 1277 0a4e 0246     		mov	r2, r0
 1278 0a50 0B46     		mov	r3, r1
ARM GAS  C:\Users\s_bej\AppData\Local\Temp\cczIgxd7.s 			page 25


 1279 0a52 3046     		mov	r0, r6
 1280 0a54 3946     		mov	r1, r7
 1281 0a56 FFF7FEFF 		bl	__aeabi_dadd
 1282              	.LVL223:
 1283 0a5a 0646     		mov	r6, r0
 1284 0a5c 0F46     		mov	r7, r1
 1285 0a5e E88D     		ldrh	r0, [r5, #46]
 1286 0a60 FFF7FEFF 		bl	__aeabi_ui2d
 1287              	.LVL224:
 1288 0a64 D4E92E23 		ldrd	r2, [r4, #184]
 1289 0a68 FFF7FEFF 		bl	__aeabi_dmul
 1290              	.LVL225:
 1291 0a6c 0246     		mov	r2, r0
 1292 0a6e 0B46     		mov	r3, r1
 1293 0a70 3046     		mov	r0, r6
 1294 0a72 3946     		mov	r1, r7
 1295 0a74 FFF7FEFF 		bl	__aeabi_dadd
 1296              	.LVL226:
 1297 0a78 0646     		mov	r6, r0
 1298 0a7a 0F46     		mov	r7, r1
 1299 0a7c 288E     		ldrh	r0, [r5, #48]
 1300 0a7e FFF7FEFF 		bl	__aeabi_ui2d
 1301              	.LVL227:
 1302 0a82 D4E93023 		ldrd	r2, [r4, #192]
 1303 0a86 FFF7FEFF 		bl	__aeabi_dmul
 1304              	.LVL228:
 1305 0a8a 0246     		mov	r2, r0
 1306 0a8c 0B46     		mov	r3, r1
 1307 0a8e 3046     		mov	r0, r6
 1308 0a90 3946     		mov	r1, r7
 1309 0a92 FFF7FEFF 		bl	__aeabi_dadd
 1310              	.LVL229:
 1311 0a96 0646     		mov	r6, r0
 1312 0a98 0F46     		mov	r7, r1
 1313 0a9a 688E     		ldrh	r0, [r5, #50]
 1314 0a9c FFF7FEFF 		bl	__aeabi_ui2d
 1315              	.LVL230:
 1316 0aa0 D4E93223 		ldrd	r2, [r4, #200]
 1317 0aa4 FFF7FEFF 		bl	__aeabi_dmul
 1318              	.LVL231:
 1319 0aa8 0246     		mov	r2, r0
 1320 0aaa 0B46     		mov	r3, r1
 1321 0aac 3046     		mov	r0, r6
 1322 0aae 3946     		mov	r1, r7
 1323 0ab0 FFF7FEFF 		bl	__aeabi_dadd
 1324              	.LVL232:
 1325 0ab4 0646     		mov	r6, r0
 1326 0ab6 0F46     		mov	r7, r1
 1327 0ab8 A88E     		ldrh	r0, [r5, #52]
 1328 0aba FFF7FEFF 		bl	__aeabi_ui2d
 1329              	.LVL233:
 1330 0abe D4E93423 		ldrd	r2, [r4, #208]
 1331 0ac2 FFF7FEFF 		bl	__aeabi_dmul
 1332              	.LVL234:
 1333 0ac6 0246     		mov	r2, r0
 1334 0ac8 0B46     		mov	r3, r1
 1335 0aca 3046     		mov	r0, r6
ARM GAS  C:\Users\s_bej\AppData\Local\Temp\cczIgxd7.s 			page 26


 1336 0acc 3946     		mov	r1, r7
 1337 0ace FFF7FEFF 		bl	__aeabi_dadd
 1338              	.LVL235:
 1339 0ad2 0646     		mov	r6, r0
 1340 0ad4 0F46     		mov	r7, r1
 1341 0ad6 E88E     		ldrh	r0, [r5, #54]
 1342 0ad8 FFF7FEFF 		bl	__aeabi_ui2d
 1343              	.LVL236:
 1344 0adc D4E93623 		ldrd	r2, [r4, #216]
 1345 0ae0 FFF7FEFF 		bl	__aeabi_dmul
 1346              	.LVL237:
 1347 0ae4 0246     		mov	r2, r0
 1348 0ae6 0B46     		mov	r3, r1
 1349 0ae8 3046     		mov	r0, r6
 1350 0aea 3946     		mov	r1, r7
 1351 0aec FFF7FEFF 		bl	__aeabi_dadd
 1352              	.LVL238:
 1353 0af0 0646     		mov	r6, r0
 1354 0af2 0F46     		mov	r7, r1
 1355 0af4 288F     		ldrh	r0, [r5, #56]
 1356 0af6 FFF7FEFF 		bl	__aeabi_ui2d
 1357              	.LVL239:
 1358 0afa D4E93823 		ldrd	r2, [r4, #224]
 1359 0afe FFF7FEFF 		bl	__aeabi_dmul
 1360              	.LVL240:
 1361 0b02 03E0     		b	.L10
 1362              	.L11:
 1363              		.align	2
 1364              	.L9:
 1365 0b04 00000000 		.word	h
 1366 0b08 00000000 		.word	x
 1367              	.L10:
 1368 0b0c 0246     		mov	r2, r0
 1369 0b0e 0B46     		mov	r3, r1
 1370 0b10 3046     		mov	r0, r6
 1371 0b12 3946     		mov	r1, r7
 1372 0b14 FFF7FEFF 		bl	__aeabi_dadd
 1373              	.LVL241:
 1374 0b18 0646     		mov	r6, r0
 1375 0b1a 0F46     		mov	r7, r1
 1376 0b1c 688F     		ldrh	r0, [r5, #58]
 1377 0b1e FFF7FEFF 		bl	__aeabi_ui2d
 1378              	.LVL242:
 1379 0b22 D4E93A23 		ldrd	r2, [r4, #232]
 1380 0b26 FFF7FEFF 		bl	__aeabi_dmul
 1381              	.LVL243:
 1382 0b2a 0246     		mov	r2, r0
 1383 0b2c 0B46     		mov	r3, r1
 1384 0b2e 3046     		mov	r0, r6
 1385 0b30 3946     		mov	r1, r7
 1386 0b32 FFF7FEFF 		bl	__aeabi_dadd
 1387              	.LVL244:
 1388 0b36 0646     		mov	r6, r0
 1389 0b38 0F46     		mov	r7, r1
 1390 0b3a A88F     		ldrh	r0, [r5, #60]
 1391 0b3c FFF7FEFF 		bl	__aeabi_ui2d
 1392              	.LVL245:
ARM GAS  C:\Users\s_bej\AppData\Local\Temp\cczIgxd7.s 			page 27


 1393 0b40 D4E93C23 		ldrd	r2, [r4, #240]
 1394 0b44 FFF7FEFF 		bl	__aeabi_dmul
 1395              	.LVL246:
 1396 0b48 0246     		mov	r2, r0
 1397 0b4a 0B46     		mov	r3, r1
 1398 0b4c 3046     		mov	r0, r6
 1399 0b4e 3946     		mov	r1, r7
 1400 0b50 FFF7FEFF 		bl	__aeabi_dadd
 1401              	.LVL247:
 1402 0b54 0646     		mov	r6, r0
 1403 0b56 0F46     		mov	r7, r1
 1404 0b58 E88F     		ldrh	r0, [r5, #62]
 1405 0b5a FFF7FEFF 		bl	__aeabi_ui2d
 1406              	.LVL248:
 1407 0b5e D4E93E23 		ldrd	r2, [r4, #248]
 1408 0b62 FFF7FEFF 		bl	__aeabi_dmul
 1409              	.LVL249:
 1410 0b66 0246     		mov	r2, r0
 1411 0b68 0B46     		mov	r3, r1
 1412 0b6a 3046     		mov	r0, r6
 1413 0b6c 3946     		mov	r1, r7
 1414 0b6e FFF7FEFF 		bl	__aeabi_dadd
 1415              	.LVL250:
 1416 0b72 0646     		mov	r6, r0
 1417 0b74 0F46     		mov	r7, r1
 1418 0b76 B5F84000 		ldrh	r0, [r5, #64]
 1419 0b7a FFF7FEFF 		bl	__aeabi_ui2d
 1420              	.LVL251:
 1421 0b7e 04F58073 		add	r3, r4, #256
 1422 0b82 D3E90023 		ldrd	r2, [r3]
 1423 0b86 FFF7FEFF 		bl	__aeabi_dmul
 1424              	.LVL252:
 1425 0b8a 0246     		mov	r2, r0
 1426 0b8c 0B46     		mov	r3, r1
 1427 0b8e 3046     		mov	r0, r6
 1428 0b90 3946     		mov	r1, r7
 1429 0b92 FFF7FEFF 		bl	__aeabi_dadd
 1430              	.LVL253:
 1431 0b96 0646     		mov	r6, r0
 1432 0b98 0F46     		mov	r7, r1
 1433 0b9a B5F84200 		ldrh	r0, [r5, #66]
 1434 0b9e FFF7FEFF 		bl	__aeabi_ui2d
 1435              	.LVL254:
 1436 0ba2 04F58473 		add	r3, r4, #264
 1437 0ba6 D3E90023 		ldrd	r2, [r3]
 1438 0baa FFF7FEFF 		bl	__aeabi_dmul
 1439              	.LVL255:
 1440 0bae 0246     		mov	r2, r0
 1441 0bb0 0B46     		mov	r3, r1
 1442 0bb2 3046     		mov	r0, r6
 1443 0bb4 3946     		mov	r1, r7
 1444 0bb6 FFF7FEFF 		bl	__aeabi_dadd
 1445              	.LVL256:
 1446 0bba 0646     		mov	r6, r0
 1447 0bbc 0F46     		mov	r7, r1
 1448 0bbe B5F84400 		ldrh	r0, [r5, #68]
 1449 0bc2 FFF7FEFF 		bl	__aeabi_ui2d
ARM GAS  C:\Users\s_bej\AppData\Local\Temp\cczIgxd7.s 			page 28


 1450              	.LVL257:
 1451 0bc6 04F58873 		add	r3, r4, #272
 1452 0bca D3E90023 		ldrd	r2, [r3]
 1453 0bce FFF7FEFF 		bl	__aeabi_dmul
 1454              	.LVL258:
 1455 0bd2 0246     		mov	r2, r0
 1456 0bd4 0B46     		mov	r3, r1
 1457 0bd6 3046     		mov	r0, r6
 1458 0bd8 3946     		mov	r1, r7
 1459 0bda FFF7FEFF 		bl	__aeabi_dadd
 1460              	.LVL259:
 1461 0bde 0646     		mov	r6, r0
 1462 0be0 0F46     		mov	r7, r1
 1463 0be2 B5F84600 		ldrh	r0, [r5, #70]
 1464 0be6 FFF7FEFF 		bl	__aeabi_ui2d
 1465              	.LVL260:
 1466 0bea 04F58C73 		add	r3, r4, #280
 1467 0bee D3E90023 		ldrd	r2, [r3]
 1468 0bf2 FFF7FEFF 		bl	__aeabi_dmul
 1469              	.LVL261:
 1470 0bf6 0246     		mov	r2, r0
 1471 0bf8 0B46     		mov	r3, r1
 1472 0bfa 3046     		mov	r0, r6
 1473 0bfc 3946     		mov	r1, r7
 1474 0bfe FFF7FEFF 		bl	__aeabi_dadd
 1475              	.LVL262:
 1476 0c02 0646     		mov	r6, r0
 1477 0c04 0F46     		mov	r7, r1
 1478 0c06 B5F84800 		ldrh	r0, [r5, #72]
 1479 0c0a FFF7FEFF 		bl	__aeabi_ui2d
 1480              	.LVL263:
 1481 0c0e 04F59073 		add	r3, r4, #288
 1482 0c12 D3E90023 		ldrd	r2, [r3]
 1483 0c16 FFF7FEFF 		bl	__aeabi_dmul
 1484              	.LVL264:
 1485 0c1a 0246     		mov	r2, r0
 1486 0c1c 0B46     		mov	r3, r1
 1487 0c1e 3046     		mov	r0, r6
 1488 0c20 3946     		mov	r1, r7
 1489 0c22 FFF7FEFF 		bl	__aeabi_dadd
 1490              	.LVL265:
 1491 0c26 0646     		mov	r6, r0
 1492 0c28 0F46     		mov	r7, r1
 1493 0c2a B5F84A00 		ldrh	r0, [r5, #74]
 1494 0c2e FFF7FEFF 		bl	__aeabi_ui2d
 1495              	.LVL266:
 1496 0c32 04F59473 		add	r3, r4, #296
 1497 0c36 D3E90023 		ldrd	r2, [r3]
 1498 0c3a FFF7FEFF 		bl	__aeabi_dmul
 1499              	.LVL267:
 1500 0c3e 0246     		mov	r2, r0
 1501 0c40 0B46     		mov	r3, r1
 1502 0c42 3046     		mov	r0, r6
 1503 0c44 3946     		mov	r1, r7
 1504 0c46 FFF7FEFF 		bl	__aeabi_dadd
 1505              	.LVL268:
 1506 0c4a 0646     		mov	r6, r0
ARM GAS  C:\Users\s_bej\AppData\Local\Temp\cczIgxd7.s 			page 29


 1507 0c4c 0F46     		mov	r7, r1
 1508 0c4e B5F84C00 		ldrh	r0, [r5, #76]
 1509 0c52 FFF7FEFF 		bl	__aeabi_ui2d
 1510              	.LVL269:
 1511 0c56 04F59873 		add	r3, r4, #304
 1512 0c5a D3E90023 		ldrd	r2, [r3]
 1513 0c5e FFF7FEFF 		bl	__aeabi_dmul
 1514              	.LVL270:
 1515 0c62 0246     		mov	r2, r0
 1516 0c64 0B46     		mov	r3, r1
 1517 0c66 3046     		mov	r0, r6
 1518 0c68 3946     		mov	r1, r7
 1519 0c6a FFF7FEFF 		bl	__aeabi_dadd
 1520              	.LVL271:
 1521 0c6e 0646     		mov	r6, r0
 1522 0c70 0F46     		mov	r7, r1
 1523 0c72 B5F84E00 		ldrh	r0, [r5, #78]
 1524 0c76 FFF7FEFF 		bl	__aeabi_ui2d
 1525              	.LVL272:
 1526 0c7a 04F59C73 		add	r3, r4, #312
 1527 0c7e D3E90023 		ldrd	r2, [r3]
 1528 0c82 FFF7FEFF 		bl	__aeabi_dmul
 1529              	.LVL273:
 1530 0c86 0246     		mov	r2, r0
 1531 0c88 0B46     		mov	r3, r1
 1532 0c8a 3046     		mov	r0, r6
 1533 0c8c 3946     		mov	r1, r7
 1534 0c8e FFF7FEFF 		bl	__aeabi_dadd
 1535              	.LVL274:
 1536 0c92 0646     		mov	r6, r0
 1537 0c94 0F46     		mov	r7, r1
 1538 0c96 B5F85000 		ldrh	r0, [r5, #80]
 1539 0c9a FFF7FEFF 		bl	__aeabi_ui2d
 1540              	.LVL275:
 1541 0c9e 04F5A073 		add	r3, r4, #320
 1542 0ca2 D3E90023 		ldrd	r2, [r3]
 1543 0ca6 FFF7FEFF 		bl	__aeabi_dmul
 1544              	.LVL276:
 1545 0caa 0246     		mov	r2, r0
 1546 0cac 0B46     		mov	r3, r1
 1547 0cae 3046     		mov	r0, r6
 1548 0cb0 3946     		mov	r1, r7
 1549 0cb2 FFF7FEFF 		bl	__aeabi_dadd
 1550              	.LVL277:
 1551 0cb6 0646     		mov	r6, r0
 1552 0cb8 0F46     		mov	r7, r1
 1553 0cba B5F85200 		ldrh	r0, [r5, #82]
 1554 0cbe FFF7FEFF 		bl	__aeabi_ui2d
 1555              	.LVL278:
 1556 0cc2 04F5A473 		add	r3, r4, #328
 1557 0cc6 D3E90023 		ldrd	r2, [r3]
 1558 0cca FFF7FEFF 		bl	__aeabi_dmul
 1559              	.LVL279:
 1560 0cce 0246     		mov	r2, r0
 1561 0cd0 0B46     		mov	r3, r1
 1562 0cd2 3046     		mov	r0, r6
 1563 0cd4 3946     		mov	r1, r7
ARM GAS  C:\Users\s_bej\AppData\Local\Temp\cczIgxd7.s 			page 30


 1564 0cd6 FFF7FEFF 		bl	__aeabi_dadd
 1565              	.LVL280:
 1566 0cda 0646     		mov	r6, r0
 1567 0cdc 0F46     		mov	r7, r1
 1568 0cde B5F85400 		ldrh	r0, [r5, #84]
 1569 0ce2 FFF7FEFF 		bl	__aeabi_ui2d
 1570              	.LVL281:
 1571 0ce6 04F5A873 		add	r3, r4, #336
 1572 0cea D3E90023 		ldrd	r2, [r3]
 1573 0cee FFF7FEFF 		bl	__aeabi_dmul
 1574              	.LVL282:
 1575 0cf2 0246     		mov	r2, r0
 1576 0cf4 0B46     		mov	r3, r1
 1577 0cf6 3046     		mov	r0, r6
 1578 0cf8 3946     		mov	r1, r7
 1579 0cfa FFF7FEFF 		bl	__aeabi_dadd
 1580              	.LVL283:
 1581 0cfe 0646     		mov	r6, r0
 1582 0d00 0F46     		mov	r7, r1
 1583 0d02 B5F85600 		ldrh	r0, [r5, #86]
 1584 0d06 FFF7FEFF 		bl	__aeabi_ui2d
 1585              	.LVL284:
 1586 0d0a 04F5AC73 		add	r3, r4, #344
 1587 0d0e D3E90023 		ldrd	r2, [r3]
 1588 0d12 FFF7FEFF 		bl	__aeabi_dmul
 1589              	.LVL285:
 1590 0d16 0246     		mov	r2, r0
 1591 0d18 0B46     		mov	r3, r1
 1592 0d1a 3046     		mov	r0, r6
 1593 0d1c 3946     		mov	r1, r7
 1594 0d1e FFF7FEFF 		bl	__aeabi_dadd
 1595              	.LVL286:
 1596 0d22 0646     		mov	r6, r0
 1597 0d24 0F46     		mov	r7, r1
 1598 0d26 B5F85800 		ldrh	r0, [r5, #88]
 1599 0d2a FFF7FEFF 		bl	__aeabi_ui2d
 1600              	.LVL287:
 1601 0d2e 04F5B073 		add	r3, r4, #352
 1602 0d32 D3E90023 		ldrd	r2, [r3]
 1603 0d36 FFF7FEFF 		bl	__aeabi_dmul
 1604              	.LVL288:
 1605 0d3a 0246     		mov	r2, r0
 1606 0d3c 0B46     		mov	r3, r1
 1607 0d3e 3046     		mov	r0, r6
 1608 0d40 3946     		mov	r1, r7
 1609 0d42 FFF7FEFF 		bl	__aeabi_dadd
 1610              	.LVL289:
 1611 0d46 0646     		mov	r6, r0
 1612 0d48 0F46     		mov	r7, r1
 1613 0d4a B5F85A00 		ldrh	r0, [r5, #90]
 1614 0d4e FFF7FEFF 		bl	__aeabi_ui2d
 1615              	.LVL290:
 1616 0d52 04F5B473 		add	r3, r4, #360
 1617 0d56 D3E90023 		ldrd	r2, [r3]
 1618 0d5a FFF7FEFF 		bl	__aeabi_dmul
 1619              	.LVL291:
 1620 0d5e 0246     		mov	r2, r0
ARM GAS  C:\Users\s_bej\AppData\Local\Temp\cczIgxd7.s 			page 31


 1621 0d60 0B46     		mov	r3, r1
 1622 0d62 3046     		mov	r0, r6
 1623 0d64 3946     		mov	r1, r7
 1624 0d66 FFF7FEFF 		bl	__aeabi_dadd
 1625              	.LVL292:
 1626 0d6a 0646     		mov	r6, r0
 1627 0d6c 0F46     		mov	r7, r1
 1628 0d6e B5F85C00 		ldrh	r0, [r5, #92]
 1629 0d72 FFF7FEFF 		bl	__aeabi_ui2d
 1630              	.LVL293:
 1631 0d76 04F5B873 		add	r3, r4, #368
 1632 0d7a D3E90023 		ldrd	r2, [r3]
 1633 0d7e FFF7FEFF 		bl	__aeabi_dmul
 1634              	.LVL294:
 1635 0d82 0246     		mov	r2, r0
 1636 0d84 0B46     		mov	r3, r1
 1637 0d86 3046     		mov	r0, r6
 1638 0d88 3946     		mov	r1, r7
 1639 0d8a FFF7FEFF 		bl	__aeabi_dadd
 1640              	.LVL295:
 1641 0d8e 0646     		mov	r6, r0
 1642 0d90 0F46     		mov	r7, r1
 1643 0d92 B5F85E00 		ldrh	r0, [r5, #94]
 1644 0d96 FFF7FEFF 		bl	__aeabi_ui2d
 1645              	.LVL296:
 1646 0d9a 04F5BC73 		add	r3, r4, #376
 1647 0d9e D3E90023 		ldrd	r2, [r3]
 1648 0da2 FFF7FEFF 		bl	__aeabi_dmul
 1649              	.LVL297:
 1650 0da6 0246     		mov	r2, r0
 1651 0da8 0B46     		mov	r3, r1
 1652 0daa 3046     		mov	r0, r6
 1653 0dac 3946     		mov	r1, r7
 1654 0dae FFF7FEFF 		bl	__aeabi_dadd
 1655              	.LVL298:
 1656 0db2 0646     		mov	r6, r0
 1657 0db4 0F46     		mov	r7, r1
 1658 0db6 B5F86000 		ldrh	r0, [r5, #96]
 1659 0dba FFF7FEFF 		bl	__aeabi_ui2d
 1660              	.LVL299:
 1661 0dbe 04F5C073 		add	r3, r4, #384
 1662 0dc2 D3E90023 		ldrd	r2, [r3]
 1663 0dc6 FFF7FEFF 		bl	__aeabi_dmul
 1664              	.LVL300:
 1665 0dca 0246     		mov	r2, r0
 1666 0dcc 0B46     		mov	r3, r1
 1667 0dce 3046     		mov	r0, r6
 1668 0dd0 3946     		mov	r1, r7
 1669 0dd2 FFF7FEFF 		bl	__aeabi_dadd
 1670              	.LVL301:
 1671 0dd6 0646     		mov	r6, r0
 1672 0dd8 0F46     		mov	r7, r1
 1673 0dda B5F86200 		ldrh	r0, [r5, #98]
 1674 0dde FFF7FEFF 		bl	__aeabi_ui2d
 1675              	.LVL302:
 1676 0de2 04F5C473 		add	r3, r4, #392
 1677 0de6 D3E90023 		ldrd	r2, [r3]
ARM GAS  C:\Users\s_bej\AppData\Local\Temp\cczIgxd7.s 			page 32


 1678 0dea FFF7FEFF 		bl	__aeabi_dmul
 1679              	.LVL303:
 1680 0dee 0246     		mov	r2, r0
 1681 0df0 0B46     		mov	r3, r1
 1682 0df2 3046     		mov	r0, r6
 1683 0df4 3946     		mov	r1, r7
 1684 0df6 FFF7FEFF 		bl	__aeabi_dadd
 1685              	.LVL304:
 1686 0dfa 0646     		mov	r6, r0
 1687 0dfc 0F46     		mov	r7, r1
 1688 0dfe B5F86400 		ldrh	r0, [r5, #100]
 1689 0e02 FFF7FEFF 		bl	__aeabi_ui2d
 1690              	.LVL305:
 1691 0e06 04F5C874 		add	r4, r4, #400
 1692 0e0a D4E90023 		ldrd	r2, [r4]
 1693 0e0e FFF7FEFF 		bl	__aeabi_dmul
 1694              	.LVL306:
 1695 0e12 0246     		mov	r2, r0
 1696 0e14 0B46     		mov	r3, r1
 1697 0e16 3046     		mov	r0, r6
 1698 0e18 3946     		mov	r1, r7
 1699 0e1a FFF7FEFF 		bl	__aeabi_dadd
 1700              	.LVL307:
 1701 0e1e FFF7FEFF 		bl	__aeabi_d2iz
 1702              	.LVL308:
  90:main.c        ****         DAC_SetValue(trunc(y));
 1703              		.loc 1 90 0
 1704 0e22 FFF7FEFF 		bl	__aeabi_i2d
 1705              	.LVL309:
 1706 0e26 FFF7FEFF 		bl	trunc
 1707              	.LVL310:
 1708 0e2a FFF7FEFF 		bl	__aeabi_d2uiz
 1709              	.LVL311:
 1710 0e2e 80B2     		uxth	r0, r0
 1711 0e30 FFF7FEFF 		bl	DAC_SetValue
 1712              	.LVL312:
 1713 0e34 F8BD     		pop	{r3, r4, r5, r6, r7, pc}
 1714              	.LBE3:
 1715              		.cfi_endproc
 1716              	.LFE63:
 1717              		.size	llegaMuestra, .-llegaMuestra
 1718 0e36 00BF     		.section	.text.cambiarUno,"ax",%progbits
 1719              		.align	2
 1720              		.global	cambiarUno
 1721              		.thumb
 1722              		.thumb_func
 1723              		.type	cambiarUno, %function
 1724              	cambiarUno:
 1725              	.LFB66:
  91:main.c        ****     }
  92:main.c        **** //    x[0] = ADC_GetResult16();
  93:main.c        **** //    y = x[0];    
  94:main.c        **** }
  95:main.c        **** 
  96:main.c        **** void Calc_coef()
  97:main.c        **** {
  98:main.c        ****     //Por estandar de C, el valor decimal de los dígitos en ASCII es el dígito en ASCII - '0', en
ARM GAS  C:\Users\s_bej\AppData\Local\Temp\cczIgxd7.s 			page 33


  99:main.c        ****     um_frec = frec[0] - '0';
 100:main.c        ****     c_frec = frec[1] - '0';
 101:main.c        ****     d_frec = frec[2] - '0';
 102:main.c        ****     u_frec = frec[3] - '0';
 103:main.c        ****     //Ahora acá procedemos a volver estos un número en frec_final
 104:main.c        ****     frec_final = (um_frec)*1000+(c_frec)*100+(d_frec)*10+u_frec;
 105:main.c        ****     //miramos si frec_final está dentro del rango
 106:main.c        ****     if(frec_final>1000 || frec_final == 0)
 107:main.c        ****     {
 108:main.c        ****         //Si no, le decimos al usuario que resetee el sistema
 109:main.c        ****         LCD_ClearDisplay();
 110:main.c        ****         LCD_Position(0,0);
 111:main.c        ****         LCD_PrintString("Fuera de Rango");
 112:main.c        ****         LCD_Position(1,0);
 113:main.c        ****         LCD_PrintString("Presione Reset");
 114:main.c        ****     }
 115:main.c        ****     else
 116:main.c        ****     {
 117:main.c        ****         //Si sí viene la tarea engorrosa de calcular los coeficientes
 118:main.c        ****         volatile double wc = 2*3.14159265*(double)frec_final/3000;
 119:main.c        ****         if(filtro == 1)
 120:main.c        ****         {
 121:main.c        ****             for(i = 0; i < 51; i++)
 122:main.c        ****             {
 123:main.c        ****                 if(i != 25)
 124:main.c        ****                 {
 125:main.c        ****                     double temp = wc*(i-25);
 126:main.c        ****                     h[i] = (sin(temp));
 127:main.c        ****                     h[i] /= (3.14159265*(i-25));
 128:main.c        ****                 }
 129:main.c        ****                 else
 130:main.c        ****                 {
 131:main.c        ****                     h[i] = wc/3.14159265;
 132:main.c        ****                 }
 133:main.c        ****             }
 134:main.c        ****         }
 135:main.c        ****         if(filtro == 2)
 136:main.c        ****         {
 137:main.c        ****             for(i = 0; i < 51; i++)
 138:main.c        ****             {
 139:main.c        ****                 if(i != 25)
 140:main.c        ****                 {
 141:main.c        ****                     double temp = wc*(i-25);
 142:main.c        ****                     h[i] = -(sin(temp));
 143:main.c        ****                     h[i] /= (3.14159265*(i-25));
 144:main.c        ****                 }
 145:main.c        ****                 else
 146:main.c        ****                 {
 147:main.c        ****                     h[i] = 1 - wc/3.14159265;
 148:main.c        ****                 }
 149:main.c        ****             }
 150:main.c        ****         }
 151:main.c        ****         if(filtro == 3)
 152:main.c        ****         {
 153:main.c        ****             double wc2 = ((double)frec_final+100)*3.14159265/1500;
 154:main.c        ****             double wc1 = ((double)frec_final-100)*3.14159265/1500;
 155:main.c        ****             for(i = 0; i < 51; i++)
ARM GAS  C:\Users\s_bej\AppData\Local\Temp\cczIgxd7.s 			page 34


 156:main.c        ****             {
 157:main.c        ****                 if(i != 25)
 158:main.c        ****                 {
 159:main.c        ****                     double temp2 = wc2*(i-25);
 160:main.c        ****                     double temp1 = wc1*(i-25);
 161:main.c        ****                     h[i] = (sin(temp2));
 162:main.c        ****                     h[i] /= (3.14159265*(i-25));
 163:main.c        ****                     double temp3 = (sin(temp1));
 164:main.c        ****                     temp3 /= (3.14159265*(i-25));
 165:main.c        ****                     h[i] -= temp3;
 166:main.c        ****                 }
 167:main.c        ****                 else
 168:main.c        ****                 {
 169:main.c        ****                     h[i] = wc2/3.14159265 - wc1/3.14159265;
 170:main.c        ****                 }
 171:main.c        ****             }
 172:main.c        ****         }
 173:main.c        ****         //Ahora después de calculados notificamos al usuario que fueron calculados para esa frecue
 174:main.c        ****         LCD_ClearDisplay();
 175:main.c        ****         LCD_Position(0,0);
 176:main.c        ****         LCD_PrintString("Coef Calculados");
 177:main.c        ****         LCD_Position(1,0);
 178:main.c        ****         LCD_PrintString("Para F:");
 179:main.c        ****         LCD_PutChar(frec[0]);
 180:main.c        ****         LCD_PutChar(frec[1]);
 181:main.c        ****         LCD_PutChar(frec[2]);
 182:main.c        ****         LCD_PutChar(frec[3]);
 183:main.c        ****         CyDelay(3000);
 184:main.c        ****         LCD_ClearDisplay();
 185:main.c        ****         LCD_Position(0,0);
 186:main.c        ****         LCD_PrintString("Inicia");
 187:main.c        ****         LCD_Position(1,0);
 188:main.c        ****         LCD_PrintString("Filtrado");
 189:main.c        ****         ADC_Start();
 190:main.c        ****         DAC_Start();
 191:main.c        ****         Muestreo_Start();
 192:main.c        ****         Recorre_Uno_Stop();
 193:main.c        ****         int_EndOfConv_StartEx(llegaMuestra);
 194:main.c        ****         int_CambioUno_Stop();
 195:main.c        ****         int_TeclaOprimida_Stop();
 196:main.c        ****     }
 197:main.c        **** }
 198:main.c        **** 
 199:main.c        **** //Esta función se ejecutará cada que se termine una conversión del ADC;
 200:main.c        **** 
 201:main.c        **** //Con este método identificaremos la tecla oprimida del teclado matricial
 202:main.c        **** CY_ISR(identificarTecla)
 203:main.c        **** {
 204:main.c        ****     columna = Columnas_Read();
 205:main.c        ****     if(fila == 1)
 206:main.c        ****     {
 207:main.c        ****         switch(columna)
 208:main.c        ****         {
 209:main.c        ****             case 0b00000001:
 210:main.c        ****                 tecla = '1';
 211:main.c        ****                 break;
 212:main.c        ****             case 0b00000010:
ARM GAS  C:\Users\s_bej\AppData\Local\Temp\cczIgxd7.s 			page 35


 213:main.c        ****                 tecla = '2';
 214:main.c        ****                 break;
 215:main.c        ****             case 0b00000100:
 216:main.c        ****                 tecla = '3';
 217:main.c        ****                 break;
 218:main.c        ****         }
 219:main.c        ****     }
 220:main.c        ****     if(fila == 2)
 221:main.c        ****     {
 222:main.c        ****         switch(columna)
 223:main.c        ****         {
 224:main.c        ****             case 0b00000001:
 225:main.c        ****                 tecla = '4';
 226:main.c        ****                 break;
 227:main.c        ****             case 0b00000010:
 228:main.c        ****                 tecla = '5';
 229:main.c        ****                 break;
 230:main.c        ****             case 0b00000100:
 231:main.c        ****                 tecla = '6';
 232:main.c        ****                 break;
 233:main.c        ****         }
 234:main.c        ****     }
 235:main.c        ****     if(fila == 4)
 236:main.c        ****     {
 237:main.c        ****         switch(columna)
 238:main.c        ****         {
 239:main.c        ****             case 0b00000001:
 240:main.c        ****                 tecla = '7';
 241:main.c        ****                 break;
 242:main.c        ****             case 0b00000010:
 243:main.c        ****                 tecla = '8';
 244:main.c        ****                 break;
 245:main.c        ****             case 0b00000100:
 246:main.c        ****                 tecla = '9';
 247:main.c        ****                 break;
 248:main.c        ****         }
 249:main.c        ****     }
 250:main.c        ****     if(fila == 8)
 251:main.c        ****     {
 252:main.c        ****         switch(columna)
 253:main.c        ****         {
 254:main.c        ****             case 0b00000001:
 255:main.c        ****                 tecla = '*';
 256:main.c        ****                 break;
 257:main.c        ****             case 0b00000010:
 258:main.c        ****                 tecla = '0';
 259:main.c        ****                 break;
 260:main.c        ****             case 0b00000100:
 261:main.c        ****                 tecla = '#';
 262:main.c        ****                 break;
 263:main.c        ****         }
 264:main.c        ****     }    
 265:main.c        ****     //Empezamos a mirar la lógica del algoritmo de visualización    
 266:main.c        ****     if(paso == 3)
 267:main.c        ****     {
 268:main.c        ****         //Procedemos a calcular los coeficientes luego de colocar *
 269:main.c        ****         if(tecla == '*')
ARM GAS  C:\Users\s_bej\AppData\Local\Temp\cczIgxd7.s 			page 36


 270:main.c        ****         {
 271:main.c        ****             LCD_Position(0,0);
 272:main.c        ****             LCD_PrintString("                ");
 273:main.c        ****             LCD_Position(0,0);
 274:main.c        ****             LCD_PrintString("Calculando Coef");
 275:main.c        ****             LCD_Position(1,0);
 276:main.c        ****             LCD_PrintString("                ");
 277:main.c        ****             LCD_Position(1,0);
 278:main.c        ****             LCD_PrintString("...");
 279:main.c        ****             Calc_coef();
 280:main.c        ****         }
 281:main.c        ****     }
 282:main.c        ****     if(paso == 2)
 283:main.c        ****     {
 284:main.c        ****         //Digitamos cada uno de los valores de unidades de mil de frecuencia, centenas de frecuenci
 285:main.c        ****         if((tecla - '0') != filtro)
 286:main.c        ****         {
 287:main.c        ****             frec[cont_char] = tecla;
 288:main.c        ****             LCD_PutChar(tecla);
 289:main.c        ****             cont_char++;
 290:main.c        ****             if(cont_char == 4)
 291:main.c        ****             {
 292:main.c        ****                 LCD_Position(0,0);
 293:main.c        ****                 LCD_PrintString("                ");
 294:main.c        ****                 LCD_Position(0,0);
 295:main.c        ****                 LCD_PrintString("Presione *");
 296:main.c        ****                 CyDelay(2000);
 297:main.c        ****                 paso = 3;
 298:main.c        ****             }
 299:main.c        ****         }
 300:main.c        ****         else
 301:main.c        ****         {
 302:main.c        ****             tecla = filtro + '0';
 303:main.c        ****             frec[cont_char] = tecla;
 304:main.c        ****             LCD_PutChar(tecla);
 305:main.c        ****             cont_char++;
 306:main.c        ****             if(cont_char == 4)
 307:main.c        ****             {
 308:main.c        ****                 LCD_Position(0,0);
 309:main.c        ****                 LCD_PrintString("                ");
 310:main.c        ****                 LCD_Position(0,0);
 311:main.c        ****                 LCD_PrintString("Presione *");
 312:main.c        ****                 CyDelay(2000);
 313:main.c        ****                 paso = 3;
 314:main.c        ****             }
 315:main.c        ****         }       
 316:main.c        ****     }
 317:main.c        ****     if(paso == 1)
 318:main.c        ****     {   
 319:main.c        ****         //Miramos qué tipo de filtro digita
 320:main.c        ****         switch(tecla)
 321:main.c        ****         {
 322:main.c        ****             case '1':
 323:main.c        ****                 filtro = 1;                
 324:main.c        ****                 paso = 2;
 325:main.c        ****                 break;
 326:main.c        ****             case '2':
ARM GAS  C:\Users\s_bej\AppData\Local\Temp\cczIgxd7.s 			page 37


 327:main.c        ****                 filtro = 2;                
 328:main.c        ****                 paso = 2;
 329:main.c        ****                 break;
 330:main.c        ****             case '3':                
 331:main.c        ****                 filtro = 3;
 332:main.c        ****                 paso = 2;
 333:main.c        ****                 break;
 334:main.c        ****         }        
 335:main.c        ****     }    
 336:main.c        ****     CyDelay(250);
 337:main.c        ****     Columnas_ClearInterrupt();
 338:main.c        **** }
 339:main.c        **** //Con este método hacemos que el uno recorra las filas para recibirlo en las columnas
 340:main.c        **** CY_ISR(cambiarUno)
 341:main.c        **** {
 1726              		.loc 1 341 0
 1727              		.cfi_startproc
 1728              		@ args = 0, pretend = 0, frame = 0
 1729              		@ frame_needed = 0, uses_anonymous_args = 0
 1730 0000 08B5     		push	{r3, lr}
 1731              		.cfi_def_cfa_offset 8
 1732              		.cfi_offset 3, -8
 1733              		.cfi_offset 14, -4
 342:main.c        ****     switch(fila)
 1734              		.loc 1 342 0
 1735 0002 0F4B     		ldr	r3, .L20
 1736 0004 1B78     		ldrb	r3, [r3]	@ zero_extendqisi2
 1737 0006 013B     		subs	r3, r3, #1
 1738 0008 072B     		cmp	r3, #7
 1739 000a 14D8     		bhi	.L13
 1740 000c DFE803F0 		tbb	[pc, r3]
 1741              	.L15:
 1742 0010 04       		.byte	(.L14-.L15)/2
 1743 0011 08       		.byte	(.L16-.L15)/2
 1744 0012 13       		.byte	(.L13-.L15)/2
 1745 0013 0C       		.byte	(.L17-.L15)/2
 1746 0014 13       		.byte	(.L13-.L15)/2
 1747 0015 13       		.byte	(.L13-.L15)/2
 1748 0016 13       		.byte	(.L13-.L15)/2
 1749 0017 10       		.byte	(.L18-.L15)/2
 1750              		.p2align 1
 1751              	.L14:
 343:main.c        ****     {
 344:main.c        ****         case 1:
 345:main.c        ****             fila = 2;
 1752              		.loc 1 345 0
 1753 0018 0222     		movs	r2, #2
 1754 001a 094B     		ldr	r3, .L20
 1755 001c 1A70     		strb	r2, [r3]
 346:main.c        ****             break;
 1756              		.loc 1 346 0
 1757 001e 0AE0     		b	.L13
 1758              	.L16:
 347:main.c        ****         case 2:
 348:main.c        ****             fila = 4;
 1759              		.loc 1 348 0
 1760 0020 0422     		movs	r2, #4
ARM GAS  C:\Users\s_bej\AppData\Local\Temp\cczIgxd7.s 			page 38


 1761 0022 074B     		ldr	r3, .L20
 1762 0024 1A70     		strb	r2, [r3]
 349:main.c        ****             break;
 1763              		.loc 1 349 0
 1764 0026 06E0     		b	.L13
 1765              	.L17:
 350:main.c        ****         case 4:
 351:main.c        ****             fila = 8;
 1766              		.loc 1 351 0
 1767 0028 0822     		movs	r2, #8
 1768 002a 054B     		ldr	r3, .L20
 1769 002c 1A70     		strb	r2, [r3]
 352:main.c        ****             break;
 1770              		.loc 1 352 0
 1771 002e 02E0     		b	.L13
 1772              	.L18:
 353:main.c        ****         case 8:
 354:main.c        ****             fila = 1;
 1773              		.loc 1 354 0
 1774 0030 0122     		movs	r2, #1
 1775 0032 034B     		ldr	r3, .L20
 1776 0034 1A70     		strb	r2, [r3]
 1777              	.L13:
 355:main.c        ****             break;
 356:main.c        ****     }
 357:main.c        ****     Filas_Write(fila);    
 1778              		.loc 1 357 0
 1779 0036 024B     		ldr	r3, .L20
 1780 0038 1878     		ldrb	r0, [r3]	@ zero_extendqisi2
 1781 003a FFF7FEFF 		bl	Filas_Write
 1782              	.LVL313:
 1783 003e 08BD     		pop	{r3, pc}
 1784              	.L21:
 1785              		.align	2
 1786              	.L20:
 1787 0040 00000000 		.word	fila
 1788              		.cfi_endproc
 1789              	.LFE66:
 1790              		.size	cambiarUno, .-cambiarUno
 1791              		.global	__aeabi_ddiv
 1792              		.global	__aeabi_dsub
 1793              		.section	.text.Calc_coef,"ax",%progbits
 1794              		.align	2
 1795              		.global	Calc_coef
 1796              		.thumb
 1797              		.thumb_func
 1798              		.type	Calc_coef, %function
 1799              	Calc_coef:
 1800              	.LFB64:
  97:main.c        ****     //Por estandar de C, el valor decimal de los dígitos en ASCII es el dígito en ASCII - '0', en
 1801              		.loc 1 97 0
 1802              		.cfi_startproc
 1803              		@ args = 0, pretend = 0, frame = 24
 1804              		@ frame_needed = 0, uses_anonymous_args = 0
 1805 0000 2DE9F047 		push	{r4, r5, r6, r7, r8, r9, r10, lr}
 1806              		.cfi_def_cfa_offset 32
 1807              		.cfi_offset 4, -32
ARM GAS  C:\Users\s_bej\AppData\Local\Temp\cczIgxd7.s 			page 39


 1808              		.cfi_offset 5, -28
 1809              		.cfi_offset 6, -24
 1810              		.cfi_offset 7, -20
 1811              		.cfi_offset 8, -16
 1812              		.cfi_offset 9, -12
 1813              		.cfi_offset 10, -8
 1814              		.cfi_offset 14, -4
 1815 0004 86B0     		sub	sp, sp, #24
 1816              		.cfi_def_cfa_offset 56
  99:main.c        ****     c_frec = frec[1] - '0';
 1817              		.loc 1 99 0
 1818 0006 A04A     		ldr	r2, .L41+32
 1819 0008 1378     		ldrb	r3, [r2]	@ zero_extendqisi2
 1820 000a 303B     		subs	r3, r3, #48
 1821 000c DBB2     		uxtb	r3, r3
 1822 000e 9F49     		ldr	r1, .L41+36
 1823 0010 0B70     		strb	r3, [r1]
 100:main.c        ****     d_frec = frec[2] - '0';
 1824              		.loc 1 100 0
 1825 0012 5378     		ldrb	r3, [r2, #1]	@ zero_extendqisi2
 1826 0014 303B     		subs	r3, r3, #48
 1827 0016 DBB2     		uxtb	r3, r3
 1828 0018 9D48     		ldr	r0, .L41+40
 1829 001a 0370     		strb	r3, [r0]
 101:main.c        ****     u_frec = frec[3] - '0';
 1830              		.loc 1 101 0
 1831 001c 9378     		ldrb	r3, [r2, #2]	@ zero_extendqisi2
 1832 001e 303B     		subs	r3, r3, #48
 1833 0020 DBB2     		uxtb	r3, r3
 1834 0022 9C4E     		ldr	r6, .L41+44
 1835 0024 3370     		strb	r3, [r6]
 102:main.c        ****     //Ahora acá procedemos a volver estos un número en frec_final
 1836              		.loc 1 102 0
 1837 0026 D378     		ldrb	r3, [r2, #3]	@ zero_extendqisi2
 1838 0028 303B     		subs	r3, r3, #48
 1839 002a DBB2     		uxtb	r3, r3
 1840 002c 9A4F     		ldr	r7, .L41+48
 1841 002e 3B70     		strb	r3, [r7]
 104:main.c        ****     //miramos si frec_final está dentro del rango
 1842              		.loc 1 104 0
 1843 0030 0978     		ldrb	r1, [r1]	@ zero_extendqisi2
 1844 0032 C9B2     		uxtb	r1, r1
 1845 0034 0278     		ldrb	r2, [r0]	@ zero_extendqisi2
 1846 0036 3678     		ldrb	r6, [r6]	@ zero_extendqisi2
 1847 0038 3878     		ldrb	r0, [r7]	@ zero_extendqisi2
 1848 003a C1EB4113 		rsb	r3, r1, r1, lsl #5
 1849 003e 01EB8301 		add	r1, r1, r3, lsl #2
 1850 0042 CF00     		lsls	r7, r1, #3
 1851 0044 02EB8202 		add	r2, r2, r2, lsl #2
 1852 0048 02EB8202 		add	r2, r2, r2, lsl #2
 1853 004c 9300     		lsls	r3, r2, #2
 1854 004e 3B44     		add	r3, r3, r7
 1855 0050 06EB8602 		add	r2, r6, r6, lsl #2
 1856 0054 5100     		lsls	r1, r2, #1
 1857 0056 0B44     		add	r3, r3, r1
 1858 0058 1844     		add	r0, r0, r3
 1859 005a 80B2     		uxth	r0, r0
ARM GAS  C:\Users\s_bej\AppData\Local\Temp\cczIgxd7.s 			page 40


 1860 005c 8F4B     		ldr	r3, .L41+52
 1861 005e 1880     		strh	r0, [r3]	@ movhi
 106:main.c        ****     {
 1862              		.loc 1 106 0
 1863 0060 431E     		subs	r3, r0, #1
 1864 0062 9BB2     		uxth	r3, r3
 1865 0064 B3F57A7F 		cmp	r3, #1000
 1866 0068 11D3     		bcc	.L23
 109:main.c        ****         LCD_Position(0,0);
 1867              		.loc 1 109 0
 1868 006a 0120     		movs	r0, #1
 1869 006c FFF7FEFF 		bl	LCD_WriteControl
 1870              	.LVL314:
 110:main.c        ****         LCD_PrintString("Fuera de Rango");
 1871              		.loc 1 110 0
 1872 0070 0021     		movs	r1, #0
 1873 0072 0846     		mov	r0, r1
 1874 0074 FFF7FEFF 		bl	LCD_Position
 1875              	.LVL315:
 111:main.c        ****         LCD_Position(1,0);
 1876              		.loc 1 111 0
 1877 0078 8948     		ldr	r0, .L41+56
 1878 007a FFF7FEFF 		bl	LCD_PrintString
 1879              	.LVL316:
 112:main.c        ****         LCD_PrintString("Presione Reset");
 1880              		.loc 1 112 0
 1881 007e 0021     		movs	r1, #0
 1882 0080 0120     		movs	r0, #1
 1883 0082 FFF7FEFF 		bl	LCD_Position
 1884              	.LVL317:
 113:main.c        ****     }
 1885              		.loc 1 113 0
 1886 0086 8748     		ldr	r0, .L41+60
 1887 0088 FFF7FEFF 		bl	LCD_PrintString
 1888              	.LVL318:
 1889 008c E2E1     		b	.L22
 1890              	.L23:
 1891              	.LBB4:
 118:main.c        ****         if(filtro == 1)
 1892              		.loc 1 118 0
 1893 008e FFF7FEFF 		bl	__aeabi_ui2d
 1894              	.LVL319:
 1895 0092 75A3     		adr	r3, .L41
 1896 0094 D3E90023 		ldrd	r2, [r3]
 1897 0098 FFF7FEFF 		bl	__aeabi_dmul
 1898              	.LVL320:
 1899 009c 74A3     		adr	r3, .L41+8
 1900 009e D3E90023 		ldrd	r2, [r3]
 1901 00a2 FFF7FEFF 		bl	__aeabi_ddiv
 1902              	.LVL321:
 1903 00a6 CDE90401 		strd	r0, [sp, #16]
 119:main.c        ****         {
 1904              		.loc 1 119 0
 1905 00aa 7F4B     		ldr	r3, .L41+64
 1906 00ac 1B78     		ldrb	r3, [r3]	@ zero_extendqisi2
 1907 00ae DBB2     		uxtb	r3, r3
 1908 00b0 012B     		cmp	r3, #1
ARM GAS  C:\Users\s_bej\AppData\Local\Temp\cczIgxd7.s 			page 41


 1909 00b2 4AD1     		bne	.L25
 121:main.c        ****             {
 1910              		.loc 1 121 0
 1911 00b4 0022     		movs	r2, #0
 1912 00b6 7D4B     		ldr	r3, .L41+68
 1913 00b8 1A70     		strb	r2, [r3]
 1914 00ba A046     		mov	r8, r4
 1915 00bc A946     		mov	r9, r5
 1916 00be 3FE0     		b	.L26
 1917              	.L29:
 123:main.c        ****                 {
 1918              		.loc 1 123 0
 1919 00c0 7A4B     		ldr	r3, .L41+68
 1920 00c2 1B78     		ldrb	r3, [r3]	@ zero_extendqisi2
 1921 00c4 DBB2     		uxtb	r3, r3
 1922 00c6 192B     		cmp	r3, #25
 1923 00c8 26D0     		beq	.L27
 1924              	.LBB5:
 125:main.c        ****                     h[i] = (sin(temp));
 1925              		.loc 1 125 0
 1926 00ca 784D     		ldr	r5, .L41+68
 1927 00cc 2878     		ldrb	r0, [r5]	@ zero_extendqisi2
 1928 00ce 1938     		subs	r0, r0, #25
 1929 00d0 FFF7FEFF 		bl	__aeabi_i2d
 1930              	.LVL322:
 1931 00d4 DDE90423 		ldrd	r2, [sp, #16]
 1932 00d8 FFF7FEFF 		bl	__aeabi_dmul
 1933              	.LVL323:
 126:main.c        ****                     h[i] /= (3.14159265*(i-25));
 1934              		.loc 1 126 0
 1935 00dc 2F78     		ldrb	r7, [r5]	@ zero_extendqisi2
 1936 00de FFB2     		uxtb	r7, r7
 1937 00e0 FFF7FEFF 		bl	sin
 1938              	.LVL324:
 1939 00e4 724E     		ldr	r6, .L41+72
 1940 00e6 06EBC707 		add	r7, r6, r7, lsl #3
 1941 00ea C7E90001 		strd	r0, [r7]
 127:main.c        ****                 }
 1942              		.loc 1 127 0
 1943 00ee 2878     		ldrb	r0, [r5]	@ zero_extendqisi2
 1944 00f0 1938     		subs	r0, r0, #25
 1945 00f2 FFF7FEFF 		bl	__aeabi_i2d
 1946              	.LVL325:
 1947 00f6 60A3     		adr	r3, .L41+16
 1948 00f8 D3E90023 		ldrd	r2, [r3]
 1949 00fc FFF7FEFF 		bl	__aeabi_dmul
 1950              	.LVL326:
 1951 0100 2B78     		ldrb	r3, [r5]	@ zero_extendqisi2
 1952 0102 06EBC306 		add	r6, r6, r3, lsl #3
 1953 0106 0246     		mov	r2, r0
 1954 0108 0B46     		mov	r3, r1
 1955 010a D6E90001 		ldrd	r0, [r6]
 1956 010e FFF7FEFF 		bl	__aeabi_ddiv
 1957              	.LVL327:
 1958 0112 C6E90001 		strd	r0, [r6]
 1959              	.LBE5:
 1960 0116 0EE0     		b	.L28
ARM GAS  C:\Users\s_bej\AppData\Local\Temp\cczIgxd7.s 			page 42


 1961              	.L27:
 131:main.c        ****                 }
 1962              		.loc 1 131 0
 1963 0118 644B     		ldr	r3, .L41+68
 1964 011a 1B78     		ldrb	r3, [r3]	@ zero_extendqisi2
 1965 011c DEB2     		uxtb	r6, r3
 1966 011e 56A3     		adr	r3, .L41+16
 1967 0120 D3E90023 		ldrd	r2, [r3]
 1968 0124 DDE90401 		ldrd	r0, [sp, #16]
 1969 0128 FFF7FEFF 		bl	__aeabi_ddiv
 1970              	.LVL328:
 1971 012c 604B     		ldr	r3, .L41+72
 1972 012e 03EBC603 		add	r3, r3, r6, lsl #3
 1973 0132 C3E90001 		strd	r0, [r3]
 1974              	.L28:
 121:main.c        ****             {
 1975              		.loc 1 121 0 discriminator 2
 1976 0136 5D4A     		ldr	r2, .L41+68
 1977 0138 1378     		ldrb	r3, [r2]	@ zero_extendqisi2
 1978 013a 0133     		adds	r3, r3, #1
 1979 013c DBB2     		uxtb	r3, r3
 1980 013e 1370     		strb	r3, [r2]
 1981              	.L26:
 121:main.c        ****             {
 1982              		.loc 1 121 0 is_stmt 0 discriminator 1
 1983 0140 5A4B     		ldr	r3, .L41+68
 1984 0142 1B78     		ldrb	r3, [r3]	@ zero_extendqisi2
 1985 0144 DBB2     		uxtb	r3, r3
 1986 0146 322B     		cmp	r3, #50
 1987 0148 BAD9     		bls	.L29
 1988              	.L25:
 135:main.c        ****         {
 1989              		.loc 1 135 0 is_stmt 1
 1990 014a 574B     		ldr	r3, .L41+64
 1991 014c 1B78     		ldrb	r3, [r3]	@ zero_extendqisi2
 1992 014e DBB2     		uxtb	r3, r3
 1993 0150 022B     		cmp	r3, #2
 1994 0152 56D1     		bne	.L30
 137:main.c        ****             {
 1995              		.loc 1 137 0
 1996 0154 0022     		movs	r2, #0
 1997 0156 554B     		ldr	r3, .L41+68
 1998 0158 1A70     		strb	r2, [r3]
 1999 015a 4DE0     		b	.L31
 2000              	.L34:
 139:main.c        ****                 {
 2001              		.loc 1 139 0
 2002 015c 534B     		ldr	r3, .L41+68
 2003 015e 1B78     		ldrb	r3, [r3]	@ zero_extendqisi2
 2004 0160 DBB2     		uxtb	r3, r3
 2005 0162 192B     		cmp	r3, #25
 2006 0164 2ED0     		beq	.L32
 2007              	.LBB6:
 141:main.c        ****                     h[i] = -(sin(temp));
 2008              		.loc 1 141 0
 2009 0166 DFF84481 		ldr	r8, .L41+68
 2010 016a 98F80000 		ldrb	r0, [r8]	@ zero_extendqisi2
ARM GAS  C:\Users\s_bej\AppData\Local\Temp\cczIgxd7.s 			page 43


 2011 016e 1938     		subs	r0, r0, #25
 2012 0170 FFF7FEFF 		bl	__aeabi_i2d
 2013              	.LVL329:
 2014 0174 DDE90423 		ldrd	r2, [sp, #16]
 2015 0178 FFF7FEFF 		bl	__aeabi_dmul
 2016              	.LVL330:
 142:main.c        ****                     h[i] /= (3.14159265*(i-25));
 2017              		.loc 1 142 0
 2018 017c 98F80070 		ldrb	r7, [r8]	@ zero_extendqisi2
 2019 0180 FFB2     		uxtb	r7, r7
 2020 0182 FFF7FEFF 		bl	sin
 2021              	.LVL331:
 2022 0186 0446     		mov	r4, r0
 2023 0188 01F10045 		add	r5, r1, #-2147483648
 2024 018c 484E     		ldr	r6, .L41+72
 2025 018e 06EBC707 		add	r7, r6, r7, lsl #3
 2026 0192 C7E90045 		strd	r4, [r7]
 143:main.c        ****                 }
 2027              		.loc 1 143 0
 2028 0196 98F80000 		ldrb	r0, [r8]	@ zero_extendqisi2
 2029 019a 1938     		subs	r0, r0, #25
 2030 019c FFF7FEFF 		bl	__aeabi_i2d
 2031              	.LVL332:
 2032 01a0 35A3     		adr	r3, .L41+16
 2033 01a2 D3E90023 		ldrd	r2, [r3]
 2034 01a6 FFF7FEFF 		bl	__aeabi_dmul
 2035              	.LVL333:
 2036 01aa 98F80030 		ldrb	r3, [r8]	@ zero_extendqisi2
 2037 01ae 06EBC306 		add	r6, r6, r3, lsl #3
 2038 01b2 0246     		mov	r2, r0
 2039 01b4 0B46     		mov	r3, r1
 2040 01b6 D6E90001 		ldrd	r0, [r6]
 2041 01ba FFF7FEFF 		bl	__aeabi_ddiv
 2042              	.LVL334:
 2043 01be C6E90001 		strd	r0, [r6]
 2044              	.LBE6:
 2045 01c2 14E0     		b	.L33
 2046              	.L32:
 147:main.c        ****                 }
 2047              		.loc 1 147 0
 2048 01c4 394B     		ldr	r3, .L41+68
 2049 01c6 1B78     		ldrb	r3, [r3]	@ zero_extendqisi2
 2050 01c8 DEB2     		uxtb	r6, r3
 2051 01ca 2BA3     		adr	r3, .L41+16
 2052 01cc D3E90023 		ldrd	r2, [r3]
 2053 01d0 DDE90401 		ldrd	r0, [sp, #16]
 2054 01d4 FFF7FEFF 		bl	__aeabi_ddiv
 2055              	.LVL335:
 2056 01d8 0246     		mov	r2, r0
 2057 01da 0B46     		mov	r3, r1
 2058 01dc 0020     		movs	r0, #0
 2059 01de 3549     		ldr	r1, .L41+76
 2060 01e0 FFF7FEFF 		bl	__aeabi_dsub
 2061              	.LVL336:
 2062 01e4 324B     		ldr	r3, .L41+72
 2063 01e6 03EBC603 		add	r3, r3, r6, lsl #3
 2064 01ea C3E90001 		strd	r0, [r3]
ARM GAS  C:\Users\s_bej\AppData\Local\Temp\cczIgxd7.s 			page 44


 2065              	.L33:
 137:main.c        ****             {
 2066              		.loc 1 137 0 discriminator 2
 2067 01ee 2F4A     		ldr	r2, .L41+68
 2068 01f0 1378     		ldrb	r3, [r2]	@ zero_extendqisi2
 2069 01f2 0133     		adds	r3, r3, #1
 2070 01f4 DBB2     		uxtb	r3, r3
 2071 01f6 1370     		strb	r3, [r2]
 2072              	.L31:
 137:main.c        ****             {
 2073              		.loc 1 137 0 is_stmt 0 discriminator 1
 2074 01f8 2C4B     		ldr	r3, .L41+68
 2075 01fa 1B78     		ldrb	r3, [r3]	@ zero_extendqisi2
 2076 01fc DBB2     		uxtb	r3, r3
 2077 01fe 322B     		cmp	r3, #50
 2078 0200 ACD9     		bls	.L34
 2079              	.L30:
 151:main.c        ****         {
 2080              		.loc 1 151 0 is_stmt 1
 2081 0202 294B     		ldr	r3, .L41+64
 2082 0204 1B78     		ldrb	r3, [r3]	@ zero_extendqisi2
 2083 0206 DBB2     		uxtb	r3, r3
 2084 0208 032B     		cmp	r3, #3
 2085 020a 40F0E180 		bne	.L35
 2086              	.LBB7:
 153:main.c        ****             double wc1 = ((double)frec_final-100)*3.14159265/1500;
 2087              		.loc 1 153 0
 2088 020e 234B     		ldr	r3, .L41+52
 2089 0210 1888     		ldrh	r0, [r3]
 2090 0212 FFF7FEFF 		bl	__aeabi_ui2d
 2091              	.LVL337:
 2092 0216 0446     		mov	r4, r0
 2093 0218 0D46     		mov	r5, r1
 2094 021a 0022     		movs	r2, #0
 2095 021c 264B     		ldr	r3, .L41+80
 2096 021e FFF7FEFF 		bl	__aeabi_dadd
 2097              	.LVL338:
 2098 0222 15A3     		adr	r3, .L41+16
 2099 0224 D3E90023 		ldrd	r2, [r3]
 2100 0228 FFF7FEFF 		bl	__aeabi_dmul
 2101              	.LVL339:
 2102 022c 14A3     		adr	r3, .L41+24
 2103 022e D3E90023 		ldrd	r2, [r3]
 2104 0232 FFF7FEFF 		bl	__aeabi_ddiv
 2105              	.LVL340:
 2106 0236 CDE90001 		strd	r0, [sp]
 2107              	.LVL341:
 154:main.c        ****             for(i = 0; i < 51; i++)
 2108              		.loc 1 154 0
 2109 023a 0022     		movs	r2, #0
 2110 023c 1E4B     		ldr	r3, .L41+80
 2111 023e 2046     		mov	r0, r4
 2112              	.LVL342:
 2113 0240 2946     		mov	r1, r5
 2114 0242 FFF7FEFF 		bl	__aeabi_dsub
 2115              	.LVL343:
 2116 0246 0CA3     		adr	r3, .L41+16
ARM GAS  C:\Users\s_bej\AppData\Local\Temp\cczIgxd7.s 			page 45


 2117 0248 D3E90023 		ldrd	r2, [r3]
 2118 024c FFF7FEFF 		bl	__aeabi_dmul
 2119              	.LVL344:
 2120 0250 0BA3     		adr	r3, .L41+24
 2121 0252 D3E90023 		ldrd	r2, [r3]
 2122 0256 FFF7FEFF 		bl	__aeabi_ddiv
 2123              	.LVL345:
 2124 025a CDE90201 		strd	r0, [sp, #8]
 2125              	.LVL346:
 155:main.c        ****             {
 2126              		.loc 1 155 0
 2127 025e 0022     		movs	r2, #0
 2128 0260 124B     		ldr	r3, .L41+68
 2129 0262 1A70     		strb	r2, [r3]
 2130 0264 AEE0     		b	.L36
 2131              	.L42:
 2132 0266 00BF     		.align	3
 2133              	.L41:
 2134 0268 F1D4C853 		.word	1405670641
 2135 026c FB211940 		.word	1075388923
 2136 0270 00000000 		.word	0
 2137 0274 0070A740 		.word	1084715008
 2138 0278 F1D4C853 		.word	1405670641
 2139 027c FB210940 		.word	1074340347
 2140 0280 00000000 		.word	0
 2141 0284 00709740 		.word	1083666432
 2142 0288 00000000 		.word	frec
 2143 028c 00000000 		.word	um_frec
 2144 0290 00000000 		.word	c_frec
 2145 0294 00000000 		.word	d_frec
 2146 0298 00000000 		.word	u_frec
 2147 029c 00000000 		.word	frec_final
 2148 02a0 00000000 		.word	.LC0
 2149 02a4 10000000 		.word	.LC1
 2150 02a8 00000000 		.word	filtro
 2151 02ac 00000000 		.word	i
 2152 02b0 00000000 		.word	h
 2153 02b4 0000F03F 		.word	1072693248
 2154 02b8 00005940 		.word	1079574528
 2155              	.LVL347:
 2156              	.L39:
 157:main.c        ****                 {
 2157              		.loc 1 157 0
 2158 02bc 6A4B     		ldr	r3, .L43+8
 2159 02be 1B78     		ldrb	r3, [r3]	@ zero_extendqisi2
 2160 02c0 DBB2     		uxtb	r3, r3
 2161 02c2 192B     		cmp	r3, #25
 2162 02c4 5BD0     		beq	.L37
 2163              	.LBB8:
 159:main.c        ****                     double temp1 = wc1*(i-25);
 2164              		.loc 1 159 0
 2165 02c6 684C     		ldr	r4, .L43+8
 2166 02c8 2078     		ldrb	r0, [r4]	@ zero_extendqisi2
 2167 02ca 1938     		subs	r0, r0, #25
 2168 02cc FFF7FEFF 		bl	__aeabi_i2d
 2169              	.LVL348:
 2170 02d0 0246     		mov	r2, r0
ARM GAS  C:\Users\s_bej\AppData\Local\Temp\cczIgxd7.s 			page 46


 2171 02d2 0B46     		mov	r3, r1
 2172 02d4 DDE90001 		ldrd	r0, [sp]
 2173 02d8 FFF7FEFF 		bl	__aeabi_dmul
 2174              	.LVL349:
 2175 02dc 8046     		mov	r8, r0
 2176 02de 8946     		mov	r9, r1
 2177              	.LVL350:
 160:main.c        ****                     h[i] = (sin(temp2));
 2178              		.loc 1 160 0
 2179 02e0 2078     		ldrb	r0, [r4]	@ zero_extendqisi2
 2180 02e2 1938     		subs	r0, r0, #25
 2181 02e4 FFF7FEFF 		bl	__aeabi_i2d
 2182              	.LVL351:
 2183 02e8 0246     		mov	r2, r0
 2184 02ea 0B46     		mov	r3, r1
 2185 02ec DDE90201 		ldrd	r0, [sp, #8]
 2186 02f0 FFF7FEFF 		bl	__aeabi_dmul
 2187              	.LVL352:
 2188 02f4 0646     		mov	r6, r0
 2189 02f6 0F46     		mov	r7, r1
 2190              	.LVL353:
 161:main.c        ****                     h[i] /= (3.14159265*(i-25));
 2191              		.loc 1 161 0
 2192 02f8 94F800A0 		ldrb	r10, [r4]	@ zero_extendqisi2
 2193 02fc 5FFA8AFA 		uxtb	r10, r10
 2194 0300 4046     		mov	r0, r8
 2195 0302 4946     		mov	r1, r9
 2196 0304 FFF7FEFF 		bl	sin
 2197              	.LVL354:
 2198 0308 584D     		ldr	r5, .L43+12
 2199 030a 05EBCA0A 		add	r10, r5, r10, lsl #3
 2200 030e CAE90001 		strd	r0, [r10]
 162:main.c        ****                     double temp3 = (sin(temp1));
 2201              		.loc 1 162 0
 2202 0312 2078     		ldrb	r0, [r4]	@ zero_extendqisi2
 2203 0314 1938     		subs	r0, r0, #25
 2204 0316 FFF7FEFF 		bl	__aeabi_i2d
 2205              	.LVL355:
 2206 031a 51A3     		adr	r3, .L43
 2207 031c D3E90023 		ldrd	r2, [r3]
 2208 0320 FFF7FEFF 		bl	__aeabi_dmul
 2209              	.LVL356:
 2210 0324 94F80080 		ldrb	r8, [r4]	@ zero_extendqisi2
 2211              	.LVL357:
 2212 0328 05EBC808 		add	r8, r5, r8, lsl #3
 2213 032c 0246     		mov	r2, r0
 2214 032e 0B46     		mov	r3, r1
 2215 0330 D8E90001 		ldrd	r0, [r8]
 2216 0334 FFF7FEFF 		bl	__aeabi_ddiv
 2217              	.LVL358:
 2218 0338 C8E90001 		strd	r0, [r8]
 163:main.c        ****                     temp3 /= (3.14159265*(i-25));
 2219              		.loc 1 163 0
 2220 033c 3046     		mov	r0, r6
 2221 033e 3946     		mov	r1, r7
 2222 0340 FFF7FEFF 		bl	sin
 2223              	.LVL359:
ARM GAS  C:\Users\s_bej\AppData\Local\Temp\cczIgxd7.s 			page 47


 2224 0344 0646     		mov	r6, r0
 2225              	.LVL360:
 2226 0346 0F46     		mov	r7, r1
 2227              	.LVL361:
 164:main.c        ****                     h[i] -= temp3;
 2228              		.loc 1 164 0
 2229 0348 2078     		ldrb	r0, [r4]	@ zero_extendqisi2
 2230 034a 1938     		subs	r0, r0, #25
 2231 034c FFF7FEFF 		bl	__aeabi_i2d
 2232              	.LVL362:
 2233 0350 43A3     		adr	r3, .L43
 2234 0352 D3E90023 		ldrd	r2, [r3]
 2235 0356 FFF7FEFF 		bl	__aeabi_dmul
 2236              	.LVL363:
 2237 035a 0246     		mov	r2, r0
 2238 035c 0B46     		mov	r3, r1
 2239 035e 3046     		mov	r0, r6
 2240 0360 3946     		mov	r1, r7
 2241 0362 FFF7FEFF 		bl	__aeabi_ddiv
 2242              	.LVL364:
 165:main.c        ****                 }
 2243              		.loc 1 165 0
 2244 0366 2378     		ldrb	r3, [r4]	@ zero_extendqisi2
 2245 0368 05EBC305 		add	r5, r5, r3, lsl #3
 2246 036c 0246     		mov	r2, r0
 2247 036e 0B46     		mov	r3, r1
 2248 0370 D5E90001 		ldrd	r0, [r5]
 2249              	.LVL365:
 2250 0374 FFF7FEFF 		bl	__aeabi_dsub
 2251              	.LVL366:
 2252 0378 C5E90001 		strd	r0, [r5]
 2253              	.LBE8:
 2254 037c 1DE0     		b	.L38
 2255              	.L37:
 169:main.c        ****                 }
 2256              		.loc 1 169 0
 2257 037e 3A4B     		ldr	r3, .L43+8
 2258 0380 1B78     		ldrb	r3, [r3]	@ zero_extendqisi2
 2259 0382 DCB2     		uxtb	r4, r3
 2260 0384 36A3     		adr	r3, .L43
 2261 0386 D3E90023 		ldrd	r2, [r3]
 2262 038a DDE90001 		ldrd	r0, [sp]
 2263 038e FFF7FEFF 		bl	__aeabi_ddiv
 2264              	.LVL367:
 2265 0392 0646     		mov	r6, r0
 2266 0394 0F46     		mov	r7, r1
 2267 0396 32A3     		adr	r3, .L43
 2268 0398 D3E90023 		ldrd	r2, [r3]
 2269 039c DDE90201 		ldrd	r0, [sp, #8]
 2270 03a0 FFF7FEFF 		bl	__aeabi_ddiv
 2271              	.LVL368:
 2272 03a4 0246     		mov	r2, r0
 2273 03a6 0B46     		mov	r3, r1
 2274 03a8 3046     		mov	r0, r6
 2275 03aa 3946     		mov	r1, r7
 2276 03ac FFF7FEFF 		bl	__aeabi_dsub
 2277              	.LVL369:
ARM GAS  C:\Users\s_bej\AppData\Local\Temp\cczIgxd7.s 			page 48


 2278 03b0 2E4B     		ldr	r3, .L43+12
 2279 03b2 03EBC403 		add	r3, r3, r4, lsl #3
 2280 03b6 C3E90001 		strd	r0, [r3]
 2281              	.L38:
 155:main.c        ****             {
 2282              		.loc 1 155 0 discriminator 2
 2283 03ba 2B4A     		ldr	r2, .L43+8
 2284 03bc 1378     		ldrb	r3, [r2]	@ zero_extendqisi2
 2285 03be 0133     		adds	r3, r3, #1
 2286 03c0 DBB2     		uxtb	r3, r3
 2287 03c2 1370     		strb	r3, [r2]
 2288              	.L36:
 155:main.c        ****             {
 2289              		.loc 1 155 0 is_stmt 0 discriminator 1
 2290 03c4 284B     		ldr	r3, .L43+8
 2291 03c6 1B78     		ldrb	r3, [r3]	@ zero_extendqisi2
 2292 03c8 DBB2     		uxtb	r3, r3
 2293 03ca 322B     		cmp	r3, #50
 2294 03cc 7FF676AF 		bls	.L39
 2295              	.LVL370:
 2296              	.L35:
 2297              	.LBE7:
 174:main.c        ****         LCD_Position(0,0);
 2298              		.loc 1 174 0 is_stmt 1
 2299 03d0 0120     		movs	r0, #1
 2300 03d2 FFF7FEFF 		bl	LCD_WriteControl
 2301              	.LVL371:
 175:main.c        ****         LCD_PrintString("Coef Calculados");
 2302              		.loc 1 175 0
 2303 03d6 0021     		movs	r1, #0
 2304 03d8 0846     		mov	r0, r1
 2305 03da FFF7FEFF 		bl	LCD_Position
 2306              	.LVL372:
 176:main.c        ****         LCD_Position(1,0);
 2307              		.loc 1 176 0
 2308 03de 2448     		ldr	r0, .L43+16
 2309 03e0 FFF7FEFF 		bl	LCD_PrintString
 2310              	.LVL373:
 177:main.c        ****         LCD_PrintString("Para F:");
 2311              		.loc 1 177 0
 2312 03e4 0021     		movs	r1, #0
 2313 03e6 0120     		movs	r0, #1
 2314 03e8 FFF7FEFF 		bl	LCD_Position
 2315              	.LVL374:
 178:main.c        ****         LCD_PutChar(frec[0]);
 2316              		.loc 1 178 0
 2317 03ec 2148     		ldr	r0, .L43+20
 2318 03ee FFF7FEFF 		bl	LCD_PrintString
 2319              	.LVL375:
 179:main.c        ****         LCD_PutChar(frec[1]);
 2320              		.loc 1 179 0
 2321 03f2 214C     		ldr	r4, .L43+24
 2322 03f4 2078     		ldrb	r0, [r4]	@ zero_extendqisi2
 2323 03f6 FFF7FEFF 		bl	LCD_PutChar
 2324              	.LVL376:
 180:main.c        ****         LCD_PutChar(frec[2]);
 2325              		.loc 1 180 0
ARM GAS  C:\Users\s_bej\AppData\Local\Temp\cczIgxd7.s 			page 49


 2326 03fa 6078     		ldrb	r0, [r4, #1]	@ zero_extendqisi2
 2327 03fc FFF7FEFF 		bl	LCD_PutChar
 2328              	.LVL377:
 181:main.c        ****         LCD_PutChar(frec[3]);
 2329              		.loc 1 181 0
 2330 0400 A078     		ldrb	r0, [r4, #2]	@ zero_extendqisi2
 2331 0402 FFF7FEFF 		bl	LCD_PutChar
 2332              	.LVL378:
 182:main.c        ****         CyDelay(3000);
 2333              		.loc 1 182 0
 2334 0406 E078     		ldrb	r0, [r4, #3]	@ zero_extendqisi2
 2335 0408 FFF7FEFF 		bl	LCD_PutChar
 2336              	.LVL379:
 183:main.c        ****         LCD_ClearDisplay();
 2337              		.loc 1 183 0
 2338 040c 40F6B830 		movw	r0, #3000
 2339 0410 FFF7FEFF 		bl	CyDelay
 2340              	.LVL380:
 184:main.c        ****         LCD_Position(0,0);
 2341              		.loc 1 184 0
 2342 0414 0120     		movs	r0, #1
 2343 0416 FFF7FEFF 		bl	LCD_WriteControl
 2344              	.LVL381:
 185:main.c        ****         LCD_PrintString("Inicia");
 2345              		.loc 1 185 0
 2346 041a 0021     		movs	r1, #0
 2347 041c 0846     		mov	r0, r1
 2348 041e FFF7FEFF 		bl	LCD_Position
 2349              	.LVL382:
 186:main.c        ****         LCD_Position(1,0);
 2350              		.loc 1 186 0
 2351 0422 1648     		ldr	r0, .L43+28
 2352 0424 FFF7FEFF 		bl	LCD_PrintString
 2353              	.LVL383:
 187:main.c        ****         LCD_PrintString("Filtrado");
 2354              		.loc 1 187 0
 2355 0428 0021     		movs	r1, #0
 2356 042a 0120     		movs	r0, #1
 2357 042c FFF7FEFF 		bl	LCD_Position
 2358              	.LVL384:
 188:main.c        ****         ADC_Start();
 2359              		.loc 1 188 0
 2360 0430 1348     		ldr	r0, .L43+32
 2361 0432 FFF7FEFF 		bl	LCD_PrintString
 2362              	.LVL385:
 189:main.c        ****         DAC_Start();
 2363              		.loc 1 189 0
 2364 0436 FFF7FEFF 		bl	ADC_Start
 2365              	.LVL386:
 190:main.c        ****         Muestreo_Start();
 2366              		.loc 1 190 0
 2367 043a FFF7FEFF 		bl	DAC_Start
 2368              	.LVL387:
 191:main.c        ****         Recorre_Uno_Stop();
 2369              		.loc 1 191 0
 2370 043e FFF7FEFF 		bl	Muestreo_Start
 2371              	.LVL388:
ARM GAS  C:\Users\s_bej\AppData\Local\Temp\cczIgxd7.s 			page 50


 192:main.c        ****         int_EndOfConv_StartEx(llegaMuestra);
 2372              		.loc 1 192 0
 2373 0442 FFF7FEFF 		bl	Recorre_Uno_Stop
 2374              	.LVL389:
 193:main.c        ****         int_CambioUno_Stop();
 2375              		.loc 1 193 0
 2376 0446 0F48     		ldr	r0, .L43+36
 2377 0448 FFF7FEFF 		bl	int_EndOfConv_StartEx
 2378              	.LVL390:
 194:main.c        ****         int_TeclaOprimida_Stop();
 2379              		.loc 1 194 0
 2380 044c FFF7FEFF 		bl	int_CambioUno_Stop
 2381              	.LVL391:
 195:main.c        ****     }
 2382              		.loc 1 195 0
 2383 0450 FFF7FEFF 		bl	int_TeclaOprimida_Stop
 2384              	.LVL392:
 2385              	.L22:
 2386              	.LBE4:
 197:main.c        **** 
 2387              		.loc 1 197 0
 2388 0454 06B0     		add	sp, sp, #24
 2389              		.cfi_def_cfa_offset 32
 2390              		@ sp needed
 2391 0456 BDE8F087 		pop	{r4, r5, r6, r7, r8, r9, r10, pc}
 2392              	.L44:
 2393 045a 00BFAFF3 		.align	3
 2393      0080
 2394              	.L43:
 2395 0460 F1D4C853 		.word	1405670641
 2396 0464 FB210940 		.word	1074340347
 2397 0468 00000000 		.word	i
 2398 046c 00000000 		.word	h
 2399 0470 20000000 		.word	.LC2
 2400 0474 30000000 		.word	.LC3
 2401 0478 00000000 		.word	frec
 2402 047c 38000000 		.word	.LC4
 2403 0480 40000000 		.word	.LC5
 2404 0484 00000000 		.word	llegaMuestra
 2405              		.cfi_endproc
 2406              	.LFE64:
 2407              		.size	Calc_coef, .-Calc_coef
 2408              		.section	.text.identificarTecla,"ax",%progbits
 2409              		.align	2
 2410              		.global	identificarTecla
 2411              		.thumb
 2412              		.thumb_func
 2413              		.type	identificarTecla, %function
 2414              	identificarTecla:
 2415              	.LFB65:
 203:main.c        ****     columna = Columnas_Read();
 2416              		.loc 1 203 0
 2417              		.cfi_startproc
 2418              		@ args = 0, pretend = 0, frame = 0
 2419              		@ frame_needed = 0, uses_anonymous_args = 0
 2420 0000 10B5     		push	{r4, lr}
 2421              		.cfi_def_cfa_offset 8
ARM GAS  C:\Users\s_bej\AppData\Local\Temp\cczIgxd7.s 			page 51


 2422              		.cfi_offset 4, -8
 2423              		.cfi_offset 14, -4
 204:main.c        ****     if(fila == 1)
 2424              		.loc 1 204 0
 2425 0002 FFF7FEFF 		bl	Columnas_Read
 2426              	.LVL393:
 2427 0006 8C4B     		ldr	r3, .L70
 2428 0008 1870     		strb	r0, [r3]
 205:main.c        ****     {
 2429              		.loc 1 205 0
 2430 000a 8C4B     		ldr	r3, .L70+4
 2431 000c 1B78     		ldrb	r3, [r3]	@ zero_extendqisi2
 2432 000e DBB2     		uxtb	r3, r3
 2433 0010 012B     		cmp	r3, #1
 2434 0012 13D1     		bne	.L46
 207:main.c        ****         {
 2435              		.loc 1 207 0
 2436 0014 884B     		ldr	r3, .L70
 2437 0016 1B78     		ldrb	r3, [r3]	@ zero_extendqisi2
 2438 0018 DBB2     		uxtb	r3, r3
 2439 001a 022B     		cmp	r3, #2
 2440 001c 07D0     		beq	.L47
 2441 001e 042B     		cmp	r3, #4
 2442 0020 09D0     		beq	.L48
 2443 0022 012B     		cmp	r3, #1
 2444 0024 0AD1     		bne	.L46
 210:main.c        ****                 break;
 2445              		.loc 1 210 0
 2446 0026 3122     		movs	r2, #49
 2447 0028 854B     		ldr	r3, .L70+8
 2448 002a 1A70     		strb	r2, [r3]
 211:main.c        ****             case 0b00000010:
 2449              		.loc 1 211 0
 2450 002c 06E0     		b	.L46
 2451              	.L47:
 213:main.c        ****                 break;
 2452              		.loc 1 213 0
 2453 002e 3222     		movs	r2, #50
 2454 0030 834B     		ldr	r3, .L70+8
 2455 0032 1A70     		strb	r2, [r3]
 214:main.c        ****             case 0b00000100:
 2456              		.loc 1 214 0
 2457 0034 02E0     		b	.L46
 2458              	.L48:
 216:main.c        ****                 break;
 2459              		.loc 1 216 0
 2460 0036 3322     		movs	r2, #51
 2461 0038 814B     		ldr	r3, .L70+8
 2462 003a 1A70     		strb	r2, [r3]
 2463              	.L46:
 220:main.c        ****     {
 2464              		.loc 1 220 0
 2465 003c 7F4B     		ldr	r3, .L70+4
 2466 003e 1B78     		ldrb	r3, [r3]	@ zero_extendqisi2
 2467 0040 DBB2     		uxtb	r3, r3
 2468 0042 022B     		cmp	r3, #2
 2469 0044 13D1     		bne	.L50
ARM GAS  C:\Users\s_bej\AppData\Local\Temp\cczIgxd7.s 			page 52


 222:main.c        ****         {
 2470              		.loc 1 222 0
 2471 0046 7C4B     		ldr	r3, .L70
 2472 0048 1B78     		ldrb	r3, [r3]	@ zero_extendqisi2
 2473 004a DBB2     		uxtb	r3, r3
 2474 004c 022B     		cmp	r3, #2
 2475 004e 07D0     		beq	.L51
 2476 0050 042B     		cmp	r3, #4
 2477 0052 09D0     		beq	.L52
 2478 0054 012B     		cmp	r3, #1
 2479 0056 0AD1     		bne	.L50
 225:main.c        ****                 break;
 2480              		.loc 1 225 0
 2481 0058 3422     		movs	r2, #52
 2482 005a 794B     		ldr	r3, .L70+8
 2483 005c 1A70     		strb	r2, [r3]
 226:main.c        ****             case 0b00000010:
 2484              		.loc 1 226 0
 2485 005e 06E0     		b	.L50
 2486              	.L51:
 228:main.c        ****                 break;
 2487              		.loc 1 228 0
 2488 0060 3522     		movs	r2, #53
 2489 0062 774B     		ldr	r3, .L70+8
 2490 0064 1A70     		strb	r2, [r3]
 229:main.c        ****             case 0b00000100:
 2491              		.loc 1 229 0
 2492 0066 02E0     		b	.L50
 2493              	.L52:
 231:main.c        ****                 break;
 2494              		.loc 1 231 0
 2495 0068 3622     		movs	r2, #54
 2496 006a 754B     		ldr	r3, .L70+8
 2497 006c 1A70     		strb	r2, [r3]
 2498              	.L50:
 235:main.c        ****     {
 2499              		.loc 1 235 0
 2500 006e 734B     		ldr	r3, .L70+4
 2501 0070 1B78     		ldrb	r3, [r3]	@ zero_extendqisi2
 2502 0072 DBB2     		uxtb	r3, r3
 2503 0074 042B     		cmp	r3, #4
 2504 0076 13D1     		bne	.L54
 237:main.c        ****         {
 2505              		.loc 1 237 0
 2506 0078 6F4B     		ldr	r3, .L70
 2507 007a 1B78     		ldrb	r3, [r3]	@ zero_extendqisi2
 2508 007c DBB2     		uxtb	r3, r3
 2509 007e 022B     		cmp	r3, #2
 2510 0080 07D0     		beq	.L55
 2511 0082 042B     		cmp	r3, #4
 2512 0084 09D0     		beq	.L56
 2513 0086 012B     		cmp	r3, #1
 2514 0088 0AD1     		bne	.L54
 240:main.c        ****                 break;
 2515              		.loc 1 240 0
 2516 008a 3722     		movs	r2, #55
 2517 008c 6C4B     		ldr	r3, .L70+8
ARM GAS  C:\Users\s_bej\AppData\Local\Temp\cczIgxd7.s 			page 53


 2518 008e 1A70     		strb	r2, [r3]
 241:main.c        ****             case 0b00000010:
 2519              		.loc 1 241 0
 2520 0090 06E0     		b	.L54
 2521              	.L55:
 243:main.c        ****                 break;
 2522              		.loc 1 243 0
 2523 0092 3822     		movs	r2, #56
 2524 0094 6A4B     		ldr	r3, .L70+8
 2525 0096 1A70     		strb	r2, [r3]
 244:main.c        ****             case 0b00000100:
 2526              		.loc 1 244 0
 2527 0098 02E0     		b	.L54
 2528              	.L56:
 246:main.c        ****                 break;
 2529              		.loc 1 246 0
 2530 009a 3922     		movs	r2, #57
 2531 009c 684B     		ldr	r3, .L70+8
 2532 009e 1A70     		strb	r2, [r3]
 2533              	.L54:
 250:main.c        ****     {
 2534              		.loc 1 250 0
 2535 00a0 664B     		ldr	r3, .L70+4
 2536 00a2 1B78     		ldrb	r3, [r3]	@ zero_extendqisi2
 2537 00a4 DBB2     		uxtb	r3, r3
 2538 00a6 082B     		cmp	r3, #8
 2539 00a8 13D1     		bne	.L58
 252:main.c        ****         {
 2540              		.loc 1 252 0
 2541 00aa 634B     		ldr	r3, .L70
 2542 00ac 1B78     		ldrb	r3, [r3]	@ zero_extendqisi2
 2543 00ae DBB2     		uxtb	r3, r3
 2544 00b0 022B     		cmp	r3, #2
 2545 00b2 07D0     		beq	.L59
 2546 00b4 042B     		cmp	r3, #4
 2547 00b6 09D0     		beq	.L60
 2548 00b8 012B     		cmp	r3, #1
 2549 00ba 0AD1     		bne	.L58
 255:main.c        ****                 break;
 2550              		.loc 1 255 0
 2551 00bc 2A22     		movs	r2, #42
 2552 00be 604B     		ldr	r3, .L70+8
 2553 00c0 1A70     		strb	r2, [r3]
 256:main.c        ****             case 0b00000010:
 2554              		.loc 1 256 0
 2555 00c2 06E0     		b	.L58
 2556              	.L59:
 258:main.c        ****                 break;
 2557              		.loc 1 258 0
 2558 00c4 3022     		movs	r2, #48
 2559 00c6 5E4B     		ldr	r3, .L70+8
 2560 00c8 1A70     		strb	r2, [r3]
 259:main.c        ****             case 0b00000100:
 2561              		.loc 1 259 0
 2562 00ca 02E0     		b	.L58
 2563              	.L60:
 261:main.c        ****                 break;
ARM GAS  C:\Users\s_bej\AppData\Local\Temp\cczIgxd7.s 			page 54


 2564              		.loc 1 261 0
 2565 00cc 2322     		movs	r2, #35
 2566 00ce 5C4B     		ldr	r3, .L70+8
 2567 00d0 1A70     		strb	r2, [r3]
 2568              	.L58:
 266:main.c        ****     {
 2569              		.loc 1 266 0
 2570 00d2 5C4B     		ldr	r3, .L70+12
 2571 00d4 1B78     		ldrb	r3, [r3]	@ zero_extendqisi2
 2572 00d6 DBB2     		uxtb	r3, r3
 2573 00d8 032B     		cmp	r3, #3
 2574 00da 23D1     		bne	.L62
 269:main.c        ****         {
 2575              		.loc 1 269 0
 2576 00dc 584B     		ldr	r3, .L70+8
 2577 00de 1B78     		ldrb	r3, [r3]	@ zero_extendqisi2
 2578 00e0 DBB2     		uxtb	r3, r3
 2579 00e2 2A2B     		cmp	r3, #42
 2580 00e4 1ED1     		bne	.L62
 271:main.c        ****             LCD_PrintString("                ");
 2581              		.loc 1 271 0
 2582 00e6 0021     		movs	r1, #0
 2583 00e8 0846     		mov	r0, r1
 2584 00ea FFF7FEFF 		bl	LCD_Position
 2585              	.LVL394:
 272:main.c        ****             LCD_Position(0,0);
 2586              		.loc 1 272 0
 2587 00ee 564C     		ldr	r4, .L70+16
 2588 00f0 2046     		mov	r0, r4
 2589 00f2 FFF7FEFF 		bl	LCD_PrintString
 2590              	.LVL395:
 273:main.c        ****             LCD_PrintString("Calculando Coef");
 2591              		.loc 1 273 0
 2592 00f6 0021     		movs	r1, #0
 2593 00f8 0846     		mov	r0, r1
 2594 00fa FFF7FEFF 		bl	LCD_Position
 2595              	.LVL396:
 274:main.c        ****             LCD_Position(1,0);
 2596              		.loc 1 274 0
 2597 00fe 5348     		ldr	r0, .L70+20
 2598 0100 FFF7FEFF 		bl	LCD_PrintString
 2599              	.LVL397:
 275:main.c        ****             LCD_PrintString("                ");
 2600              		.loc 1 275 0
 2601 0104 0021     		movs	r1, #0
 2602 0106 0120     		movs	r0, #1
 2603 0108 FFF7FEFF 		bl	LCD_Position
 2604              	.LVL398:
 276:main.c        ****             LCD_Position(1,0);
 2605              		.loc 1 276 0
 2606 010c 2046     		mov	r0, r4
 2607 010e FFF7FEFF 		bl	LCD_PrintString
 2608              	.LVL399:
 277:main.c        ****             LCD_PrintString("...");
 2609              		.loc 1 277 0
 2610 0112 0021     		movs	r1, #0
 2611 0114 0120     		movs	r0, #1
ARM GAS  C:\Users\s_bej\AppData\Local\Temp\cczIgxd7.s 			page 55


 2612 0116 FFF7FEFF 		bl	LCD_Position
 2613              	.LVL400:
 278:main.c        ****             Calc_coef();
 2614              		.loc 1 278 0
 2615 011a 4D48     		ldr	r0, .L70+24
 2616 011c FFF7FEFF 		bl	LCD_PrintString
 2617              	.LVL401:
 279:main.c        ****         }
 2618              		.loc 1 279 0
 2619 0120 FFF7FEFF 		bl	Calc_coef
 2620              	.LVL402:
 2621              	.L62:
 282:main.c        ****     {
 2622              		.loc 1 282 0
 2623 0124 474B     		ldr	r3, .L70+12
 2624 0126 1B78     		ldrb	r3, [r3]	@ zero_extendqisi2
 2625 0128 DBB2     		uxtb	r3, r3
 2626 012a 022B     		cmp	r3, #2
 2627 012c 5DD1     		bne	.L63
 285:main.c        ****         {
 2628              		.loc 1 285 0
 2629 012e 444B     		ldr	r3, .L70+8
 2630 0130 1A78     		ldrb	r2, [r3]	@ zero_extendqisi2
 2631 0132 303A     		subs	r2, r2, #48
 2632 0134 474B     		ldr	r3, .L70+28
 2633 0136 1B78     		ldrb	r3, [r3]	@ zero_extendqisi2
 2634 0138 DBB2     		uxtb	r3, r3
 2635 013a 9A42     		cmp	r2, r3
 2636 013c 28D0     		beq	.L64
 287:main.c        ****             LCD_PutChar(tecla);
 2637              		.loc 1 287 0
 2638 013e 464C     		ldr	r4, .L70+32
 2639 0140 2378     		ldrb	r3, [r4]	@ zero_extendqisi2
 2640 0142 DBB2     		uxtb	r3, r3
 2641 0144 3E49     		ldr	r1, .L70+8
 2642 0146 0A78     		ldrb	r2, [r1]	@ zero_extendqisi2
 2643 0148 D2B2     		uxtb	r2, r2
 2644 014a 4448     		ldr	r0, .L70+36
 2645 014c C254     		strb	r2, [r0, r3]
 288:main.c        ****             cont_char++;
 2646              		.loc 1 288 0
 2647 014e 0878     		ldrb	r0, [r1]	@ zero_extendqisi2
 2648 0150 FFF7FEFF 		bl	LCD_PutChar
 2649              	.LVL403:
 289:main.c        ****             if(cont_char == 4)
 2650              		.loc 1 289 0
 2651 0154 2378     		ldrb	r3, [r4]	@ zero_extendqisi2
 2652 0156 0133     		adds	r3, r3, #1
 2653 0158 DBB2     		uxtb	r3, r3
 2654 015a 2370     		strb	r3, [r4]
 290:main.c        ****             {
 2655              		.loc 1 290 0
 2656 015c 2378     		ldrb	r3, [r4]	@ zero_extendqisi2
 2657 015e DBB2     		uxtb	r3, r3
 2658 0160 042B     		cmp	r3, #4
 2659 0162 42D1     		bne	.L63
 292:main.c        ****                 LCD_PrintString("                ");
ARM GAS  C:\Users\s_bej\AppData\Local\Temp\cczIgxd7.s 			page 56


 2660              		.loc 1 292 0
 2661 0164 0021     		movs	r1, #0
 2662 0166 0846     		mov	r0, r1
 2663 0168 FFF7FEFF 		bl	LCD_Position
 2664              	.LVL404:
 293:main.c        ****                 LCD_Position(0,0);
 2665              		.loc 1 293 0
 2666 016c 3648     		ldr	r0, .L70+16
 2667 016e FFF7FEFF 		bl	LCD_PrintString
 2668              	.LVL405:
 294:main.c        ****                 LCD_PrintString("Presione *");
 2669              		.loc 1 294 0
 2670 0172 0021     		movs	r1, #0
 2671 0174 0846     		mov	r0, r1
 2672 0176 FFF7FEFF 		bl	LCD_Position
 2673              	.LVL406:
 295:main.c        ****                 CyDelay(2000);
 2674              		.loc 1 295 0
 2675 017a 3948     		ldr	r0, .L70+40
 2676 017c FFF7FEFF 		bl	LCD_PrintString
 2677              	.LVL407:
 296:main.c        ****                 paso = 3;
 2678              		.loc 1 296 0
 2679 0180 4FF4FA60 		mov	r0, #2000
 2680 0184 FFF7FEFF 		bl	CyDelay
 2681              	.LVL408:
 297:main.c        ****             }
 2682              		.loc 1 297 0
 2683 0188 0322     		movs	r2, #3
 2684 018a 2E4B     		ldr	r3, .L70+12
 2685 018c 1A70     		strb	r2, [r3]
 2686 018e 2CE0     		b	.L63
 2687              	.L64:
 302:main.c        ****             frec[cont_char] = tecla;
 2688              		.loc 1 302 0
 2689 0190 304B     		ldr	r3, .L70+28
 2690 0192 1B78     		ldrb	r3, [r3]	@ zero_extendqisi2
 2691 0194 3033     		adds	r3, r3, #48
 2692 0196 DBB2     		uxtb	r3, r3
 2693 0198 294A     		ldr	r2, .L70+8
 2694 019a 1370     		strb	r3, [r2]
 303:main.c        ****             LCD_PutChar(tecla);
 2695              		.loc 1 303 0
 2696 019c 2E4C     		ldr	r4, .L70+32
 2697 019e 2378     		ldrb	r3, [r4]	@ zero_extendqisi2
 2698 01a0 DBB2     		uxtb	r3, r3
 2699 01a2 1178     		ldrb	r1, [r2]	@ zero_extendqisi2
 2700 01a4 C9B2     		uxtb	r1, r1
 2701 01a6 2D48     		ldr	r0, .L70+36
 2702 01a8 C154     		strb	r1, [r0, r3]
 304:main.c        ****             cont_char++;
 2703              		.loc 1 304 0
 2704 01aa 1078     		ldrb	r0, [r2]	@ zero_extendqisi2
 2705 01ac FFF7FEFF 		bl	LCD_PutChar
 2706              	.LVL409:
 305:main.c        ****             if(cont_char == 4)
 2707              		.loc 1 305 0
ARM GAS  C:\Users\s_bej\AppData\Local\Temp\cczIgxd7.s 			page 57


 2708 01b0 2378     		ldrb	r3, [r4]	@ zero_extendqisi2
 2709 01b2 0133     		adds	r3, r3, #1
 2710 01b4 DBB2     		uxtb	r3, r3
 2711 01b6 2370     		strb	r3, [r4]
 306:main.c        ****             {
 2712              		.loc 1 306 0
 2713 01b8 2378     		ldrb	r3, [r4]	@ zero_extendqisi2
 2714 01ba DBB2     		uxtb	r3, r3
 2715 01bc 042B     		cmp	r3, #4
 2716 01be 14D1     		bne	.L63
 308:main.c        ****                 LCD_PrintString("                ");
 2717              		.loc 1 308 0
 2718 01c0 0021     		movs	r1, #0
 2719 01c2 0846     		mov	r0, r1
 2720 01c4 FFF7FEFF 		bl	LCD_Position
 2721              	.LVL410:
 309:main.c        ****                 LCD_Position(0,0);
 2722              		.loc 1 309 0
 2723 01c8 1F48     		ldr	r0, .L70+16
 2724 01ca FFF7FEFF 		bl	LCD_PrintString
 2725              	.LVL411:
 310:main.c        ****                 LCD_PrintString("Presione *");
 2726              		.loc 1 310 0
 2727 01ce 0021     		movs	r1, #0
 2728 01d0 0846     		mov	r0, r1
 2729 01d2 FFF7FEFF 		bl	LCD_Position
 2730              	.LVL412:
 311:main.c        ****                 CyDelay(2000);
 2731              		.loc 1 311 0
 2732 01d6 2248     		ldr	r0, .L70+40
 2733 01d8 FFF7FEFF 		bl	LCD_PrintString
 2734              	.LVL413:
 312:main.c        ****                 paso = 3;
 2735              		.loc 1 312 0
 2736 01dc 4FF4FA60 		mov	r0, #2000
 2737 01e0 FFF7FEFF 		bl	CyDelay
 2738              	.LVL414:
 313:main.c        ****             }
 2739              		.loc 1 313 0
 2740 01e4 0322     		movs	r2, #3
 2741 01e6 174B     		ldr	r3, .L70+12
 2742 01e8 1A70     		strb	r2, [r3]
 2743              	.L63:
 317:main.c        ****     {   
 2744              		.loc 1 317 0
 2745 01ea 164B     		ldr	r3, .L70+12
 2746 01ec 1B78     		ldrb	r3, [r3]	@ zero_extendqisi2
 2747 01ee DBB2     		uxtb	r3, r3
 2748 01f0 012B     		cmp	r3, #1
 2749 01f2 1BD1     		bne	.L65
 320:main.c        ****         {
 2750              		.loc 1 320 0
 2751 01f4 124B     		ldr	r3, .L70+8
 2752 01f6 1B78     		ldrb	r3, [r3]	@ zero_extendqisi2
 2753 01f8 DBB2     		uxtb	r3, r3
 2754 01fa 322B     		cmp	r3, #50
 2755 01fc 0AD0     		beq	.L66
ARM GAS  C:\Users\s_bej\AppData\Local\Temp\cczIgxd7.s 			page 58


 2756 01fe 332B     		cmp	r3, #51
 2757 0200 0ED0     		beq	.L67
 2758 0202 312B     		cmp	r3, #49
 2759 0204 12D1     		bne	.L65
 323:main.c        ****                 paso = 2;
 2760              		.loc 1 323 0
 2761 0206 0122     		movs	r2, #1
 2762 0208 124B     		ldr	r3, .L70+28
 2763 020a 1A70     		strb	r2, [r3]
 324:main.c        ****                 break;
 2764              		.loc 1 324 0
 2765 020c 0222     		movs	r2, #2
 2766 020e 0D4B     		ldr	r3, .L70+12
 2767 0210 1A70     		strb	r2, [r3]
 325:main.c        ****             case '2':
 2768              		.loc 1 325 0
 2769 0212 0BE0     		b	.L65
 2770              	.L66:
 327:main.c        ****                 paso = 2;
 2771              		.loc 1 327 0
 2772 0214 0223     		movs	r3, #2
 2773 0216 0F4A     		ldr	r2, .L70+28
 2774 0218 1370     		strb	r3, [r2]
 328:main.c        ****                 break;
 2775              		.loc 1 328 0
 2776 021a 0A4A     		ldr	r2, .L70+12
 2777 021c 1370     		strb	r3, [r2]
 329:main.c        ****             case '3':                
 2778              		.loc 1 329 0
 2779 021e 05E0     		b	.L65
 2780              	.L67:
 331:main.c        ****                 paso = 2;
 2781              		.loc 1 331 0
 2782 0220 0322     		movs	r2, #3
 2783 0222 0C4B     		ldr	r3, .L70+28
 2784 0224 1A70     		strb	r2, [r3]
 332:main.c        ****                 break;
 2785              		.loc 1 332 0
 2786 0226 0222     		movs	r2, #2
 2787 0228 064B     		ldr	r3, .L70+12
 2788 022a 1A70     		strb	r2, [r3]
 2789              	.L65:
 336:main.c        ****     Columnas_ClearInterrupt();
 2790              		.loc 1 336 0
 2791 022c FA20     		movs	r0, #250
 2792 022e FFF7FEFF 		bl	CyDelay
 2793              	.LVL415:
 337:main.c        **** }
 2794              		.loc 1 337 0
 2795 0232 FFF7FEFF 		bl	Columnas_ClearInterrupt
 2796              	.LVL416:
 2797 0236 10BD     		pop	{r4, pc}
 2798              	.L71:
 2799              		.align	2
 2800              	.L70:
 2801 0238 00000000 		.word	columna
 2802 023c 00000000 		.word	fila
ARM GAS  C:\Users\s_bej\AppData\Local\Temp\cczIgxd7.s 			page 59


 2803 0240 00000000 		.word	tecla
 2804 0244 00000000 		.word	paso
 2805 0248 4C000000 		.word	.LC6
 2806 024c 60000000 		.word	.LC7
 2807 0250 70000000 		.word	.LC8
 2808 0254 00000000 		.word	filtro
 2809 0258 00000000 		.word	cont_char
 2810 025c 00000000 		.word	frec
 2811 0260 74000000 		.word	.LC9
 2812              		.cfi_endproc
 2813              	.LFE65:
 2814              		.size	identificarTecla, .-identificarTecla
 2815              		.section	.text.main,"ax",%progbits
 2816              		.align	2
 2817              		.global	main
 2818              		.thumb
 2819              		.thumb_func
 2820              		.type	main, %function
 2821              	main:
 2822              	.LFB67:
 358:main.c        **** }
 359:main.c        **** 
 360:main.c        **** int main(void)
 361:main.c        **** {
 2823              		.loc 1 361 0
 2824              		.cfi_startproc
 2825              		@ Volatile: function does not return.
 2826              		@ args = 0, pretend = 0, frame = 0
 2827              		@ frame_needed = 0, uses_anonymous_args = 0
 2828 0000 08B5     		push	{r3, lr}
 2829              		.cfi_def_cfa_offset 8
 2830              		.cfi_offset 3, -8
 2831              		.cfi_offset 14, -4
 362:main.c        ****     CyGlobalIntEnable; /* Enable global interrupts. */    
 2832              		.loc 1 362 0
 2833              		.syntax unified
 2834              	@ 362 "main.c" 1
 2835 0002 62B6     		CPSIE   i
 2836              	@ 0 "" 2
 363:main.c        ****     /* Place your initialization/startup code here (e.g. MyInst_Start()) */
 364:main.c        ****     //Inicializamos los componentes    
 365:main.c        ****     LCD_Start();
 2837              		.loc 1 365 0
 2838              		.thumb
 2839              		.syntax unified
 2840 0004 FFF7FEFF 		bl	LCD_Start
 2841              	.LVL417:
 366:main.c        ****     Recorre_Uno_Start();    
 2842              		.loc 1 366 0
 2843 0008 FFF7FEFF 		bl	Recorre_Uno_Start
 2844              	.LVL418:
 367:main.c        ****     //Fin inicialización componentes
 368:main.c        ****     //Inicializamos las interrupciones    
 369:main.c        ****     int_TeclaOprimida_StartEx(identificarTecla);
 2845              		.loc 1 369 0
 2846 000c 3C48     		ldr	r0, .L81
 2847 000e FFF7FEFF 		bl	int_TeclaOprimida_StartEx
ARM GAS  C:\Users\s_bej\AppData\Local\Temp\cczIgxd7.s 			page 60


 2848              	.LVL419:
 370:main.c        ****     int_CambioUno_StartEx(cambiarUno);
 2849              		.loc 1 370 0
 2850 0012 3C48     		ldr	r0, .L81+4
 2851 0014 FFF7FEFF 		bl	int_CambioUno_StartEx
 2852              	.LVL420:
 371:main.c        ****     //Fin inicialización de interrupciones
 372:main.c        ****     //Inicializamos variables
 373:main.c        ****     fila = 1;
 2853              		.loc 1 373 0
 2854 0018 0123     		movs	r3, #1
 2855 001a 3B4A     		ldr	r2, .L81+8
 2856 001c 1370     		strb	r3, [r2]
 374:main.c        ****     paso = 1;
 2857              		.loc 1 374 0
 2858 001e 3B4A     		ldr	r2, .L81+12
 2859 0020 1370     		strb	r3, [r2]
 375:main.c        ****     cont_char = 0;
 2860              		.loc 1 375 0
 2861 0022 0023     		movs	r3, #0
 2862 0024 3A4A     		ldr	r2, .L81+16
 2863 0026 1370     		strb	r3, [r2]
 376:main.c        ****     u_frec = 0;
 2864              		.loc 1 376 0
 2865 0028 3A4A     		ldr	r2, .L81+20
 2866 002a 1370     		strb	r3, [r2]
 377:main.c        ****     d_frec = 0;
 2867              		.loc 1 377 0
 2868 002c 3A4A     		ldr	r2, .L81+24
 2869 002e 1370     		strb	r3, [r2]
 378:main.c        ****     c_frec = 0;
 2870              		.loc 1 378 0
 2871 0030 3A4A     		ldr	r2, .L81+28
 2872 0032 1370     		strb	r3, [r2]
 379:main.c        ****     um_frec = 0;
 2873              		.loc 1 379 0
 2874 0034 3A4A     		ldr	r2, .L81+32
 2875 0036 1370     		strb	r3, [r2]
 380:main.c        ****     frec_final = 0;
 2876              		.loc 1 380 0
 2877 0038 3A4A     		ldr	r2, .L81+36
 2878 003a 1380     		strh	r3, [r2]	@ movhi
 2879              	.L79:
 381:main.c        ****     //Fin inicialización variables      
 382:main.c        ****     for(;;)
 383:main.c        ****     {    
 384:main.c        ****         //En el for infinito vamos a lidiar con la visualización
 385:main.c        ****         if(paso == 1)
 2880              		.loc 1 385 0
 2881 003c 334B     		ldr	r3, .L81+12
 2882 003e 1B78     		ldrb	r3, [r3]	@ zero_extendqisi2
 2883 0040 DBB2     		uxtb	r3, r3
 2884 0042 012B     		cmp	r3, #1
 2885 0044 09D1     		bne	.L73
 386:main.c        ****         {
 387:main.c        ****             //Preguntamos por el tipo de filtro
 388:main.c        ****             LCD_PrintString("Filtro: 1)P.Bajas");
ARM GAS  C:\Users\s_bej\AppData\Local\Temp\cczIgxd7.s 			page 61


 2886              		.loc 1 388 0
 2887 0046 3848     		ldr	r0, .L81+40
 2888 0048 FFF7FEFF 		bl	LCD_PrintString
 2889              	.LVL421:
 389:main.c        ****             LCD_Position(1,0);
 2890              		.loc 1 389 0
 2891 004c 0021     		movs	r1, #0
 2892 004e 0120     		movs	r0, #1
 2893 0050 FFF7FEFF 		bl	LCD_Position
 2894              	.LVL422:
 390:main.c        ****             LCD_PrintString("2)P.Alta 3)P.Banda");
 2895              		.loc 1 390 0
 2896 0054 3548     		ldr	r0, .L81+44
 2897 0056 FFF7FEFF 		bl	LCD_PrintString
 2898              	.LVL423:
 2899              	.L73:
 391:main.c        ****         }
 392:main.c        ****         if(paso == 2)
 2900              		.loc 1 392 0
 2901 005a 2C4B     		ldr	r3, .L81+12
 2902 005c 1B78     		ldrb	r3, [r3]	@ zero_extendqisi2
 2903 005e DBB2     		uxtb	r3, r3
 2904 0060 022B     		cmp	r3, #2
 2905 0062 47D1     		bne	.L74
 393:main.c        ****         {
 394:main.c        ****             //Pedimos la frecuencia del filtro intermitentemente
 395:main.c        ****             if(cont_char == 0)
 2906              		.loc 1 395 0
 2907 0064 2A4B     		ldr	r3, .L81+16
 2908 0066 1B78     		ldrb	r3, [r3]	@ zero_extendqisi2
 2909 0068 13F0FF0F 		tst	r3, #255
 2910 006c 42D1     		bne	.L74
 396:main.c        ****             {
 397:main.c        ****                 LCD_ClearDisplay();
 2911              		.loc 1 397 0
 2912 006e 0120     		movs	r0, #1
 2913 0070 FFF7FEFF 		bl	LCD_WriteControl
 2914              	.LVL424:
 398:main.c        ****                 int_TeclaOprimida_Stop();
 2915              		.loc 1 398 0
 2916 0074 FFF7FEFF 		bl	int_TeclaOprimida_Stop
 2917              	.LVL425:
 399:main.c        ****                 LCD_PrintString("Digite una frec");                  
 2918              		.loc 1 399 0
 2919 0078 2D48     		ldr	r0, .L81+48
 2920 007a FFF7FEFF 		bl	LCD_PrintString
 2921              	.LVL426:
 400:main.c        ****                 LCD_Position(1,0);
 2922              		.loc 1 400 0
 2923 007e 0021     		movs	r1, #0
 2924 0080 0120     		movs	r0, #1
 2925 0082 FFF7FEFF 		bl	LCD_Position
 2926              	.LVL427:
 401:main.c        ****                 LCD_PrintString("de 4 digitos");
 2927              		.loc 1 401 0
 2928 0086 2B48     		ldr	r0, .L81+52
 2929 0088 FFF7FEFF 		bl	LCD_PrintString
ARM GAS  C:\Users\s_bej\AppData\Local\Temp\cczIgxd7.s 			page 62


 2930              	.LVL428:
 402:main.c        ****                 CyDelay(2500);                
 2931              		.loc 1 402 0
 2932 008c 40F6C410 		movw	r0, #2500
 2933 0090 FFF7FEFF 		bl	CyDelay
 2934              	.LVL429:
 403:main.c        ****                 LCD_Position(0,0);
 2935              		.loc 1 403 0
 2936 0094 0021     		movs	r1, #0
 2937 0096 0846     		mov	r0, r1
 2938 0098 FFF7FEFF 		bl	LCD_Position
 2939              	.LVL430:
 404:main.c        ****                 LCD_PrintString("                ");
 2940              		.loc 1 404 0
 2941 009c 2648     		ldr	r0, .L81+56
 2942 009e FFF7FEFF 		bl	LCD_PrintString
 2943              	.LVL431:
 405:main.c        ****                 LCD_Position(0,0);
 2944              		.loc 1 405 0
 2945 00a2 0021     		movs	r1, #0
 2946 00a4 0846     		mov	r0, r1
 2947 00a6 FFF7FEFF 		bl	LCD_Position
 2948              	.LVL432:
 406:main.c        ****                 switch(filtro)
 2949              		.loc 1 406 0
 2950 00aa 244B     		ldr	r3, .L81+60
 2951 00ac 1B78     		ldrb	r3, [r3]	@ zero_extendqisi2
 2952 00ae DBB2     		uxtb	r3, r3
 2953 00b0 022B     		cmp	r3, #2
 2954 00b2 07D0     		beq	.L76
 2955 00b4 032B     		cmp	r3, #3
 2956 00b6 09D0     		beq	.L77
 2957 00b8 012B     		cmp	r3, #1
 2958 00ba 0AD1     		bne	.L75
 407:main.c        ****                 {
 408:main.c        ****                     case 1:                
 409:main.c        ****                         LCD_PrintString("Digite F corte");
 2959              		.loc 1 409 0
 2960 00bc 2048     		ldr	r0, .L81+64
 2961 00be FFF7FEFF 		bl	LCD_PrintString
 2962              	.LVL433:
 410:main.c        ****                         break;
 2963              		.loc 1 410 0
 2964 00c2 06E0     		b	.L75
 2965              	.L76:
 411:main.c        ****                     case 2:                
 412:main.c        ****                         LCD_PrintString("Digite F corte");
 2966              		.loc 1 412 0
 2967 00c4 1E48     		ldr	r0, .L81+64
 2968 00c6 FFF7FEFF 		bl	LCD_PrintString
 2969              	.LVL434:
 413:main.c        ****                         break;
 2970              		.loc 1 413 0
 2971 00ca 02E0     		b	.L75
 2972              	.L77:
 414:main.c        ****                     case 3:                
 415:main.c        ****                         LCD_PrintString("Digite F central");
ARM GAS  C:\Users\s_bej\AppData\Local\Temp\cczIgxd7.s 			page 63


 2973              		.loc 1 415 0
 2974 00cc 1D48     		ldr	r0, .L81+68
 2975 00ce FFF7FEFF 		bl	LCD_PrintString
 2976              	.LVL435:
 2977              	.L75:
 416:main.c        ****                         break;
 417:main.c        ****                 }
 418:main.c        ****                 LCD_Position(1,0);
 2978              		.loc 1 418 0
 2979 00d2 0021     		movs	r1, #0
 2980 00d4 0120     		movs	r0, #1
 2981 00d6 FFF7FEFF 		bl	LCD_Position
 2982              	.LVL436:
 419:main.c        ****                 LCD_PrintString("                ");
 2983              		.loc 1 419 0
 2984 00da 1748     		ldr	r0, .L81+56
 2985 00dc FFF7FEFF 		bl	LCD_PrintString
 2986              	.LVL437:
 420:main.c        ****                 LCD_Position(1,0);        
 2987              		.loc 1 420 0
 2988 00e0 0021     		movs	r1, #0
 2989 00e2 0120     		movs	r0, #1
 2990 00e4 FFF7FEFF 		bl	LCD_Position
 2991              	.LVL438:
 421:main.c        ****                 LCD_PrintString("Frec:");
 2992              		.loc 1 421 0
 2993 00e8 1748     		ldr	r0, .L81+72
 2994 00ea FFF7FEFF 		bl	LCD_PrintString
 2995              	.LVL439:
 422:main.c        ****                 int_TeclaOprimida_StartEx(identificarTecla);
 2996              		.loc 1 422 0
 2997 00ee 0448     		ldr	r0, .L81
 2998 00f0 FFF7FEFF 		bl	int_TeclaOprimida_StartEx
 2999              	.LVL440:
 3000              	.L74:
 423:main.c        ****             }
 424:main.c        ****         }        
 425:main.c        ****         CyDelay(2500);
 3001              		.loc 1 425 0
 3002 00f4 40F6C410 		movw	r0, #2500
 3003 00f8 FFF7FEFF 		bl	CyDelay
 3004              	.LVL441:
 426:main.c        ****     }
 3005              		.loc 1 426 0
 3006 00fc 9EE7     		b	.L79
 3007              	.L82:
 3008 00fe 00BF     		.align	2
 3009              	.L81:
 3010 0100 00000000 		.word	identificarTecla
 3011 0104 00000000 		.word	cambiarUno
 3012 0108 00000000 		.word	fila
 3013 010c 00000000 		.word	paso
 3014 0110 00000000 		.word	cont_char
 3015 0114 00000000 		.word	u_frec
 3016 0118 00000000 		.word	d_frec
 3017 011c 00000000 		.word	c_frec
 3018 0120 00000000 		.word	um_frec
ARM GAS  C:\Users\s_bej\AppData\Local\Temp\cczIgxd7.s 			page 64


 3019 0124 00000000 		.word	frec_final
 3020 0128 80000000 		.word	.LC10
 3021 012c 94000000 		.word	.LC11
 3022 0130 A8000000 		.word	.LC12
 3023 0134 B8000000 		.word	.LC13
 3024 0138 4C000000 		.word	.LC6
 3025 013c 00000000 		.word	filtro
 3026 0140 C8000000 		.word	.LC14
 3027 0144 D8000000 		.word	.LC15
 3028 0148 EC000000 		.word	.LC16
 3029              		.cfi_endproc
 3030              	.LFE67:
 3031              		.size	main, .-main
 3032              		.comm	frec,4,4
 3033              		.comm	filtro,1,1
 3034              		.comm	paso,1,1
 3035              		.comm	columna,1,1
 3036              		.comm	tecla,1,1
 3037              		.comm	fila,1,1
 3038              		.comm	um_frec,1,1
 3039              		.comm	c_frec,1,1
 3040              		.comm	d_frec,1,1
 3041              		.comm	u_frec,1,1
 3042              		.comm	cont_char,1,1
 3043              		.comm	i,1,1
 3044              		.comm	frec_final,2,2
 3045              		.comm	x,102,4
 3046              		.comm	h,408,8
 3047              		.section	.rodata.str1.4,"aMS",%progbits,1
 3048              		.align	2
 3049              	.LC0:
 3050 0000 46756572 		.ascii	"Fuera de Rango\000"
 3050      61206465 
 3050      2052616E 
 3050      676F00
 3051 000f 00       		.space	1
 3052              	.LC1:
 3053 0010 50726573 		.ascii	"Presione Reset\000"
 3053      696F6E65 
 3053      20526573 
 3053      657400
 3054 001f 00       		.space	1
 3055              	.LC2:
 3056 0020 436F6566 		.ascii	"Coef Calculados\000"
 3056      2043616C 
 3056      63756C61 
 3056      646F7300 
 3057              	.LC3:
 3058 0030 50617261 		.ascii	"Para F:\000"
 3058      20463A00 
 3059              	.LC4:
 3060 0038 496E6963 		.ascii	"Inicia\000"
 3060      696100
 3061 003f 00       		.space	1
 3062              	.LC5:
 3063 0040 46696C74 		.ascii	"Filtrado\000"
 3063      7261646F 
ARM GAS  C:\Users\s_bej\AppData\Local\Temp\cczIgxd7.s 			page 65


 3063      00
 3064 0049 000000   		.space	3
 3065              	.LC6:
 3066 004c 20202020 		.ascii	"                \000"
 3066      20202020 
 3066      20202020 
 3066      20202020 
 3066      00
 3067 005d 000000   		.space	3
 3068              	.LC7:
 3069 0060 43616C63 		.ascii	"Calculando Coef\000"
 3069      756C616E 
 3069      646F2043 
 3069      6F656600 
 3070              	.LC8:
 3071 0070 2E2E2E00 		.ascii	"...\000"
 3072              	.LC9:
 3073 0074 50726573 		.ascii	"Presione *\000"
 3073      696F6E65 
 3073      202A00
 3074 007f 00       		.space	1
 3075              	.LC10:
 3076 0080 46696C74 		.ascii	"Filtro: 1)P.Bajas\000"
 3076      726F3A20 
 3076      3129502E 
 3076      42616A61 
 3076      7300
 3077 0092 0000     		.space	2
 3078              	.LC11:
 3079 0094 3229502E 		.ascii	"2)P.Alta 3)P.Banda\000"
 3079      416C7461 
 3079      20332950 
 3079      2E42616E 
 3079      646100
 3080 00a7 00       		.space	1
 3081              	.LC12:
 3082 00a8 44696769 		.ascii	"Digite una frec\000"
 3082      74652075 
 3082      6E612066 
 3082      72656300 
 3083              	.LC13:
 3084 00b8 64652034 		.ascii	"de 4 digitos\000"
 3084      20646967 
 3084      69746F73 
 3084      00
 3085 00c5 000000   		.space	3
 3086              	.LC14:
 3087 00c8 44696769 		.ascii	"Digite F corte\000"
 3087      74652046 
 3087      20636F72 
 3087      746500
 3088 00d7 00       		.space	1
 3089              	.LC15:
 3090 00d8 44696769 		.ascii	"Digite F central\000"
 3090      74652046 
 3090      2063656E 
 3090      7472616C 
ARM GAS  C:\Users\s_bej\AppData\Local\Temp\cczIgxd7.s 			page 66


 3090      00
 3091 00e9 000000   		.space	3
 3092              	.LC16:
 3093 00ec 46726563 		.ascii	"Frec:\000"
 3093      3A00
 3094              		.text
 3095              	.Letext0:
 3096              		.file 2 "c:\\program files (x86)\\cypress\\psoc creator\\4.2\\psoc creator\\import\\gnu\\arm\\5.4.
 3097              		.file 3 "c:\\program files (x86)\\cypress\\psoc creator\\4.2\\psoc creator\\import\\gnu\\arm\\5.4.
 3098              		.file 4 "Generated_Source\\PSoC5/cytypes.h"
 3099              		.file 5 "Generated_Source\\PSoC5/core_cm3.h"
 3100              		.file 6 "Generated_Source\\PSoC5/DAC.h"
 3101              		.file 7 "c:\\program files (x86)\\cypress\\psoc creator\\4.2\\psoc creator\\import\\gnu\\arm\\5.4.
 3102              		.file 8 "Generated_Source\\PSoC5/ADC.h"
 3103              		.file 9 "Generated_Source\\PSoC5/Filas.h"
 3104              		.file 10 "Generated_Source\\PSoC5/LCD.h"
 3105              		.file 11 "Generated_Source\\PSoC5/CyLib.h"
 3106              		.file 12 "Generated_Source\\PSoC5/Muestreo.h"
 3107              		.file 13 "Generated_Source\\PSoC5/Recorre_Uno.h"
 3108              		.file 14 "Generated_Source\\PSoC5/int_EndOfConv.h"
 3109              		.file 15 "Generated_Source\\PSoC5/int_CambioUno.h"
 3110              		.file 16 "Generated_Source\\PSoC5/int_TeclaOprimida.h"
 3111              		.file 17 "Generated_Source\\PSoC5/Columnas.h"
 3112              		.section	.debug_info,"",%progbits
 3113              	.Ldebug_info0:
 3114 0000 7E0A0000 		.4byte	0xa7e
 3115 0004 0400     		.2byte	0x4
 3116 0006 00000000 		.4byte	.Ldebug_abbrev0
 3117 000a 04       		.byte	0x4
 3118 000b 01       		.uleb128 0x1
 3119 000c 0B030000 		.4byte	.LASF60
 3120 0010 0C       		.byte	0xc
 3121 0011 86020000 		.4byte	.LASF61
 3122 0015 1D000000 		.4byte	.LASF62
 3123 0019 00000000 		.4byte	.Ldebug_ranges0+0
 3124 001d 00000000 		.4byte	0
 3125 0021 00000000 		.4byte	.Ldebug_line0
 3126 0025 02       		.uleb128 0x2
 3127 0026 01       		.byte	0x1
 3128 0027 06       		.byte	0x6
 3129 0028 DB010000 		.4byte	.LASF0
 3130 002c 02       		.uleb128 0x2
 3131 002d 01       		.byte	0x1
 3132 002e 08       		.byte	0x8
 3133 002f A8010000 		.4byte	.LASF1
 3134 0033 02       		.uleb128 0x2
 3135 0034 02       		.byte	0x2
 3136 0035 05       		.byte	0x5
 3137 0036 89000000 		.4byte	.LASF2
 3138 003a 02       		.uleb128 0x2
 3139 003b 02       		.byte	0x2
 3140 003c 07       		.byte	0x7
 3141 003d 2A020000 		.4byte	.LASF3
 3142 0041 03       		.uleb128 0x3
 3143 0042 B2020000 		.4byte	.LASF9
 3144 0046 02       		.byte	0x2
 3145 0047 3F       		.byte	0x3f
ARM GAS  C:\Users\s_bej\AppData\Local\Temp\cczIgxd7.s 			page 67


 3146 0048 4C000000 		.4byte	0x4c
 3147 004c 02       		.uleb128 0x2
 3148 004d 04       		.byte	0x4
 3149 004e 05       		.byte	0x5
 3150 004f 5E010000 		.4byte	.LASF4
 3151 0053 02       		.uleb128 0x2
 3152 0054 04       		.byte	0x4
 3153 0055 07       		.byte	0x7
 3154 0056 8D020000 		.4byte	.LASF5
 3155 005a 02       		.uleb128 0x2
 3156 005b 08       		.byte	0x8
 3157 005c 05       		.byte	0x5
 3158 005d 34010000 		.4byte	.LASF6
 3159 0061 02       		.uleb128 0x2
 3160 0062 08       		.byte	0x8
 3161 0063 07       		.byte	0x7
 3162 0064 E7010000 		.4byte	.LASF7
 3163 0068 04       		.uleb128 0x4
 3164 0069 04       		.byte	0x4
 3165 006a 05       		.byte	0x5
 3166 006b 696E7400 		.ascii	"int\000"
 3167 006f 02       		.uleb128 0x2
 3168 0070 04       		.byte	0x4
 3169 0071 07       		.byte	0x7
 3170 0072 FE010000 		.4byte	.LASF8
 3171 0076 03       		.uleb128 0x3
 3172 0077 57020000 		.4byte	.LASF10
 3173 007b 03       		.byte	0x3
 3174 007c 2C       		.byte	0x2c
 3175 007d 41000000 		.4byte	0x41
 3176 0081 05       		.uleb128 0x5
 3177 0082 EE000000 		.4byte	.LASF11
 3178 0086 04       		.byte	0x4
 3179 0087 E401     		.2byte	0x1e4
 3180 0089 2C000000 		.4byte	0x2c
 3181 008d 05       		.uleb128 0x5
 3182 008e D8000000 		.4byte	.LASF12
 3183 0092 04       		.byte	0x4
 3184 0093 E501     		.2byte	0x1e5
 3185 0095 3A000000 		.4byte	0x3a
 3186 0099 02       		.uleb128 0x2
 3187 009a 04       		.byte	0x4
 3188 009b 04       		.byte	0x4
 3189 009c 18010000 		.4byte	.LASF13
 3190 00a0 02       		.uleb128 0x2
 3191 00a1 08       		.byte	0x8
 3192 00a2 04       		.byte	0x4
 3193 00a3 9F020000 		.4byte	.LASF14
 3194 00a7 02       		.uleb128 0x2
 3195 00a8 01       		.byte	0x1
 3196 00a9 08       		.byte	0x8
 3197 00aa 4A020000 		.4byte	.LASF15
 3198 00ae 06       		.uleb128 0x6
 3199 00af 81000000 		.4byte	0x81
 3200 00b3 02       		.uleb128 0x2
 3201 00b4 08       		.byte	0x8
 3202 00b5 04       		.byte	0x4
ARM GAS  C:\Users\s_bej\AppData\Local\Temp\cczIgxd7.s 			page 68


 3203 00b6 9C010000 		.4byte	.LASF16
 3204 00ba 02       		.uleb128 0x2
 3205 00bb 04       		.byte	0x4
 3206 00bc 07       		.byte	0x7
 3207 00bd 93000000 		.4byte	.LASF17
 3208 00c1 07       		.uleb128 0x7
 3209 00c2 79020000 		.4byte	.LASF18
 3210 00c6 01       		.byte	0x1
 3211 00c7 1A       		.byte	0x1a
 3212 00c8 00000000 		.4byte	.LFB63
 3213 00cc 360E0000 		.4byte	.LFE63-.LFB63
 3214 00d0 01       		.uleb128 0x1
 3215 00d1 9C       		.byte	0x9c
 3216 00d2 31010000 		.4byte	0x131
 3217 00d6 08       		.uleb128 0x8
 3218 00d7 34010000 		.4byte	.LBB2
 3219 00db 80060000 		.4byte	.LBE2-.LBB2
 3220 00df FA000000 		.4byte	0xfa
 3221 00e3 09       		.uleb128 0x9
 3222 00e4 7900     		.ascii	"y\000"
 3223 00e6 01       		.byte	0x1
 3224 00e7 53       		.byte	0x53
 3225 00e8 A0000000 		.4byte	0xa0
 3226 00ec 00000000 		.4byte	.LLST0
 3227 00f0 0A       		.uleb128 0xa
 3228 00f1 B4070000 		.4byte	.LVL155
 3229 00f5 83090000 		.4byte	0x983
 3230 00f9 00       		.byte	0
 3231 00fa 08       		.uleb128 0x8
 3232 00fb B6070000 		.4byte	.LBB3
 3233 00ff 80060000 		.4byte	.LBE3-.LBB3
 3234 0103 27010000 		.4byte	0x127
 3235 0107 09       		.uleb128 0x9
 3236 0108 7900     		.ascii	"y\000"
 3237 010a 01       		.byte	0x1
 3238 010b 59       		.byte	0x59
 3239 010c 68000000 		.4byte	0x68
 3240 0110 28000000 		.4byte	.LLST1
 3241 0114 0A       		.uleb128 0xa
 3242 0115 2A0E0000 		.4byte	.LVL310
 3243 0119 8E090000 		.4byte	0x98e
 3244 011d 0A       		.uleb128 0xa
 3245 011e 340E0000 		.4byte	.LVL312
 3246 0122 83090000 		.4byte	0x983
 3247 0126 00       		.byte	0
 3248 0127 0A       		.uleb128 0xa
 3249 0128 1A010000 		.4byte	.LVL0
 3250 012c 9A090000 		.4byte	0x99a
 3251 0130 00       		.byte	0
 3252 0131 0B       		.uleb128 0xb
 3253 0132 F3020000 		.4byte	.LASF19
 3254 0136 01       		.byte	0x1
 3255 0137 5401     		.2byte	0x154
 3256 0139 00000000 		.4byte	.LFB66
 3257 013d 44000000 		.4byte	.LFE66-.LFB66
 3258 0141 01       		.uleb128 0x1
 3259 0142 9C       		.byte	0x9c
ARM GAS  C:\Users\s_bej\AppData\Local\Temp\cczIgxd7.s 			page 69


 3260 0143 51010000 		.4byte	0x151
 3261 0147 0A       		.uleb128 0xa
 3262 0148 3E000000 		.4byte	.LVL313
 3263 014c A5090000 		.4byte	0x9a5
 3264 0150 00       		.byte	0
 3265 0151 0C       		.uleb128 0xc
 3266 0152 1B020000 		.4byte	.LASF63
 3267 0156 01       		.byte	0x1
 3268 0157 60       		.byte	0x60
 3269 0158 00000000 		.4byte	.LFB64
 3270 015c 88040000 		.4byte	.LFE64-.LFB64
 3271 0160 01       		.uleb128 0x1
 3272 0161 9C       		.byte	0x9c
 3273 0162 18040000 		.4byte	0x418
 3274 0166 08       		.uleb128 0x8
 3275 0167 8E000000 		.4byte	.LBB4
 3276 016b C6030000 		.4byte	.LBE4-.LBB4
 3277 016f AA030000 		.4byte	0x3aa
 3278 0173 0D       		.uleb128 0xd
 3279 0174 776300   		.ascii	"wc\000"
 3280 0177 01       		.byte	0x1
 3281 0178 76       		.byte	0x76
 3282 0179 18040000 		.4byte	0x418
 3283 017d 02       		.uleb128 0x2
 3284 017e 91       		.byte	0x91
 3285 017f 58       		.sleb128 -40
 3286 0180 08       		.uleb128 0x8
 3287 0181 CA000000 		.4byte	.LBB5
 3288 0185 4C000000 		.4byte	.LBE5-.LBB5
 3289 0189 A6010000 		.4byte	0x1a6
 3290 018d 0E       		.uleb128 0xe
 3291 018e 84000000 		.4byte	.LASF20
 3292 0192 01       		.byte	0x1
 3293 0193 7D       		.byte	0x7d
 3294 0194 A0000000 		.4byte	0xa0
 3295 0198 3B000000 		.4byte	.LLST2
 3296 019c 0A       		.uleb128 0xa
 3297 019d E4000000 		.4byte	.LVL324
 3298 01a1 B0090000 		.4byte	0x9b0
 3299 01a5 00       		.byte	0
 3300 01a6 08       		.uleb128 0x8
 3301 01a7 66010000 		.4byte	.LBB6
 3302 01ab 5C000000 		.4byte	.LBE6-.LBB6
 3303 01af CC010000 		.4byte	0x1cc
 3304 01b3 0E       		.uleb128 0xe
 3305 01b4 84000000 		.4byte	.LASF20
 3306 01b8 01       		.byte	0x1
 3307 01b9 8D       		.byte	0x8d
 3308 01ba A0000000 		.4byte	0xa0
 3309 01be 53000000 		.4byte	.LLST3
 3310 01c2 0A       		.uleb128 0xa
 3311 01c3 86010000 		.4byte	.LVL331
 3312 01c7 B0090000 		.4byte	0x9b0
 3313 01cb 00       		.byte	0
 3314 01cc 08       		.uleb128 0x8
 3315 01cd 0E020000 		.4byte	.LBB7
 3316 01d1 C2010000 		.4byte	.LBE7-.LBB7
ARM GAS  C:\Users\s_bej\AppData\Local\Temp\cczIgxd7.s 			page 70


 3317 01d5 41020000 		.4byte	0x241
 3318 01d9 09       		.uleb128 0x9
 3319 01da 77633200 		.ascii	"wc2\000"
 3320 01de 01       		.byte	0x1
 3321 01df 99       		.byte	0x99
 3322 01e0 A0000000 		.4byte	0xa0
 3323 01e4 6B000000 		.4byte	.LLST4
 3324 01e8 09       		.uleb128 0x9
 3325 01e9 77633100 		.ascii	"wc1\000"
 3326 01ed 01       		.byte	0x1
 3327 01ee 9A       		.byte	0x9a
 3328 01ef A0000000 		.4byte	0xa0
 3329 01f3 8F000000 		.4byte	.LLST5
 3330 01f7 0F       		.uleb128 0xf
 3331 01f8 C6020000 		.4byte	.LBB8
 3332 01fc B6000000 		.4byte	.LBE8-.LBB8
 3333 0200 0E       		.uleb128 0xe
 3334 0201 D6020000 		.4byte	.LASF21
 3335 0205 01       		.byte	0x1
 3336 0206 9F       		.byte	0x9f
 3337 0207 A0000000 		.4byte	0xa0
 3338 020b B3000000 		.4byte	.LLST6
 3339 020f 0E       		.uleb128 0xe
 3340 0210 D0020000 		.4byte	.LASF22
 3341 0214 01       		.byte	0x1
 3342 0215 A0       		.byte	0xa0
 3343 0216 A0000000 		.4byte	0xa0
 3344 021a CB000000 		.4byte	.LLST7
 3345 021e 0E       		.uleb128 0xe
 3346 021f DC020000 		.4byte	.LASF23
 3347 0223 01       		.byte	0x1
 3348 0224 A3       		.byte	0xa3
 3349 0225 A0000000 		.4byte	0xa0
 3350 0229 E3000000 		.4byte	.LLST8
 3351 022d 0A       		.uleb128 0xa
 3352 022e 08030000 		.4byte	.LVL354
 3353 0232 B0090000 		.4byte	0x9b0
 3354 0236 0A       		.uleb128 0xa
 3355 0237 44030000 		.4byte	.LVL359
 3356 023b B0090000 		.4byte	0x9b0
 3357 023f 00       		.byte	0
 3358 0240 00       		.byte	0
 3359 0241 10       		.uleb128 0x10
 3360 0242 D6030000 		.4byte	.LVL371
 3361 0246 BB090000 		.4byte	0x9bb
 3362 024a 54020000 		.4byte	0x254
 3363 024e 11       		.uleb128 0x11
 3364 024f 01       		.uleb128 0x1
 3365 0250 50       		.byte	0x50
 3366 0251 01       		.uleb128 0x1
 3367 0252 31       		.byte	0x31
 3368 0253 00       		.byte	0
 3369 0254 10       		.uleb128 0x10
 3370 0255 DE030000 		.4byte	.LVL372
 3371 0259 C6090000 		.4byte	0x9c6
 3372 025d 6C020000 		.4byte	0x26c
 3373 0261 11       		.uleb128 0x11
ARM GAS  C:\Users\s_bej\AppData\Local\Temp\cczIgxd7.s 			page 71


 3374 0262 01       		.uleb128 0x1
 3375 0263 50       		.byte	0x50
 3376 0264 01       		.uleb128 0x1
 3377 0265 30       		.byte	0x30
 3378 0266 11       		.uleb128 0x11
 3379 0267 01       		.uleb128 0x1
 3380 0268 51       		.byte	0x51
 3381 0269 01       		.uleb128 0x1
 3382 026a 30       		.byte	0x30
 3383 026b 00       		.byte	0
 3384 026c 10       		.uleb128 0x10
 3385 026d E4030000 		.4byte	.LVL373
 3386 0271 D1090000 		.4byte	0x9d1
 3387 0275 83020000 		.4byte	0x283
 3388 0279 11       		.uleb128 0x11
 3389 027a 01       		.uleb128 0x1
 3390 027b 50       		.byte	0x50
 3391 027c 05       		.uleb128 0x5
 3392 027d 03       		.byte	0x3
 3393 027e 20000000 		.4byte	.LC2
 3394 0282 00       		.byte	0
 3395 0283 10       		.uleb128 0x10
 3396 0284 EC030000 		.4byte	.LVL374
 3397 0288 C6090000 		.4byte	0x9c6
 3398 028c 9B020000 		.4byte	0x29b
 3399 0290 11       		.uleb128 0x11
 3400 0291 01       		.uleb128 0x1
 3401 0292 50       		.byte	0x50
 3402 0293 01       		.uleb128 0x1
 3403 0294 31       		.byte	0x31
 3404 0295 11       		.uleb128 0x11
 3405 0296 01       		.uleb128 0x1
 3406 0297 51       		.byte	0x51
 3407 0298 01       		.uleb128 0x1
 3408 0299 30       		.byte	0x30
 3409 029a 00       		.byte	0
 3410 029b 10       		.uleb128 0x10
 3411 029c F2030000 		.4byte	.LVL375
 3412 02a0 D1090000 		.4byte	0x9d1
 3413 02a4 B2020000 		.4byte	0x2b2
 3414 02a8 11       		.uleb128 0x11
 3415 02a9 01       		.uleb128 0x1
 3416 02aa 50       		.byte	0x50
 3417 02ab 05       		.uleb128 0x5
 3418 02ac 03       		.byte	0x3
 3419 02ad 30000000 		.4byte	.LC3
 3420 02b1 00       		.byte	0
 3421 02b2 0A       		.uleb128 0xa
 3422 02b3 FA030000 		.4byte	.LVL376
 3423 02b7 DC090000 		.4byte	0x9dc
 3424 02bb 0A       		.uleb128 0xa
 3425 02bc 00040000 		.4byte	.LVL377
 3426 02c0 DC090000 		.4byte	0x9dc
 3427 02c4 0A       		.uleb128 0xa
 3428 02c5 06040000 		.4byte	.LVL378
 3429 02c9 DC090000 		.4byte	0x9dc
 3430 02cd 0A       		.uleb128 0xa
ARM GAS  C:\Users\s_bej\AppData\Local\Temp\cczIgxd7.s 			page 72


 3431 02ce 0C040000 		.4byte	.LVL379
 3432 02d2 DC090000 		.4byte	0x9dc
 3433 02d6 10       		.uleb128 0x10
 3434 02d7 14040000 		.4byte	.LVL380
 3435 02db E7090000 		.4byte	0x9e7
 3436 02df EB020000 		.4byte	0x2eb
 3437 02e3 11       		.uleb128 0x11
 3438 02e4 01       		.uleb128 0x1
 3439 02e5 50       		.byte	0x50
 3440 02e6 03       		.uleb128 0x3
 3441 02e7 0A       		.byte	0xa
 3442 02e8 B80B     		.2byte	0xbb8
 3443 02ea 00       		.byte	0
 3444 02eb 10       		.uleb128 0x10
 3445 02ec 1A040000 		.4byte	.LVL381
 3446 02f0 BB090000 		.4byte	0x9bb
 3447 02f4 FE020000 		.4byte	0x2fe
 3448 02f8 11       		.uleb128 0x11
 3449 02f9 01       		.uleb128 0x1
 3450 02fa 50       		.byte	0x50
 3451 02fb 01       		.uleb128 0x1
 3452 02fc 31       		.byte	0x31
 3453 02fd 00       		.byte	0
 3454 02fe 10       		.uleb128 0x10
 3455 02ff 22040000 		.4byte	.LVL382
 3456 0303 C6090000 		.4byte	0x9c6
 3457 0307 16030000 		.4byte	0x316
 3458 030b 11       		.uleb128 0x11
 3459 030c 01       		.uleb128 0x1
 3460 030d 50       		.byte	0x50
 3461 030e 01       		.uleb128 0x1
 3462 030f 30       		.byte	0x30
 3463 0310 11       		.uleb128 0x11
 3464 0311 01       		.uleb128 0x1
 3465 0312 51       		.byte	0x51
 3466 0313 01       		.uleb128 0x1
 3467 0314 30       		.byte	0x30
 3468 0315 00       		.byte	0
 3469 0316 10       		.uleb128 0x10
 3470 0317 28040000 		.4byte	.LVL383
 3471 031b D1090000 		.4byte	0x9d1
 3472 031f 2D030000 		.4byte	0x32d
 3473 0323 11       		.uleb128 0x11
 3474 0324 01       		.uleb128 0x1
 3475 0325 50       		.byte	0x50
 3476 0326 05       		.uleb128 0x5
 3477 0327 03       		.byte	0x3
 3478 0328 38000000 		.4byte	.LC4
 3479 032c 00       		.byte	0
 3480 032d 10       		.uleb128 0x10
 3481 032e 30040000 		.4byte	.LVL384
 3482 0332 C6090000 		.4byte	0x9c6
 3483 0336 45030000 		.4byte	0x345
 3484 033a 11       		.uleb128 0x11
 3485 033b 01       		.uleb128 0x1
 3486 033c 50       		.byte	0x50
 3487 033d 01       		.uleb128 0x1
ARM GAS  C:\Users\s_bej\AppData\Local\Temp\cczIgxd7.s 			page 73


 3488 033e 31       		.byte	0x31
 3489 033f 11       		.uleb128 0x11
 3490 0340 01       		.uleb128 0x1
 3491 0341 51       		.byte	0x51
 3492 0342 01       		.uleb128 0x1
 3493 0343 30       		.byte	0x30
 3494 0344 00       		.byte	0
 3495 0345 10       		.uleb128 0x10
 3496 0346 36040000 		.4byte	.LVL385
 3497 034a D1090000 		.4byte	0x9d1
 3498 034e 5C030000 		.4byte	0x35c
 3499 0352 11       		.uleb128 0x11
 3500 0353 01       		.uleb128 0x1
 3501 0354 50       		.byte	0x50
 3502 0355 05       		.uleb128 0x5
 3503 0356 03       		.byte	0x3
 3504 0357 40000000 		.4byte	.LC5
 3505 035b 00       		.byte	0
 3506 035c 0A       		.uleb128 0xa
 3507 035d 3A040000 		.4byte	.LVL386
 3508 0361 F2090000 		.4byte	0x9f2
 3509 0365 0A       		.uleb128 0xa
 3510 0366 3E040000 		.4byte	.LVL387
 3511 036a FD090000 		.4byte	0x9fd
 3512 036e 0A       		.uleb128 0xa
 3513 036f 42040000 		.4byte	.LVL388
 3514 0373 080A0000 		.4byte	0xa08
 3515 0377 0A       		.uleb128 0xa
 3516 0378 46040000 		.4byte	.LVL389
 3517 037c 130A0000 		.4byte	0xa13
 3518 0380 10       		.uleb128 0x10
 3519 0381 4C040000 		.4byte	.LVL390
 3520 0385 1E0A0000 		.4byte	0xa1e
 3521 0389 97030000 		.4byte	0x397
 3522 038d 11       		.uleb128 0x11
 3523 038e 01       		.uleb128 0x1
 3524 038f 50       		.byte	0x50
 3525 0390 05       		.uleb128 0x5
 3526 0391 03       		.byte	0x3
 3527 0392 00000000 		.4byte	llegaMuestra
 3528 0396 00       		.byte	0
 3529 0397 0A       		.uleb128 0xa
 3530 0398 50040000 		.4byte	.LVL391
 3531 039c 290A0000 		.4byte	0xa29
 3532 03a0 0A       		.uleb128 0xa
 3533 03a1 54040000 		.4byte	.LVL392
 3534 03a5 340A0000 		.4byte	0xa34
 3535 03a9 00       		.byte	0
 3536 03aa 10       		.uleb128 0x10
 3537 03ab 70000000 		.4byte	.LVL314
 3538 03af BB090000 		.4byte	0x9bb
 3539 03b3 BD030000 		.4byte	0x3bd
 3540 03b7 11       		.uleb128 0x11
 3541 03b8 01       		.uleb128 0x1
 3542 03b9 50       		.byte	0x50
 3543 03ba 01       		.uleb128 0x1
 3544 03bb 31       		.byte	0x31
ARM GAS  C:\Users\s_bej\AppData\Local\Temp\cczIgxd7.s 			page 74


 3545 03bc 00       		.byte	0
 3546 03bd 10       		.uleb128 0x10
 3547 03be 78000000 		.4byte	.LVL315
 3548 03c2 C6090000 		.4byte	0x9c6
 3549 03c6 D5030000 		.4byte	0x3d5
 3550 03ca 11       		.uleb128 0x11
 3551 03cb 01       		.uleb128 0x1
 3552 03cc 50       		.byte	0x50
 3553 03cd 01       		.uleb128 0x1
 3554 03ce 30       		.byte	0x30
 3555 03cf 11       		.uleb128 0x11
 3556 03d0 01       		.uleb128 0x1
 3557 03d1 51       		.byte	0x51
 3558 03d2 01       		.uleb128 0x1
 3559 03d3 30       		.byte	0x30
 3560 03d4 00       		.byte	0
 3561 03d5 10       		.uleb128 0x10
 3562 03d6 7E000000 		.4byte	.LVL316
 3563 03da D1090000 		.4byte	0x9d1
 3564 03de EC030000 		.4byte	0x3ec
 3565 03e2 11       		.uleb128 0x11
 3566 03e3 01       		.uleb128 0x1
 3567 03e4 50       		.byte	0x50
 3568 03e5 05       		.uleb128 0x5
 3569 03e6 03       		.byte	0x3
 3570 03e7 00000000 		.4byte	.LC0
 3571 03eb 00       		.byte	0
 3572 03ec 10       		.uleb128 0x10
 3573 03ed 86000000 		.4byte	.LVL317
 3574 03f1 C6090000 		.4byte	0x9c6
 3575 03f5 04040000 		.4byte	0x404
 3576 03f9 11       		.uleb128 0x11
 3577 03fa 01       		.uleb128 0x1
 3578 03fb 50       		.byte	0x50
 3579 03fc 01       		.uleb128 0x1
 3580 03fd 31       		.byte	0x31
 3581 03fe 11       		.uleb128 0x11
 3582 03ff 01       		.uleb128 0x1
 3583 0400 51       		.byte	0x51
 3584 0401 01       		.uleb128 0x1
 3585 0402 30       		.byte	0x30
 3586 0403 00       		.byte	0
 3587 0404 12       		.uleb128 0x12
 3588 0405 8C000000 		.4byte	.LVL318
 3589 0409 D1090000 		.4byte	0x9d1
 3590 040d 11       		.uleb128 0x11
 3591 040e 01       		.uleb128 0x1
 3592 040f 50       		.byte	0x50
 3593 0410 05       		.uleb128 0x5
 3594 0411 03       		.byte	0x3
 3595 0412 10000000 		.4byte	.LC1
 3596 0416 00       		.byte	0
 3597 0417 00       		.byte	0
 3598 0418 06       		.uleb128 0x6
 3599 0419 A0000000 		.4byte	0xa0
 3600 041d 13       		.uleb128 0x13
 3601 041e C0010000 		.4byte	.LASF24
ARM GAS  C:\Users\s_bej\AppData\Local\Temp\cczIgxd7.s 			page 75


 3602 0422 01       		.byte	0x1
 3603 0423 CA       		.byte	0xca
 3604 0424 00000000 		.4byte	.LFB65
 3605 0428 64020000 		.4byte	.LFE65-.LFB65
 3606 042c 01       		.uleb128 0x1
 3607 042d 9C       		.byte	0x9c
 3608 042e 10060000 		.4byte	0x610
 3609 0432 0A       		.uleb128 0xa
 3610 0433 06000000 		.4byte	.LVL393
 3611 0437 3F0A0000 		.4byte	0xa3f
 3612 043b 10       		.uleb128 0x10
 3613 043c EE000000 		.4byte	.LVL394
 3614 0440 C6090000 		.4byte	0x9c6
 3615 0444 53040000 		.4byte	0x453
 3616 0448 11       		.uleb128 0x11
 3617 0449 01       		.uleb128 0x1
 3618 044a 50       		.byte	0x50
 3619 044b 01       		.uleb128 0x1
 3620 044c 30       		.byte	0x30
 3621 044d 11       		.uleb128 0x11
 3622 044e 01       		.uleb128 0x1
 3623 044f 51       		.byte	0x51
 3624 0450 01       		.uleb128 0x1
 3625 0451 30       		.byte	0x30
 3626 0452 00       		.byte	0
 3627 0453 10       		.uleb128 0x10
 3628 0454 F6000000 		.4byte	.LVL395
 3629 0458 D1090000 		.4byte	0x9d1
 3630 045c 67040000 		.4byte	0x467
 3631 0460 11       		.uleb128 0x11
 3632 0461 01       		.uleb128 0x1
 3633 0462 50       		.byte	0x50
 3634 0463 02       		.uleb128 0x2
 3635 0464 74       		.byte	0x74
 3636 0465 00       		.sleb128 0
 3637 0466 00       		.byte	0
 3638 0467 10       		.uleb128 0x10
 3639 0468 FE000000 		.4byte	.LVL396
 3640 046c C6090000 		.4byte	0x9c6
 3641 0470 7F040000 		.4byte	0x47f
 3642 0474 11       		.uleb128 0x11
 3643 0475 01       		.uleb128 0x1
 3644 0476 50       		.byte	0x50
 3645 0477 01       		.uleb128 0x1
 3646 0478 30       		.byte	0x30
 3647 0479 11       		.uleb128 0x11
 3648 047a 01       		.uleb128 0x1
 3649 047b 51       		.byte	0x51
 3650 047c 01       		.uleb128 0x1
 3651 047d 30       		.byte	0x30
 3652 047e 00       		.byte	0
 3653 047f 10       		.uleb128 0x10
 3654 0480 04010000 		.4byte	.LVL397
 3655 0484 D1090000 		.4byte	0x9d1
 3656 0488 96040000 		.4byte	0x496
 3657 048c 11       		.uleb128 0x11
 3658 048d 01       		.uleb128 0x1
ARM GAS  C:\Users\s_bej\AppData\Local\Temp\cczIgxd7.s 			page 76


 3659 048e 50       		.byte	0x50
 3660 048f 05       		.uleb128 0x5
 3661 0490 03       		.byte	0x3
 3662 0491 60000000 		.4byte	.LC7
 3663 0495 00       		.byte	0
 3664 0496 10       		.uleb128 0x10
 3665 0497 0C010000 		.4byte	.LVL398
 3666 049b C6090000 		.4byte	0x9c6
 3667 049f AE040000 		.4byte	0x4ae
 3668 04a3 11       		.uleb128 0x11
 3669 04a4 01       		.uleb128 0x1
 3670 04a5 50       		.byte	0x50
 3671 04a6 01       		.uleb128 0x1
 3672 04a7 31       		.byte	0x31
 3673 04a8 11       		.uleb128 0x11
 3674 04a9 01       		.uleb128 0x1
 3675 04aa 51       		.byte	0x51
 3676 04ab 01       		.uleb128 0x1
 3677 04ac 30       		.byte	0x30
 3678 04ad 00       		.byte	0
 3679 04ae 10       		.uleb128 0x10
 3680 04af 12010000 		.4byte	.LVL399
 3681 04b3 D1090000 		.4byte	0x9d1
 3682 04b7 C2040000 		.4byte	0x4c2
 3683 04bb 11       		.uleb128 0x11
 3684 04bc 01       		.uleb128 0x1
 3685 04bd 50       		.byte	0x50
 3686 04be 02       		.uleb128 0x2
 3687 04bf 74       		.byte	0x74
 3688 04c0 00       		.sleb128 0
 3689 04c1 00       		.byte	0
 3690 04c2 10       		.uleb128 0x10
 3691 04c3 1A010000 		.4byte	.LVL400
 3692 04c7 C6090000 		.4byte	0x9c6
 3693 04cb DA040000 		.4byte	0x4da
 3694 04cf 11       		.uleb128 0x11
 3695 04d0 01       		.uleb128 0x1
 3696 04d1 50       		.byte	0x50
 3697 04d2 01       		.uleb128 0x1
 3698 04d3 31       		.byte	0x31
 3699 04d4 11       		.uleb128 0x11
 3700 04d5 01       		.uleb128 0x1
 3701 04d6 51       		.byte	0x51
 3702 04d7 01       		.uleb128 0x1
 3703 04d8 30       		.byte	0x30
 3704 04d9 00       		.byte	0
 3705 04da 10       		.uleb128 0x10
 3706 04db 20010000 		.4byte	.LVL401
 3707 04df D1090000 		.4byte	0x9d1
 3708 04e3 F1040000 		.4byte	0x4f1
 3709 04e7 11       		.uleb128 0x11
 3710 04e8 01       		.uleb128 0x1
 3711 04e9 50       		.byte	0x50
 3712 04ea 05       		.uleb128 0x5
 3713 04eb 03       		.byte	0x3
 3714 04ec 70000000 		.4byte	.LC8
 3715 04f0 00       		.byte	0
ARM GAS  C:\Users\s_bej\AppData\Local\Temp\cczIgxd7.s 			page 77


 3716 04f1 0A       		.uleb128 0xa
 3717 04f2 24010000 		.4byte	.LVL402
 3718 04f6 51010000 		.4byte	0x151
 3719 04fa 0A       		.uleb128 0xa
 3720 04fb 54010000 		.4byte	.LVL403
 3721 04ff DC090000 		.4byte	0x9dc
 3722 0503 10       		.uleb128 0x10
 3723 0504 6C010000 		.4byte	.LVL404
 3724 0508 C6090000 		.4byte	0x9c6
 3725 050c 1B050000 		.4byte	0x51b
 3726 0510 11       		.uleb128 0x11
 3727 0511 01       		.uleb128 0x1
 3728 0512 50       		.byte	0x50
 3729 0513 01       		.uleb128 0x1
 3730 0514 30       		.byte	0x30
 3731 0515 11       		.uleb128 0x11
 3732 0516 01       		.uleb128 0x1
 3733 0517 51       		.byte	0x51
 3734 0518 01       		.uleb128 0x1
 3735 0519 30       		.byte	0x30
 3736 051a 00       		.byte	0
 3737 051b 10       		.uleb128 0x10
 3738 051c 72010000 		.4byte	.LVL405
 3739 0520 D1090000 		.4byte	0x9d1
 3740 0524 32050000 		.4byte	0x532
 3741 0528 11       		.uleb128 0x11
 3742 0529 01       		.uleb128 0x1
 3743 052a 50       		.byte	0x50
 3744 052b 05       		.uleb128 0x5
 3745 052c 03       		.byte	0x3
 3746 052d 4C000000 		.4byte	.LC6
 3747 0531 00       		.byte	0
 3748 0532 10       		.uleb128 0x10
 3749 0533 7A010000 		.4byte	.LVL406
 3750 0537 C6090000 		.4byte	0x9c6
 3751 053b 4A050000 		.4byte	0x54a
 3752 053f 11       		.uleb128 0x11
 3753 0540 01       		.uleb128 0x1
 3754 0541 50       		.byte	0x50
 3755 0542 01       		.uleb128 0x1
 3756 0543 30       		.byte	0x30
 3757 0544 11       		.uleb128 0x11
 3758 0545 01       		.uleb128 0x1
 3759 0546 51       		.byte	0x51
 3760 0547 01       		.uleb128 0x1
 3761 0548 30       		.byte	0x30
 3762 0549 00       		.byte	0
 3763 054a 10       		.uleb128 0x10
 3764 054b 80010000 		.4byte	.LVL407
 3765 054f D1090000 		.4byte	0x9d1
 3766 0553 61050000 		.4byte	0x561
 3767 0557 11       		.uleb128 0x11
 3768 0558 01       		.uleb128 0x1
 3769 0559 50       		.byte	0x50
 3770 055a 05       		.uleb128 0x5
 3771 055b 03       		.byte	0x3
 3772 055c 74000000 		.4byte	.LC9
ARM GAS  C:\Users\s_bej\AppData\Local\Temp\cczIgxd7.s 			page 78


 3773 0560 00       		.byte	0
 3774 0561 10       		.uleb128 0x10
 3775 0562 88010000 		.4byte	.LVL408
 3776 0566 E7090000 		.4byte	0x9e7
 3777 056a 76050000 		.4byte	0x576
 3778 056e 11       		.uleb128 0x11
 3779 056f 01       		.uleb128 0x1
 3780 0570 50       		.byte	0x50
 3781 0571 03       		.uleb128 0x3
 3782 0572 0A       		.byte	0xa
 3783 0573 D007     		.2byte	0x7d0
 3784 0575 00       		.byte	0
 3785 0576 0A       		.uleb128 0xa
 3786 0577 B0010000 		.4byte	.LVL409
 3787 057b DC090000 		.4byte	0x9dc
 3788 057f 10       		.uleb128 0x10
 3789 0580 C8010000 		.4byte	.LVL410
 3790 0584 C6090000 		.4byte	0x9c6
 3791 0588 97050000 		.4byte	0x597
 3792 058c 11       		.uleb128 0x11
 3793 058d 01       		.uleb128 0x1
 3794 058e 50       		.byte	0x50
 3795 058f 01       		.uleb128 0x1
 3796 0590 30       		.byte	0x30
 3797 0591 11       		.uleb128 0x11
 3798 0592 01       		.uleb128 0x1
 3799 0593 51       		.byte	0x51
 3800 0594 01       		.uleb128 0x1
 3801 0595 30       		.byte	0x30
 3802 0596 00       		.byte	0
 3803 0597 10       		.uleb128 0x10
 3804 0598 CE010000 		.4byte	.LVL411
 3805 059c D1090000 		.4byte	0x9d1
 3806 05a0 AE050000 		.4byte	0x5ae
 3807 05a4 11       		.uleb128 0x11
 3808 05a5 01       		.uleb128 0x1
 3809 05a6 50       		.byte	0x50
 3810 05a7 05       		.uleb128 0x5
 3811 05a8 03       		.byte	0x3
 3812 05a9 4C000000 		.4byte	.LC6
 3813 05ad 00       		.byte	0
 3814 05ae 10       		.uleb128 0x10
 3815 05af D6010000 		.4byte	.LVL412
 3816 05b3 C6090000 		.4byte	0x9c6
 3817 05b7 C6050000 		.4byte	0x5c6
 3818 05bb 11       		.uleb128 0x11
 3819 05bc 01       		.uleb128 0x1
 3820 05bd 50       		.byte	0x50
 3821 05be 01       		.uleb128 0x1
 3822 05bf 30       		.byte	0x30
 3823 05c0 11       		.uleb128 0x11
 3824 05c1 01       		.uleb128 0x1
 3825 05c2 51       		.byte	0x51
 3826 05c3 01       		.uleb128 0x1
 3827 05c4 30       		.byte	0x30
 3828 05c5 00       		.byte	0
 3829 05c6 10       		.uleb128 0x10
ARM GAS  C:\Users\s_bej\AppData\Local\Temp\cczIgxd7.s 			page 79


 3830 05c7 DC010000 		.4byte	.LVL413
 3831 05cb D1090000 		.4byte	0x9d1
 3832 05cf DD050000 		.4byte	0x5dd
 3833 05d3 11       		.uleb128 0x11
 3834 05d4 01       		.uleb128 0x1
 3835 05d5 50       		.byte	0x50
 3836 05d6 05       		.uleb128 0x5
 3837 05d7 03       		.byte	0x3
 3838 05d8 74000000 		.4byte	.LC9
 3839 05dc 00       		.byte	0
 3840 05dd 10       		.uleb128 0x10
 3841 05de E4010000 		.4byte	.LVL414
 3842 05e2 E7090000 		.4byte	0x9e7
 3843 05e6 F2050000 		.4byte	0x5f2
 3844 05ea 11       		.uleb128 0x11
 3845 05eb 01       		.uleb128 0x1
 3846 05ec 50       		.byte	0x50
 3847 05ed 03       		.uleb128 0x3
 3848 05ee 0A       		.byte	0xa
 3849 05ef D007     		.2byte	0x7d0
 3850 05f1 00       		.byte	0
 3851 05f2 10       		.uleb128 0x10
 3852 05f3 32020000 		.4byte	.LVL415
 3853 05f7 E7090000 		.4byte	0x9e7
 3854 05fb 06060000 		.4byte	0x606
 3855 05ff 11       		.uleb128 0x11
 3856 0600 01       		.uleb128 0x1
 3857 0601 50       		.byte	0x50
 3858 0602 02       		.uleb128 0x2
 3859 0603 08       		.byte	0x8
 3860 0604 FA       		.byte	0xfa
 3861 0605 00       		.byte	0
 3862 0606 0A       		.uleb128 0xa
 3863 0607 36020000 		.4byte	.LVL416
 3864 060b 4A0A0000 		.4byte	0xa4a
 3865 060f 00       		.byte	0
 3866 0610 14       		.uleb128 0x14
 3867 0611 B5000000 		.4byte	.LASF64
 3868 0615 01       		.byte	0x1
 3869 0616 6801     		.2byte	0x168
 3870 0618 68000000 		.4byte	0x68
 3871 061c 00000000 		.4byte	.LFB67
 3872 0620 4C010000 		.4byte	.LFE67-.LFB67
 3873 0624 01       		.uleb128 0x1
 3874 0625 9C       		.byte	0x9c
 3875 0626 3A080000 		.4byte	0x83a
 3876 062a 0A       		.uleb128 0xa
 3877 062b 08000000 		.4byte	.LVL417
 3878 062f 550A0000 		.4byte	0xa55
 3879 0633 0A       		.uleb128 0xa
 3880 0634 0C000000 		.4byte	.LVL418
 3881 0638 600A0000 		.4byte	0xa60
 3882 063c 10       		.uleb128 0x10
 3883 063d 12000000 		.4byte	.LVL419
 3884 0641 6B0A0000 		.4byte	0xa6b
 3885 0645 53060000 		.4byte	0x653
 3886 0649 11       		.uleb128 0x11
ARM GAS  C:\Users\s_bej\AppData\Local\Temp\cczIgxd7.s 			page 80


 3887 064a 01       		.uleb128 0x1
 3888 064b 50       		.byte	0x50
 3889 064c 05       		.uleb128 0x5
 3890 064d 03       		.byte	0x3
 3891 064e 00000000 		.4byte	identificarTecla
 3892 0652 00       		.byte	0
 3893 0653 10       		.uleb128 0x10
 3894 0654 18000000 		.4byte	.LVL420
 3895 0658 760A0000 		.4byte	0xa76
 3896 065c 6A060000 		.4byte	0x66a
 3897 0660 11       		.uleb128 0x11
 3898 0661 01       		.uleb128 0x1
 3899 0662 50       		.byte	0x50
 3900 0663 05       		.uleb128 0x5
 3901 0664 03       		.byte	0x3
 3902 0665 00000000 		.4byte	cambiarUno
 3903 0669 00       		.byte	0
 3904 066a 10       		.uleb128 0x10
 3905 066b 4C000000 		.4byte	.LVL421
 3906 066f D1090000 		.4byte	0x9d1
 3907 0673 81060000 		.4byte	0x681
 3908 0677 11       		.uleb128 0x11
 3909 0678 01       		.uleb128 0x1
 3910 0679 50       		.byte	0x50
 3911 067a 05       		.uleb128 0x5
 3912 067b 03       		.byte	0x3
 3913 067c 80000000 		.4byte	.LC10
 3914 0680 00       		.byte	0
 3915 0681 10       		.uleb128 0x10
 3916 0682 54000000 		.4byte	.LVL422
 3917 0686 C6090000 		.4byte	0x9c6
 3918 068a 99060000 		.4byte	0x699
 3919 068e 11       		.uleb128 0x11
 3920 068f 01       		.uleb128 0x1
 3921 0690 50       		.byte	0x50
 3922 0691 01       		.uleb128 0x1
 3923 0692 31       		.byte	0x31
 3924 0693 11       		.uleb128 0x11
 3925 0694 01       		.uleb128 0x1
 3926 0695 51       		.byte	0x51
 3927 0696 01       		.uleb128 0x1
 3928 0697 30       		.byte	0x30
 3929 0698 00       		.byte	0
 3930 0699 10       		.uleb128 0x10
 3931 069a 5A000000 		.4byte	.LVL423
 3932 069e D1090000 		.4byte	0x9d1
 3933 06a2 B0060000 		.4byte	0x6b0
 3934 06a6 11       		.uleb128 0x11
 3935 06a7 01       		.uleb128 0x1
 3936 06a8 50       		.byte	0x50
 3937 06a9 05       		.uleb128 0x5
 3938 06aa 03       		.byte	0x3
 3939 06ab 94000000 		.4byte	.LC11
 3940 06af 00       		.byte	0
 3941 06b0 10       		.uleb128 0x10
 3942 06b1 74000000 		.4byte	.LVL424
 3943 06b5 BB090000 		.4byte	0x9bb
ARM GAS  C:\Users\s_bej\AppData\Local\Temp\cczIgxd7.s 			page 81


 3944 06b9 C3060000 		.4byte	0x6c3
 3945 06bd 11       		.uleb128 0x11
 3946 06be 01       		.uleb128 0x1
 3947 06bf 50       		.byte	0x50
 3948 06c0 01       		.uleb128 0x1
 3949 06c1 31       		.byte	0x31
 3950 06c2 00       		.byte	0
 3951 06c3 0A       		.uleb128 0xa
 3952 06c4 78000000 		.4byte	.LVL425
 3953 06c8 340A0000 		.4byte	0xa34
 3954 06cc 10       		.uleb128 0x10
 3955 06cd 7E000000 		.4byte	.LVL426
 3956 06d1 D1090000 		.4byte	0x9d1
 3957 06d5 E3060000 		.4byte	0x6e3
 3958 06d9 11       		.uleb128 0x11
 3959 06da 01       		.uleb128 0x1
 3960 06db 50       		.byte	0x50
 3961 06dc 05       		.uleb128 0x5
 3962 06dd 03       		.byte	0x3
 3963 06de A8000000 		.4byte	.LC12
 3964 06e2 00       		.byte	0
 3965 06e3 10       		.uleb128 0x10
 3966 06e4 86000000 		.4byte	.LVL427
 3967 06e8 C6090000 		.4byte	0x9c6
 3968 06ec FB060000 		.4byte	0x6fb
 3969 06f0 11       		.uleb128 0x11
 3970 06f1 01       		.uleb128 0x1
 3971 06f2 50       		.byte	0x50
 3972 06f3 01       		.uleb128 0x1
 3973 06f4 31       		.byte	0x31
 3974 06f5 11       		.uleb128 0x11
 3975 06f6 01       		.uleb128 0x1
 3976 06f7 51       		.byte	0x51
 3977 06f8 01       		.uleb128 0x1
 3978 06f9 30       		.byte	0x30
 3979 06fa 00       		.byte	0
 3980 06fb 10       		.uleb128 0x10
 3981 06fc 8C000000 		.4byte	.LVL428
 3982 0700 D1090000 		.4byte	0x9d1
 3983 0704 12070000 		.4byte	0x712
 3984 0708 11       		.uleb128 0x11
 3985 0709 01       		.uleb128 0x1
 3986 070a 50       		.byte	0x50
 3987 070b 05       		.uleb128 0x5
 3988 070c 03       		.byte	0x3
 3989 070d B8000000 		.4byte	.LC13
 3990 0711 00       		.byte	0
 3991 0712 10       		.uleb128 0x10
 3992 0713 94000000 		.4byte	.LVL429
 3993 0717 E7090000 		.4byte	0x9e7
 3994 071b 27070000 		.4byte	0x727
 3995 071f 11       		.uleb128 0x11
 3996 0720 01       		.uleb128 0x1
 3997 0721 50       		.byte	0x50
 3998 0722 03       		.uleb128 0x3
 3999 0723 0A       		.byte	0xa
 4000 0724 C409     		.2byte	0x9c4
ARM GAS  C:\Users\s_bej\AppData\Local\Temp\cczIgxd7.s 			page 82


 4001 0726 00       		.byte	0
 4002 0727 10       		.uleb128 0x10
 4003 0728 9C000000 		.4byte	.LVL430
 4004 072c C6090000 		.4byte	0x9c6
 4005 0730 3F070000 		.4byte	0x73f
 4006 0734 11       		.uleb128 0x11
 4007 0735 01       		.uleb128 0x1
 4008 0736 50       		.byte	0x50
 4009 0737 01       		.uleb128 0x1
 4010 0738 30       		.byte	0x30
 4011 0739 11       		.uleb128 0x11
 4012 073a 01       		.uleb128 0x1
 4013 073b 51       		.byte	0x51
 4014 073c 01       		.uleb128 0x1
 4015 073d 30       		.byte	0x30
 4016 073e 00       		.byte	0
 4017 073f 10       		.uleb128 0x10
 4018 0740 A2000000 		.4byte	.LVL431
 4019 0744 D1090000 		.4byte	0x9d1
 4020 0748 56070000 		.4byte	0x756
 4021 074c 11       		.uleb128 0x11
 4022 074d 01       		.uleb128 0x1
 4023 074e 50       		.byte	0x50
 4024 074f 05       		.uleb128 0x5
 4025 0750 03       		.byte	0x3
 4026 0751 4C000000 		.4byte	.LC6
 4027 0755 00       		.byte	0
 4028 0756 10       		.uleb128 0x10
 4029 0757 AA000000 		.4byte	.LVL432
 4030 075b C6090000 		.4byte	0x9c6
 4031 075f 6E070000 		.4byte	0x76e
 4032 0763 11       		.uleb128 0x11
 4033 0764 01       		.uleb128 0x1
 4034 0765 50       		.byte	0x50
 4035 0766 01       		.uleb128 0x1
 4036 0767 30       		.byte	0x30
 4037 0768 11       		.uleb128 0x11
 4038 0769 01       		.uleb128 0x1
 4039 076a 51       		.byte	0x51
 4040 076b 01       		.uleb128 0x1
 4041 076c 30       		.byte	0x30
 4042 076d 00       		.byte	0
 4043 076e 10       		.uleb128 0x10
 4044 076f C2000000 		.4byte	.LVL433
 4045 0773 D1090000 		.4byte	0x9d1
 4046 0777 85070000 		.4byte	0x785
 4047 077b 11       		.uleb128 0x11
 4048 077c 01       		.uleb128 0x1
 4049 077d 50       		.byte	0x50
 4050 077e 05       		.uleb128 0x5
 4051 077f 03       		.byte	0x3
 4052 0780 C8000000 		.4byte	.LC14
 4053 0784 00       		.byte	0
 4054 0785 10       		.uleb128 0x10
 4055 0786 CA000000 		.4byte	.LVL434
 4056 078a D1090000 		.4byte	0x9d1
 4057 078e 9C070000 		.4byte	0x79c
ARM GAS  C:\Users\s_bej\AppData\Local\Temp\cczIgxd7.s 			page 83


 4058 0792 11       		.uleb128 0x11
 4059 0793 01       		.uleb128 0x1
 4060 0794 50       		.byte	0x50
 4061 0795 05       		.uleb128 0x5
 4062 0796 03       		.byte	0x3
 4063 0797 C8000000 		.4byte	.LC14
 4064 079b 00       		.byte	0
 4065 079c 10       		.uleb128 0x10
 4066 079d D2000000 		.4byte	.LVL435
 4067 07a1 D1090000 		.4byte	0x9d1
 4068 07a5 B3070000 		.4byte	0x7b3
 4069 07a9 11       		.uleb128 0x11
 4070 07aa 01       		.uleb128 0x1
 4071 07ab 50       		.byte	0x50
 4072 07ac 05       		.uleb128 0x5
 4073 07ad 03       		.byte	0x3
 4074 07ae D8000000 		.4byte	.LC15
 4075 07b2 00       		.byte	0
 4076 07b3 10       		.uleb128 0x10
 4077 07b4 DA000000 		.4byte	.LVL436
 4078 07b8 C6090000 		.4byte	0x9c6
 4079 07bc CB070000 		.4byte	0x7cb
 4080 07c0 11       		.uleb128 0x11
 4081 07c1 01       		.uleb128 0x1
 4082 07c2 50       		.byte	0x50
 4083 07c3 01       		.uleb128 0x1
 4084 07c4 31       		.byte	0x31
 4085 07c5 11       		.uleb128 0x11
 4086 07c6 01       		.uleb128 0x1
 4087 07c7 51       		.byte	0x51
 4088 07c8 01       		.uleb128 0x1
 4089 07c9 30       		.byte	0x30
 4090 07ca 00       		.byte	0
 4091 07cb 10       		.uleb128 0x10
 4092 07cc E0000000 		.4byte	.LVL437
 4093 07d0 D1090000 		.4byte	0x9d1
 4094 07d4 E2070000 		.4byte	0x7e2
 4095 07d8 11       		.uleb128 0x11
 4096 07d9 01       		.uleb128 0x1
 4097 07da 50       		.byte	0x50
 4098 07db 05       		.uleb128 0x5
 4099 07dc 03       		.byte	0x3
 4100 07dd 4C000000 		.4byte	.LC6
 4101 07e1 00       		.byte	0
 4102 07e2 10       		.uleb128 0x10
 4103 07e3 E8000000 		.4byte	.LVL438
 4104 07e7 C6090000 		.4byte	0x9c6
 4105 07eb FA070000 		.4byte	0x7fa
 4106 07ef 11       		.uleb128 0x11
 4107 07f0 01       		.uleb128 0x1
 4108 07f1 50       		.byte	0x50
 4109 07f2 01       		.uleb128 0x1
 4110 07f3 31       		.byte	0x31
 4111 07f4 11       		.uleb128 0x11
 4112 07f5 01       		.uleb128 0x1
 4113 07f6 51       		.byte	0x51
 4114 07f7 01       		.uleb128 0x1
ARM GAS  C:\Users\s_bej\AppData\Local\Temp\cczIgxd7.s 			page 84


 4115 07f8 30       		.byte	0x30
 4116 07f9 00       		.byte	0
 4117 07fa 10       		.uleb128 0x10
 4118 07fb EE000000 		.4byte	.LVL439
 4119 07ff D1090000 		.4byte	0x9d1
 4120 0803 11080000 		.4byte	0x811
 4121 0807 11       		.uleb128 0x11
 4122 0808 01       		.uleb128 0x1
 4123 0809 50       		.byte	0x50
 4124 080a 05       		.uleb128 0x5
 4125 080b 03       		.byte	0x3
 4126 080c EC000000 		.4byte	.LC16
 4127 0810 00       		.byte	0
 4128 0811 10       		.uleb128 0x10
 4129 0812 F4000000 		.4byte	.LVL440
 4130 0816 6B0A0000 		.4byte	0xa6b
 4131 081a 28080000 		.4byte	0x828
 4132 081e 11       		.uleb128 0x11
 4133 081f 01       		.uleb128 0x1
 4134 0820 50       		.byte	0x50
 4135 0821 05       		.uleb128 0x5
 4136 0822 03       		.byte	0x3
 4137 0823 00000000 		.4byte	identificarTecla
 4138 0827 00       		.byte	0
 4139 0828 12       		.uleb128 0x12
 4140 0829 FC000000 		.4byte	.LVL441
 4141 082d E7090000 		.4byte	0x9e7
 4142 0831 11       		.uleb128 0x11
 4143 0832 01       		.uleb128 0x1
 4144 0833 50       		.byte	0x50
 4145 0834 03       		.uleb128 0x3
 4146 0835 0A       		.byte	0xa
 4147 0836 C409     		.2byte	0x9c4
 4148 0838 00       		.byte	0
 4149 0839 00       		.byte	0
 4150 083a 15       		.uleb128 0x15
 4151 083b FE020000 		.4byte	.LASF25
 4152 083f 05       		.byte	0x5
 4153 0840 1207     		.2byte	0x712
 4154 0842 46080000 		.4byte	0x846
 4155 0846 06       		.uleb128 0x6
 4156 0847 76000000 		.4byte	0x76
 4157 084b 16       		.uleb128 0x16
 4158 084c 18040000 		.4byte	0x418
 4159 0850 5B080000 		.4byte	0x85b
 4160 0854 17       		.uleb128 0x17
 4161 0855 BA000000 		.4byte	0xba
 4162 0859 32       		.byte	0x32
 4163 085a 00       		.byte	0
 4164 085b 18       		.uleb128 0x18
 4165 085c 6800     		.ascii	"h\000"
 4166 085e 01       		.byte	0x1
 4167 085f 13       		.byte	0x13
 4168 0860 6A080000 		.4byte	0x86a
 4169 0864 05       		.uleb128 0x5
 4170 0865 03       		.byte	0x3
 4171 0866 00000000 		.4byte	h
ARM GAS  C:\Users\s_bej\AppData\Local\Temp\cczIgxd7.s 			page 85


 4172 086a 06       		.uleb128 0x6
 4173 086b 4B080000 		.4byte	0x84b
 4174 086f 16       		.uleb128 0x16
 4175 0870 8D000000 		.4byte	0x8d
 4176 0874 7F080000 		.4byte	0x87f
 4177 0878 17       		.uleb128 0x17
 4178 0879 BA000000 		.4byte	0xba
 4179 087d 32       		.byte	0x32
 4180 087e 00       		.byte	0
 4181 087f 18       		.uleb128 0x18
 4182 0880 7800     		.ascii	"x\000"
 4183 0882 01       		.byte	0x1
 4184 0883 14       		.byte	0x14
 4185 0884 6F080000 		.4byte	0x86f
 4186 0888 05       		.uleb128 0x5
 4187 0889 03       		.byte	0x3
 4188 088a 00000000 		.4byte	x
 4189 088e 19       		.uleb128 0x19
 4190 088f AA000000 		.4byte	.LASF26
 4191 0893 01       		.byte	0x1
 4192 0894 15       		.byte	0x15
 4193 0895 8D000000 		.4byte	0x8d
 4194 0899 05       		.uleb128 0x5
 4195 089a 03       		.byte	0x3
 4196 089b 00000000 		.4byte	frec_final
 4197 089f 18       		.uleb128 0x18
 4198 08a0 6900     		.ascii	"i\000"
 4199 08a2 01       		.byte	0x1
 4200 08a3 16       		.byte	0x16
 4201 08a4 AE000000 		.4byte	0xae
 4202 08a8 05       		.uleb128 0x5
 4203 08a9 03       		.byte	0x3
 4204 08aa 00000000 		.4byte	i
 4205 08ae 19       		.uleb128 0x19
 4206 08af B6010000 		.4byte	.LASF27
 4207 08b3 01       		.byte	0x1
 4208 08b4 16       		.byte	0x16
 4209 08b5 AE000000 		.4byte	0xae
 4210 08b9 05       		.uleb128 0x5
 4211 08ba 03       		.byte	0x3
 4212 08bb 00000000 		.4byte	cont_char
 4213 08bf 19       		.uleb128 0x19
 4214 08c0 99030000 		.4byte	.LASF28
 4215 08c4 01       		.byte	0x1
 4216 08c5 16       		.byte	0x16
 4217 08c6 AE000000 		.4byte	0xae
 4218 08ca 05       		.uleb128 0x5
 4219 08cb 03       		.byte	0x3
 4220 08cc 00000000 		.4byte	u_frec
 4221 08d0 19       		.uleb128 0x19
 4222 08d1 BC020000 		.4byte	.LASF29
 4223 08d5 01       		.byte	0x1
 4224 08d6 16       		.byte	0x16
 4225 08d7 AE000000 		.4byte	0xae
 4226 08db 05       		.uleb128 0x5
 4227 08dc 03       		.byte	0x3
 4228 08dd 00000000 		.4byte	d_frec
ARM GAS  C:\Users\s_bej\AppData\Local\Temp\cczIgxd7.s 			page 86


 4229 08e1 19       		.uleb128 0x19
 4230 08e2 16000000 		.4byte	.LASF30
 4231 08e6 01       		.byte	0x1
 4232 08e7 16       		.byte	0x16
 4233 08e8 AE000000 		.4byte	0xae
 4234 08ec 05       		.uleb128 0x5
 4235 08ed 03       		.byte	0x3
 4236 08ee 00000000 		.4byte	c_frec
 4237 08f2 19       		.uleb128 0x19
 4238 08f3 4F020000 		.4byte	.LASF31
 4239 08f7 01       		.byte	0x1
 4240 08f8 16       		.byte	0x16
 4241 08f9 AE000000 		.4byte	0xae
 4242 08fd 05       		.uleb128 0x5
 4243 08fe 03       		.byte	0x3
 4244 08ff 00000000 		.4byte	um_frec
 4245 0903 19       		.uleb128 0x19
 4246 0904 C0000000 		.4byte	.LASF32
 4247 0908 01       		.byte	0x1
 4248 0909 17       		.byte	0x17
 4249 090a 14090000 		.4byte	0x914
 4250 090e 05       		.uleb128 0x5
 4251 090f 03       		.byte	0x3
 4252 0910 00000000 		.4byte	fila
 4253 0914 06       		.uleb128 0x6
 4254 0915 A7000000 		.4byte	0xa7
 4255 0919 19       		.uleb128 0x19
 4256 091a BA000000 		.4byte	.LASF33
 4257 091e 01       		.byte	0x1
 4258 091f 17       		.byte	0x17
 4259 0920 14090000 		.4byte	0x914
 4260 0924 05       		.uleb128 0x5
 4261 0925 03       		.byte	0x3
 4262 0926 00000000 		.4byte	tecla
 4263 092a 19       		.uleb128 0x19
 4264 092b F9000000 		.4byte	.LASF34
 4265 092f 01       		.byte	0x1
 4266 0930 17       		.byte	0x17
 4267 0931 14090000 		.4byte	0x914
 4268 0935 05       		.uleb128 0x5
 4269 0936 03       		.byte	0x3
 4270 0937 00000000 		.4byte	columna
 4271 093b 19       		.uleb128 0x19
 4272 093c 25020000 		.4byte	.LASF35
 4273 0940 01       		.byte	0x1
 4274 0941 17       		.byte	0x17
 4275 0942 14090000 		.4byte	0x914
 4276 0946 05       		.uleb128 0x5
 4277 0947 03       		.byte	0x3
 4278 0948 00000000 		.4byte	paso
 4279 094c 19       		.uleb128 0x19
 4280 094d 67010000 		.4byte	.LASF36
 4281 0951 01       		.byte	0x1
 4282 0952 17       		.byte	0x17
 4283 0953 14090000 		.4byte	0x914
 4284 0957 05       		.uleb128 0x5
 4285 0958 03       		.byte	0x3
ARM GAS  C:\Users\s_bej\AppData\Local\Temp\cczIgxd7.s 			page 87


 4286 0959 00000000 		.4byte	filtro
 4287 095d 16       		.uleb128 0x16
 4288 095e 14090000 		.4byte	0x914
 4289 0962 6D090000 		.4byte	0x96d
 4290 0966 17       		.uleb128 0x17
 4291 0967 BA000000 		.4byte	0xba
 4292 096b 03       		.byte	0x3
 4293 096c 00       		.byte	0
 4294 096d 19       		.uleb128 0x19
 4295 096e F4000000 		.4byte	.LASF37
 4296 0972 01       		.byte	0x1
 4297 0973 18       		.byte	0x18
 4298 0974 7E090000 		.4byte	0x97e
 4299 0978 05       		.uleb128 0x5
 4300 0979 03       		.byte	0x3
 4301 097a 00000000 		.4byte	frec
 4302 097e 06       		.uleb128 0x6
 4303 097f 5D090000 		.4byte	0x95d
 4304 0983 1A       		.uleb128 0x1a
 4305 0984 3D020000 		.4byte	.LASF38
 4306 0988 3D020000 		.4byte	.LASF38
 4307 098c 06       		.byte	0x6
 4308 098d 4A       		.byte	0x4a
 4309 098e 1B       		.uleb128 0x1b
 4310 098f B8030000 		.4byte	.LASF39
 4311 0993 B8030000 		.4byte	.LASF39
 4312 0997 07       		.byte	0x7
 4313 0998 4E01     		.2byte	0x14e
 4314 099a 1A       		.uleb128 0x1a
 4315 099b A8030000 		.4byte	.LASF40
 4316 099f A8030000 		.4byte	.LASF40
 4317 09a3 08       		.byte	0x8
 4318 09a4 3B       		.byte	0x3b
 4319 09a5 1A       		.uleb128 0x1a
 4320 09a6 A6020000 		.4byte	.LASF41
 4321 09aa A6020000 		.4byte	.LASF41
 4322 09ae 09       		.byte	0x9
 4323 09af 26       		.byte	0x26
 4324 09b0 1C       		.uleb128 0x1c
 4325 09b1 73696E00 		.ascii	"sin\000"
 4326 09b5 73696E00 		.ascii	"sin\000"
 4327 09b9 07       		.byte	0x7
 4328 09ba 6F       		.byte	0x6f
 4329 09bb 1A       		.uleb128 0x1a
 4330 09bc 73000000 		.4byte	.LASF42
 4331 09c0 73000000 		.4byte	.LASF42
 4332 09c4 0A       		.byte	0xa
 4333 09c5 3A       		.byte	0x3a
 4334 09c6 1A       		.uleb128 0x1a
 4335 09c7 C3020000 		.4byte	.LASF43
 4336 09cb C3020000 		.4byte	.LASF43
 4337 09cf 0A       		.byte	0xa
 4338 09d0 3D       		.byte	0x3d
 4339 09d1 1A       		.uleb128 0x1a
 4340 09d2 0B020000 		.4byte	.LASF44
 4341 09d6 0B020000 		.4byte	.LASF44
 4342 09da 0A       		.byte	0xa
ARM GAS  C:\Users\s_bej\AppData\Local\Temp\cczIgxd7.s 			page 88


 4343 09db 3C       		.byte	0x3c
 4344 09dc 1A       		.uleb128 0x1a
 4345 09dd 86010000 		.4byte	.LASF45
 4346 09e1 86010000 		.4byte	.LASF45
 4347 09e5 0A       		.byte	0xa
 4348 09e6 3E       		.byte	0x3e
 4349 09e7 1A       		.uleb128 0x1a
 4350 09e8 A0030000 		.4byte	.LASF46
 4351 09ec A0030000 		.4byte	.LASF46
 4352 09f0 0B       		.byte	0xb
 4353 09f1 76       		.byte	0x76
 4354 09f2 1A       		.uleb128 0x1a
 4355 09f3 54010000 		.4byte	.LASF47
 4356 09f7 54010000 		.4byte	.LASF47
 4357 09fb 08       		.byte	0x8
 4358 09fc 34       		.byte	0x34
 4359 09fd 1A       		.uleb128 0x1a
 4360 09fe D1010000 		.4byte	.LASF48
 4361 0a02 D1010000 		.4byte	.LASF48
 4362 0a06 06       		.byte	0x6
 4363 0a07 48       		.byte	0x48
 4364 0a08 1A       		.uleb128 0x1a
 4365 0a09 DF000000 		.4byte	.LASF49
 4366 0a0d DF000000 		.4byte	.LASF49
 4367 0a11 0C       		.byte	0xc
 4368 0a12 5A       		.byte	0x5a
 4369 0a13 1A       		.uleb128 0x1a
 4370 0a14 E2020000 		.4byte	.LASF50
 4371 0a18 E2020000 		.4byte	.LASF50
 4372 0a1c 0D       		.byte	0xd
 4373 0a1d 5B       		.byte	0x5b
 4374 0a1e 1A       		.uleb128 0x1a
 4375 0a1f 00000000 		.4byte	.LASF51
 4376 0a23 00000000 		.4byte	.LASF51
 4377 0a27 0E       		.byte	0xe
 4378 0a28 18       		.byte	0x18
 4379 0a29 1A       		.uleb128 0x1a
 4380 0a2a C5000000 		.4byte	.LASF52
 4381 0a2e C5000000 		.4byte	.LASF52
 4382 0a32 0F       		.byte	0xf
 4383 0a33 19       		.byte	0x19
 4384 0a34 1A       		.uleb128 0x1a
 4385 0a35 01010000 		.4byte	.LASF53
 4386 0a39 01010000 		.4byte	.LASF53
 4387 0a3d 10       		.byte	0x10
 4388 0a3e 19       		.byte	0x19
 4389 0a3f 1A       		.uleb128 0x1a
 4390 0a40 9C000000 		.4byte	.LASF54
 4391 0a44 9C000000 		.4byte	.LASF54
 4392 0a48 11       		.byte	0x11
 4393 0a49 29       		.byte	0x29
 4394 0a4a 1A       		.uleb128 0x1a
 4395 0a4b 6E010000 		.4byte	.LASF55
 4396 0a4f 6E010000 		.4byte	.LASF55
 4397 0a53 11       		.byte	0x11
 4398 0a54 2B       		.byte	0x2b
 4399 0a55 1A       		.uleb128 0x1a
ARM GAS  C:\Users\s_bej\AppData\Local\Temp\cczIgxd7.s 			page 89


 4400 0a56 92010000 		.4byte	.LASF56
 4401 0a5a 92010000 		.4byte	.LASF56
 4402 0a5e 0A       		.byte	0xa
 4403 0a5f 38       		.byte	0x38
 4404 0a60 1A       		.uleb128 0x1a
 4405 0a61 42010000 		.4byte	.LASF57
 4406 0a65 42010000 		.4byte	.LASF57
 4407 0a69 0D       		.byte	0xd
 4408 0a6a 5A       		.byte	0x5a
 4409 0a6b 1A       		.uleb128 0x1a
 4410 0a6c 5F020000 		.4byte	.LASF58
 4411 0a70 5F020000 		.4byte	.LASF58
 4412 0a74 10       		.byte	0x10
 4413 0a75 18       		.byte	0x18
 4414 0a76 1A       		.uleb128 0x1a
 4415 0a77 1E010000 		.4byte	.LASF59
 4416 0a7b 1E010000 		.4byte	.LASF59
 4417 0a7f 0F       		.byte	0xf
 4418 0a80 18       		.byte	0x18
 4419 0a81 00       		.byte	0
 4420              		.section	.debug_abbrev,"",%progbits
 4421              	.Ldebug_abbrev0:
 4422 0000 01       		.uleb128 0x1
 4423 0001 11       		.uleb128 0x11
 4424 0002 01       		.byte	0x1
 4425 0003 25       		.uleb128 0x25
 4426 0004 0E       		.uleb128 0xe
 4427 0005 13       		.uleb128 0x13
 4428 0006 0B       		.uleb128 0xb
 4429 0007 03       		.uleb128 0x3
 4430 0008 0E       		.uleb128 0xe
 4431 0009 1B       		.uleb128 0x1b
 4432 000a 0E       		.uleb128 0xe
 4433 000b 55       		.uleb128 0x55
 4434 000c 17       		.uleb128 0x17
 4435 000d 11       		.uleb128 0x11
 4436 000e 01       		.uleb128 0x1
 4437 000f 10       		.uleb128 0x10
 4438 0010 17       		.uleb128 0x17
 4439 0011 00       		.byte	0
 4440 0012 00       		.byte	0
 4441 0013 02       		.uleb128 0x2
 4442 0014 24       		.uleb128 0x24
 4443 0015 00       		.byte	0
 4444 0016 0B       		.uleb128 0xb
 4445 0017 0B       		.uleb128 0xb
 4446 0018 3E       		.uleb128 0x3e
 4447 0019 0B       		.uleb128 0xb
 4448 001a 03       		.uleb128 0x3
 4449 001b 0E       		.uleb128 0xe
 4450 001c 00       		.byte	0
 4451 001d 00       		.byte	0
 4452 001e 03       		.uleb128 0x3
 4453 001f 16       		.uleb128 0x16
 4454 0020 00       		.byte	0
 4455 0021 03       		.uleb128 0x3
 4456 0022 0E       		.uleb128 0xe
ARM GAS  C:\Users\s_bej\AppData\Local\Temp\cczIgxd7.s 			page 90


 4457 0023 3A       		.uleb128 0x3a
 4458 0024 0B       		.uleb128 0xb
 4459 0025 3B       		.uleb128 0x3b
 4460 0026 0B       		.uleb128 0xb
 4461 0027 49       		.uleb128 0x49
 4462 0028 13       		.uleb128 0x13
 4463 0029 00       		.byte	0
 4464 002a 00       		.byte	0
 4465 002b 04       		.uleb128 0x4
 4466 002c 24       		.uleb128 0x24
 4467 002d 00       		.byte	0
 4468 002e 0B       		.uleb128 0xb
 4469 002f 0B       		.uleb128 0xb
 4470 0030 3E       		.uleb128 0x3e
 4471 0031 0B       		.uleb128 0xb
 4472 0032 03       		.uleb128 0x3
 4473 0033 08       		.uleb128 0x8
 4474 0034 00       		.byte	0
 4475 0035 00       		.byte	0
 4476 0036 05       		.uleb128 0x5
 4477 0037 16       		.uleb128 0x16
 4478 0038 00       		.byte	0
 4479 0039 03       		.uleb128 0x3
 4480 003a 0E       		.uleb128 0xe
 4481 003b 3A       		.uleb128 0x3a
 4482 003c 0B       		.uleb128 0xb
 4483 003d 3B       		.uleb128 0x3b
 4484 003e 05       		.uleb128 0x5
 4485 003f 49       		.uleb128 0x49
 4486 0040 13       		.uleb128 0x13
 4487 0041 00       		.byte	0
 4488 0042 00       		.byte	0
 4489 0043 06       		.uleb128 0x6
 4490 0044 35       		.uleb128 0x35
 4491 0045 00       		.byte	0
 4492 0046 49       		.uleb128 0x49
 4493 0047 13       		.uleb128 0x13
 4494 0048 00       		.byte	0
 4495 0049 00       		.byte	0
 4496 004a 07       		.uleb128 0x7
 4497 004b 2E       		.uleb128 0x2e
 4498 004c 01       		.byte	0x1
 4499 004d 3F       		.uleb128 0x3f
 4500 004e 19       		.uleb128 0x19
 4501 004f 03       		.uleb128 0x3
 4502 0050 0E       		.uleb128 0xe
 4503 0051 3A       		.uleb128 0x3a
 4504 0052 0B       		.uleb128 0xb
 4505 0053 3B       		.uleb128 0x3b
 4506 0054 0B       		.uleb128 0xb
 4507 0055 27       		.uleb128 0x27
 4508 0056 19       		.uleb128 0x19
 4509 0057 11       		.uleb128 0x11
 4510 0058 01       		.uleb128 0x1
 4511 0059 12       		.uleb128 0x12
 4512 005a 06       		.uleb128 0x6
 4513 005b 40       		.uleb128 0x40
ARM GAS  C:\Users\s_bej\AppData\Local\Temp\cczIgxd7.s 			page 91


 4514 005c 18       		.uleb128 0x18
 4515 005d 9642     		.uleb128 0x2116
 4516 005f 19       		.uleb128 0x19
 4517 0060 01       		.uleb128 0x1
 4518 0061 13       		.uleb128 0x13
 4519 0062 00       		.byte	0
 4520 0063 00       		.byte	0
 4521 0064 08       		.uleb128 0x8
 4522 0065 0B       		.uleb128 0xb
 4523 0066 01       		.byte	0x1
 4524 0067 11       		.uleb128 0x11
 4525 0068 01       		.uleb128 0x1
 4526 0069 12       		.uleb128 0x12
 4527 006a 06       		.uleb128 0x6
 4528 006b 01       		.uleb128 0x1
 4529 006c 13       		.uleb128 0x13
 4530 006d 00       		.byte	0
 4531 006e 00       		.byte	0
 4532 006f 09       		.uleb128 0x9
 4533 0070 34       		.uleb128 0x34
 4534 0071 00       		.byte	0
 4535 0072 03       		.uleb128 0x3
 4536 0073 08       		.uleb128 0x8
 4537 0074 3A       		.uleb128 0x3a
 4538 0075 0B       		.uleb128 0xb
 4539 0076 3B       		.uleb128 0x3b
 4540 0077 0B       		.uleb128 0xb
 4541 0078 49       		.uleb128 0x49
 4542 0079 13       		.uleb128 0x13
 4543 007a 02       		.uleb128 0x2
 4544 007b 17       		.uleb128 0x17
 4545 007c 00       		.byte	0
 4546 007d 00       		.byte	0
 4547 007e 0A       		.uleb128 0xa
 4548 007f 898201   		.uleb128 0x4109
 4549 0082 00       		.byte	0
 4550 0083 11       		.uleb128 0x11
 4551 0084 01       		.uleb128 0x1
 4552 0085 31       		.uleb128 0x31
 4553 0086 13       		.uleb128 0x13
 4554 0087 00       		.byte	0
 4555 0088 00       		.byte	0
 4556 0089 0B       		.uleb128 0xb
 4557 008a 2E       		.uleb128 0x2e
 4558 008b 01       		.byte	0x1
 4559 008c 3F       		.uleb128 0x3f
 4560 008d 19       		.uleb128 0x19
 4561 008e 03       		.uleb128 0x3
 4562 008f 0E       		.uleb128 0xe
 4563 0090 3A       		.uleb128 0x3a
 4564 0091 0B       		.uleb128 0xb
 4565 0092 3B       		.uleb128 0x3b
 4566 0093 05       		.uleb128 0x5
 4567 0094 27       		.uleb128 0x27
 4568 0095 19       		.uleb128 0x19
 4569 0096 11       		.uleb128 0x11
 4570 0097 01       		.uleb128 0x1
ARM GAS  C:\Users\s_bej\AppData\Local\Temp\cczIgxd7.s 			page 92


 4571 0098 12       		.uleb128 0x12
 4572 0099 06       		.uleb128 0x6
 4573 009a 40       		.uleb128 0x40
 4574 009b 18       		.uleb128 0x18
 4575 009c 9742     		.uleb128 0x2117
 4576 009e 19       		.uleb128 0x19
 4577 009f 01       		.uleb128 0x1
 4578 00a0 13       		.uleb128 0x13
 4579 00a1 00       		.byte	0
 4580 00a2 00       		.byte	0
 4581 00a3 0C       		.uleb128 0xc
 4582 00a4 2E       		.uleb128 0x2e
 4583 00a5 01       		.byte	0x1
 4584 00a6 3F       		.uleb128 0x3f
 4585 00a7 19       		.uleb128 0x19
 4586 00a8 03       		.uleb128 0x3
 4587 00a9 0E       		.uleb128 0xe
 4588 00aa 3A       		.uleb128 0x3a
 4589 00ab 0B       		.uleb128 0xb
 4590 00ac 3B       		.uleb128 0x3b
 4591 00ad 0B       		.uleb128 0xb
 4592 00ae 11       		.uleb128 0x11
 4593 00af 01       		.uleb128 0x1
 4594 00b0 12       		.uleb128 0x12
 4595 00b1 06       		.uleb128 0x6
 4596 00b2 40       		.uleb128 0x40
 4597 00b3 18       		.uleb128 0x18
 4598 00b4 9642     		.uleb128 0x2116
 4599 00b6 19       		.uleb128 0x19
 4600 00b7 01       		.uleb128 0x1
 4601 00b8 13       		.uleb128 0x13
 4602 00b9 00       		.byte	0
 4603 00ba 00       		.byte	0
 4604 00bb 0D       		.uleb128 0xd
 4605 00bc 34       		.uleb128 0x34
 4606 00bd 00       		.byte	0
 4607 00be 03       		.uleb128 0x3
 4608 00bf 08       		.uleb128 0x8
 4609 00c0 3A       		.uleb128 0x3a
 4610 00c1 0B       		.uleb128 0xb
 4611 00c2 3B       		.uleb128 0x3b
 4612 00c3 0B       		.uleb128 0xb
 4613 00c4 49       		.uleb128 0x49
 4614 00c5 13       		.uleb128 0x13
 4615 00c6 02       		.uleb128 0x2
 4616 00c7 18       		.uleb128 0x18
 4617 00c8 00       		.byte	0
 4618 00c9 00       		.byte	0
 4619 00ca 0E       		.uleb128 0xe
 4620 00cb 34       		.uleb128 0x34
 4621 00cc 00       		.byte	0
 4622 00cd 03       		.uleb128 0x3
 4623 00ce 0E       		.uleb128 0xe
 4624 00cf 3A       		.uleb128 0x3a
 4625 00d0 0B       		.uleb128 0xb
 4626 00d1 3B       		.uleb128 0x3b
 4627 00d2 0B       		.uleb128 0xb
ARM GAS  C:\Users\s_bej\AppData\Local\Temp\cczIgxd7.s 			page 93


 4628 00d3 49       		.uleb128 0x49
 4629 00d4 13       		.uleb128 0x13
 4630 00d5 02       		.uleb128 0x2
 4631 00d6 17       		.uleb128 0x17
 4632 00d7 00       		.byte	0
 4633 00d8 00       		.byte	0
 4634 00d9 0F       		.uleb128 0xf
 4635 00da 0B       		.uleb128 0xb
 4636 00db 01       		.byte	0x1
 4637 00dc 11       		.uleb128 0x11
 4638 00dd 01       		.uleb128 0x1
 4639 00de 12       		.uleb128 0x12
 4640 00df 06       		.uleb128 0x6
 4641 00e0 00       		.byte	0
 4642 00e1 00       		.byte	0
 4643 00e2 10       		.uleb128 0x10
 4644 00e3 898201   		.uleb128 0x4109
 4645 00e6 01       		.byte	0x1
 4646 00e7 11       		.uleb128 0x11
 4647 00e8 01       		.uleb128 0x1
 4648 00e9 31       		.uleb128 0x31
 4649 00ea 13       		.uleb128 0x13
 4650 00eb 01       		.uleb128 0x1
 4651 00ec 13       		.uleb128 0x13
 4652 00ed 00       		.byte	0
 4653 00ee 00       		.byte	0
 4654 00ef 11       		.uleb128 0x11
 4655 00f0 8A8201   		.uleb128 0x410a
 4656 00f3 00       		.byte	0
 4657 00f4 02       		.uleb128 0x2
 4658 00f5 18       		.uleb128 0x18
 4659 00f6 9142     		.uleb128 0x2111
 4660 00f8 18       		.uleb128 0x18
 4661 00f9 00       		.byte	0
 4662 00fa 00       		.byte	0
 4663 00fb 12       		.uleb128 0x12
 4664 00fc 898201   		.uleb128 0x4109
 4665 00ff 01       		.byte	0x1
 4666 0100 11       		.uleb128 0x11
 4667 0101 01       		.uleb128 0x1
 4668 0102 31       		.uleb128 0x31
 4669 0103 13       		.uleb128 0x13
 4670 0104 00       		.byte	0
 4671 0105 00       		.byte	0
 4672 0106 13       		.uleb128 0x13
 4673 0107 2E       		.uleb128 0x2e
 4674 0108 01       		.byte	0x1
 4675 0109 3F       		.uleb128 0x3f
 4676 010a 19       		.uleb128 0x19
 4677 010b 03       		.uleb128 0x3
 4678 010c 0E       		.uleb128 0xe
 4679 010d 3A       		.uleb128 0x3a
 4680 010e 0B       		.uleb128 0xb
 4681 010f 3B       		.uleb128 0x3b
 4682 0110 0B       		.uleb128 0xb
 4683 0111 27       		.uleb128 0x27
 4684 0112 19       		.uleb128 0x19
ARM GAS  C:\Users\s_bej\AppData\Local\Temp\cczIgxd7.s 			page 94


 4685 0113 11       		.uleb128 0x11
 4686 0114 01       		.uleb128 0x1
 4687 0115 12       		.uleb128 0x12
 4688 0116 06       		.uleb128 0x6
 4689 0117 40       		.uleb128 0x40
 4690 0118 18       		.uleb128 0x18
 4691 0119 9742     		.uleb128 0x2117
 4692 011b 19       		.uleb128 0x19
 4693 011c 01       		.uleb128 0x1
 4694 011d 13       		.uleb128 0x13
 4695 011e 00       		.byte	0
 4696 011f 00       		.byte	0
 4697 0120 14       		.uleb128 0x14
 4698 0121 2E       		.uleb128 0x2e
 4699 0122 01       		.byte	0x1
 4700 0123 3F       		.uleb128 0x3f
 4701 0124 19       		.uleb128 0x19
 4702 0125 03       		.uleb128 0x3
 4703 0126 0E       		.uleb128 0xe
 4704 0127 3A       		.uleb128 0x3a
 4705 0128 0B       		.uleb128 0xb
 4706 0129 3B       		.uleb128 0x3b
 4707 012a 05       		.uleb128 0x5
 4708 012b 27       		.uleb128 0x27
 4709 012c 19       		.uleb128 0x19
 4710 012d 49       		.uleb128 0x49
 4711 012e 13       		.uleb128 0x13
 4712 012f 8701     		.uleb128 0x87
 4713 0131 19       		.uleb128 0x19
 4714 0132 11       		.uleb128 0x11
 4715 0133 01       		.uleb128 0x1
 4716 0134 12       		.uleb128 0x12
 4717 0135 06       		.uleb128 0x6
 4718 0136 40       		.uleb128 0x40
 4719 0137 18       		.uleb128 0x18
 4720 0138 9742     		.uleb128 0x2117
 4721 013a 19       		.uleb128 0x19
 4722 013b 01       		.uleb128 0x1
 4723 013c 13       		.uleb128 0x13
 4724 013d 00       		.byte	0
 4725 013e 00       		.byte	0
 4726 013f 15       		.uleb128 0x15
 4727 0140 34       		.uleb128 0x34
 4728 0141 00       		.byte	0
 4729 0142 03       		.uleb128 0x3
 4730 0143 0E       		.uleb128 0xe
 4731 0144 3A       		.uleb128 0x3a
 4732 0145 0B       		.uleb128 0xb
 4733 0146 3B       		.uleb128 0x3b
 4734 0147 05       		.uleb128 0x5
 4735 0148 49       		.uleb128 0x49
 4736 0149 13       		.uleb128 0x13
 4737 014a 3F       		.uleb128 0x3f
 4738 014b 19       		.uleb128 0x19
 4739 014c 3C       		.uleb128 0x3c
 4740 014d 19       		.uleb128 0x19
 4741 014e 00       		.byte	0
ARM GAS  C:\Users\s_bej\AppData\Local\Temp\cczIgxd7.s 			page 95


 4742 014f 00       		.byte	0
 4743 0150 16       		.uleb128 0x16
 4744 0151 01       		.uleb128 0x1
 4745 0152 01       		.byte	0x1
 4746 0153 49       		.uleb128 0x49
 4747 0154 13       		.uleb128 0x13
 4748 0155 01       		.uleb128 0x1
 4749 0156 13       		.uleb128 0x13
 4750 0157 00       		.byte	0
 4751 0158 00       		.byte	0
 4752 0159 17       		.uleb128 0x17
 4753 015a 21       		.uleb128 0x21
 4754 015b 00       		.byte	0
 4755 015c 49       		.uleb128 0x49
 4756 015d 13       		.uleb128 0x13
 4757 015e 2F       		.uleb128 0x2f
 4758 015f 0B       		.uleb128 0xb
 4759 0160 00       		.byte	0
 4760 0161 00       		.byte	0
 4761 0162 18       		.uleb128 0x18
 4762 0163 34       		.uleb128 0x34
 4763 0164 00       		.byte	0
 4764 0165 03       		.uleb128 0x3
 4765 0166 08       		.uleb128 0x8
 4766 0167 3A       		.uleb128 0x3a
 4767 0168 0B       		.uleb128 0xb
 4768 0169 3B       		.uleb128 0x3b
 4769 016a 0B       		.uleb128 0xb
 4770 016b 49       		.uleb128 0x49
 4771 016c 13       		.uleb128 0x13
 4772 016d 3F       		.uleb128 0x3f
 4773 016e 19       		.uleb128 0x19
 4774 016f 02       		.uleb128 0x2
 4775 0170 18       		.uleb128 0x18
 4776 0171 00       		.byte	0
 4777 0172 00       		.byte	0
 4778 0173 19       		.uleb128 0x19
 4779 0174 34       		.uleb128 0x34
 4780 0175 00       		.byte	0
 4781 0176 03       		.uleb128 0x3
 4782 0177 0E       		.uleb128 0xe
 4783 0178 3A       		.uleb128 0x3a
 4784 0179 0B       		.uleb128 0xb
 4785 017a 3B       		.uleb128 0x3b
 4786 017b 0B       		.uleb128 0xb
 4787 017c 49       		.uleb128 0x49
 4788 017d 13       		.uleb128 0x13
 4789 017e 3F       		.uleb128 0x3f
 4790 017f 19       		.uleb128 0x19
 4791 0180 02       		.uleb128 0x2
 4792 0181 18       		.uleb128 0x18
 4793 0182 00       		.byte	0
 4794 0183 00       		.byte	0
 4795 0184 1A       		.uleb128 0x1a
 4796 0185 2E       		.uleb128 0x2e
 4797 0186 00       		.byte	0
 4798 0187 3F       		.uleb128 0x3f
ARM GAS  C:\Users\s_bej\AppData\Local\Temp\cczIgxd7.s 			page 96


 4799 0188 19       		.uleb128 0x19
 4800 0189 3C       		.uleb128 0x3c
 4801 018a 19       		.uleb128 0x19
 4802 018b 6E       		.uleb128 0x6e
 4803 018c 0E       		.uleb128 0xe
 4804 018d 03       		.uleb128 0x3
 4805 018e 0E       		.uleb128 0xe
 4806 018f 3A       		.uleb128 0x3a
 4807 0190 0B       		.uleb128 0xb
 4808 0191 3B       		.uleb128 0x3b
 4809 0192 0B       		.uleb128 0xb
 4810 0193 00       		.byte	0
 4811 0194 00       		.byte	0
 4812 0195 1B       		.uleb128 0x1b
 4813 0196 2E       		.uleb128 0x2e
 4814 0197 00       		.byte	0
 4815 0198 3F       		.uleb128 0x3f
 4816 0199 19       		.uleb128 0x19
 4817 019a 3C       		.uleb128 0x3c
 4818 019b 19       		.uleb128 0x19
 4819 019c 6E       		.uleb128 0x6e
 4820 019d 0E       		.uleb128 0xe
 4821 019e 03       		.uleb128 0x3
 4822 019f 0E       		.uleb128 0xe
 4823 01a0 3A       		.uleb128 0x3a
 4824 01a1 0B       		.uleb128 0xb
 4825 01a2 3B       		.uleb128 0x3b
 4826 01a3 05       		.uleb128 0x5
 4827 01a4 00       		.byte	0
 4828 01a5 00       		.byte	0
 4829 01a6 1C       		.uleb128 0x1c
 4830 01a7 2E       		.uleb128 0x2e
 4831 01a8 00       		.byte	0
 4832 01a9 3F       		.uleb128 0x3f
 4833 01aa 19       		.uleb128 0x19
 4834 01ab 3C       		.uleb128 0x3c
 4835 01ac 19       		.uleb128 0x19
 4836 01ad 6E       		.uleb128 0x6e
 4837 01ae 08       		.uleb128 0x8
 4838 01af 03       		.uleb128 0x3
 4839 01b0 08       		.uleb128 0x8
 4840 01b1 3A       		.uleb128 0x3a
 4841 01b2 0B       		.uleb128 0xb
 4842 01b3 3B       		.uleb128 0x3b
 4843 01b4 0B       		.uleb128 0xb
 4844 01b5 00       		.byte	0
 4845 01b6 00       		.byte	0
 4846 01b7 00       		.byte	0
 4847              		.section	.debug_loc,"",%progbits
 4848              	.Ldebug_loc0:
 4849              	.LLST0:
 4850 0000 A0070000 		.4byte	.LVL152
 4851 0004 A9070000 		.4byte	.LVL153-1
 4852 0008 0600     		.2byte	0x6
 4853 000a 50       		.byte	0x50
 4854 000b 93       		.byte	0x93
 4855 000c 04       		.uleb128 0x4
ARM GAS  C:\Users\s_bej\AppData\Local\Temp\cczIgxd7.s 			page 97


 4856 000d 51       		.byte	0x51
 4857 000e 93       		.byte	0x93
 4858 000f 04       		.uleb128 0x4
 4859 0010 AA070000 		.4byte	.LVL153
 4860 0014 AD070000 		.4byte	.LVL154-1
 4861 0018 0600     		.2byte	0x6
 4862 001a 50       		.byte	0x50
 4863 001b 93       		.byte	0x93
 4864 001c 04       		.uleb128 0x4
 4865 001d 51       		.byte	0x51
 4866 001e 93       		.byte	0x93
 4867 001f 04       		.uleb128 0x4
 4868 0020 00000000 		.4byte	0
 4869 0024 00000000 		.4byte	0
 4870              	.LLST1:
 4871 0028 220E0000 		.4byte	.LVL308
 4872 002c 250E0000 		.4byte	.LVL309-1
 4873 0030 0100     		.2byte	0x1
 4874 0032 50       		.byte	0x50
 4875 0033 00000000 		.4byte	0
 4876 0037 00000000 		.4byte	0
 4877              	.LLST2:
 4878 003b DC000000 		.4byte	.LVL323
 4879 003f E3000000 		.4byte	.LVL324-1
 4880 0043 0600     		.2byte	0x6
 4881 0045 50       		.byte	0x50
 4882 0046 93       		.byte	0x93
 4883 0047 04       		.uleb128 0x4
 4884 0048 51       		.byte	0x51
 4885 0049 93       		.byte	0x93
 4886 004a 04       		.uleb128 0x4
 4887 004b 00000000 		.4byte	0
 4888 004f 00000000 		.4byte	0
 4889              	.LLST3:
 4890 0053 7C010000 		.4byte	.LVL330
 4891 0057 85010000 		.4byte	.LVL331-1
 4892 005b 0600     		.2byte	0x6
 4893 005d 50       		.byte	0x50
 4894 005e 93       		.byte	0x93
 4895 005f 04       		.uleb128 0x4
 4896 0060 51       		.byte	0x51
 4897 0061 93       		.byte	0x93
 4898 0062 04       		.uleb128 0x4
 4899 0063 00000000 		.4byte	0
 4900 0067 00000000 		.4byte	0
 4901              	.LLST4:
 4902 006b 3A020000 		.4byte	.LVL341
 4903 006f 40020000 		.4byte	.LVL342
 4904 0073 0600     		.2byte	0x6
 4905 0075 50       		.byte	0x50
 4906 0076 93       		.byte	0x93
 4907 0077 04       		.uleb128 0x4
 4908 0078 51       		.byte	0x51
 4909 0079 93       		.byte	0x93
 4910 007a 04       		.uleb128 0x4
 4911 007b 40020000 		.4byte	.LVL342
 4912 007f D0030000 		.4byte	.LVL370
ARM GAS  C:\Users\s_bej\AppData\Local\Temp\cczIgxd7.s 			page 98


 4913 0083 0200     		.2byte	0x2
 4914 0085 7D       		.byte	0x7d
 4915 0086 00       		.sleb128 0
 4916 0087 00000000 		.4byte	0
 4917 008b 00000000 		.4byte	0
 4918              	.LLST5:
 4919 008f 5E020000 		.4byte	.LVL346
 4920 0093 BC020000 		.4byte	.LVL347
 4921 0097 0600     		.2byte	0x6
 4922 0099 50       		.byte	0x50
 4923 009a 93       		.byte	0x93
 4924 009b 04       		.uleb128 0x4
 4925 009c 51       		.byte	0x51
 4926 009d 93       		.byte	0x93
 4927 009e 04       		.uleb128 0x4
 4928 009f BC020000 		.4byte	.LVL347
 4929 00a3 D0030000 		.4byte	.LVL370
 4930 00a7 0200     		.2byte	0x2
 4931 00a9 91       		.byte	0x91
 4932 00aa 50       		.sleb128 -48
 4933 00ab 00000000 		.4byte	0
 4934 00af 00000000 		.4byte	0
 4935              	.LLST6:
 4936 00b3 E0020000 		.4byte	.LVL350
 4937 00b7 28030000 		.4byte	.LVL357
 4938 00bb 0600     		.2byte	0x6
 4939 00bd 58       		.byte	0x58
 4940 00be 93       		.byte	0x93
 4941 00bf 04       		.uleb128 0x4
 4942 00c0 59       		.byte	0x59
 4943 00c1 93       		.byte	0x93
 4944 00c2 04       		.uleb128 0x4
 4945 00c3 00000000 		.4byte	0
 4946 00c7 00000000 		.4byte	0
 4947              	.LLST7:
 4948 00cb F8020000 		.4byte	.LVL353
 4949 00cf 46030000 		.4byte	.LVL360
 4950 00d3 0600     		.2byte	0x6
 4951 00d5 56       		.byte	0x56
 4952 00d6 93       		.byte	0x93
 4953 00d7 04       		.uleb128 0x4
 4954 00d8 57       		.byte	0x57
 4955 00d9 93       		.byte	0x93
 4956 00da 04       		.uleb128 0x4
 4957 00db 00000000 		.4byte	0
 4958 00df 00000000 		.4byte	0
 4959              	.LLST8:
 4960 00e3 48030000 		.4byte	.LVL361
 4961 00e7 66030000 		.4byte	.LVL364
 4962 00eb 0600     		.2byte	0x6
 4963 00ed 56       		.byte	0x56
 4964 00ee 93       		.byte	0x93
 4965 00ef 04       		.uleb128 0x4
 4966 00f0 57       		.byte	0x57
 4967 00f1 93       		.byte	0x93
 4968 00f2 04       		.uleb128 0x4
 4969 00f3 66030000 		.4byte	.LVL364
ARM GAS  C:\Users\s_bej\AppData\Local\Temp\cczIgxd7.s 			page 99


 4970 00f7 74030000 		.4byte	.LVL365
 4971 00fb 0600     		.2byte	0x6
 4972 00fd 50       		.byte	0x50
 4973 00fe 93       		.byte	0x93
 4974 00ff 04       		.uleb128 0x4
 4975 0100 51       		.byte	0x51
 4976 0101 93       		.byte	0x93
 4977 0102 04       		.uleb128 0x4
 4978 0103 00000000 		.4byte	0
 4979 0107 00000000 		.4byte	0
 4980              		.section	.debug_aranges,"",%progbits
 4981 0000 3C000000 		.4byte	0x3c
 4982 0004 0200     		.2byte	0x2
 4983 0006 00000000 		.4byte	.Ldebug_info0
 4984 000a 04       		.byte	0x4
 4985 000b 00       		.byte	0
 4986 000c 0000     		.2byte	0
 4987 000e 0000     		.2byte	0
 4988 0010 00000000 		.4byte	.LFB63
 4989 0014 360E0000 		.4byte	.LFE63-.LFB63
 4990 0018 00000000 		.4byte	.LFB66
 4991 001c 44000000 		.4byte	.LFE66-.LFB66
 4992 0020 00000000 		.4byte	.LFB64
 4993 0024 88040000 		.4byte	.LFE64-.LFB64
 4994 0028 00000000 		.4byte	.LFB65
 4995 002c 64020000 		.4byte	.LFE65-.LFB65
 4996 0030 00000000 		.4byte	.LFB67
 4997 0034 4C010000 		.4byte	.LFE67-.LFB67
 4998 0038 00000000 		.4byte	0
 4999 003c 00000000 		.4byte	0
 5000              		.section	.debug_ranges,"",%progbits
 5001              	.Ldebug_ranges0:
 5002 0000 00000000 		.4byte	.LFB63
 5003 0004 360E0000 		.4byte	.LFE63
 5004 0008 00000000 		.4byte	.LFB66
 5005 000c 44000000 		.4byte	.LFE66
 5006 0010 00000000 		.4byte	.LFB64
 5007 0014 88040000 		.4byte	.LFE64
 5008 0018 00000000 		.4byte	.LFB65
 5009 001c 64020000 		.4byte	.LFE65
 5010 0020 00000000 		.4byte	.LFB67
 5011 0024 4C010000 		.4byte	.LFE67
 5012 0028 00000000 		.4byte	0
 5013 002c 00000000 		.4byte	0
 5014              		.section	.debug_line,"",%progbits
 5015              	.Ldebug_line0:
 5016 0000 EA030000 		.section	.debug_str,"MS",%progbits,1
 5016      02005902 
 5016      00000201 
 5016      FB0E0D00 
 5016      01010101 
 5017              	.LASF51:
 5018 0000 696E745F 		.ascii	"int_EndOfConv_StartEx\000"
 5018      456E644F 
 5018      66436F6E 
 5018      765F5374 
 5018      61727445 
ARM GAS  C:\Users\s_bej\AppData\Local\Temp\cczIgxd7.s 			page 100


 5019              	.LASF30:
 5020 0016 635F6672 		.ascii	"c_frec\000"
 5020      656300
 5021              	.LASF62:
 5022 001d 433A5C43 		.ascii	"C:\\Cosas Otro PC\\Universidad\\Noveno Semestre\\Si"
 5022      6F736173 
 5022      204F7472 
 5022      6F205043 
 5022      5C556E69 
 5023 004c 7374656D 		.ascii	"stemas Embebidos\\Proy3_1\\Proy3_1.cydsn\000"
 5023      61732045 
 5023      6D626562 
 5023      69646F73 
 5023      5C50726F 
 5024              	.LASF42:
 5025 0073 4C43445F 		.ascii	"LCD_WriteControl\000"
 5025      57726974 
 5025      65436F6E 
 5025      74726F6C 
 5025      00
 5026              	.LASF20:
 5027 0084 74656D70 		.ascii	"temp\000"
 5027      00
 5028              	.LASF2:
 5029 0089 73686F72 		.ascii	"short int\000"
 5029      7420696E 
 5029      7400
 5030              	.LASF17:
 5031 0093 73697A65 		.ascii	"sizetype\000"
 5031      74797065 
 5031      00
 5032              	.LASF54:
 5033 009c 436F6C75 		.ascii	"Columnas_Read\000"
 5033      6D6E6173 
 5033      5F526561 
 5033      6400
 5034              	.LASF26:
 5035 00aa 66726563 		.ascii	"frec_final\000"
 5035      5F66696E 
 5035      616C00
 5036              	.LASF64:
 5037 00b5 6D61696E 		.ascii	"main\000"
 5037      00
 5038              	.LASF33:
 5039 00ba 7465636C 		.ascii	"tecla\000"
 5039      6100
 5040              	.LASF32:
 5041 00c0 66696C61 		.ascii	"fila\000"
 5041      00
 5042              	.LASF52:
 5043 00c5 696E745F 		.ascii	"int_CambioUno_Stop\000"
 5043      43616D62 
 5043      696F556E 
 5043      6F5F5374 
 5043      6F7000
 5044              	.LASF12:
 5045 00d8 75696E74 		.ascii	"uint16\000"
ARM GAS  C:\Users\s_bej\AppData\Local\Temp\cczIgxd7.s 			page 101


 5045      313600
 5046              	.LASF49:
 5047 00df 4D756573 		.ascii	"Muestreo_Start\000"
 5047      7472656F 
 5047      5F537461 
 5047      727400
 5048              	.LASF11:
 5049 00ee 75696E74 		.ascii	"uint8\000"
 5049      3800
 5050              	.LASF37:
 5051 00f4 66726563 		.ascii	"frec\000"
 5051      00
 5052              	.LASF34:
 5053 00f9 636F6C75 		.ascii	"columna\000"
 5053      6D6E6100 
 5054              	.LASF53:
 5055 0101 696E745F 		.ascii	"int_TeclaOprimida_Stop\000"
 5055      5465636C 
 5055      614F7072 
 5055      696D6964 
 5055      615F5374 
 5056              	.LASF13:
 5057 0118 666C6F61 		.ascii	"float\000"
 5057      7400
 5058              	.LASF59:
 5059 011e 696E745F 		.ascii	"int_CambioUno_StartEx\000"
 5059      43616D62 
 5059      696F556E 
 5059      6F5F5374 
 5059      61727445 
 5060              	.LASF6:
 5061 0134 6C6F6E67 		.ascii	"long long int\000"
 5061      206C6F6E 
 5061      6720696E 
 5061      7400
 5062              	.LASF57:
 5063 0142 5265636F 		.ascii	"Recorre_Uno_Start\000"
 5063      7272655F 
 5063      556E6F5F 
 5063      53746172 
 5063      7400
 5064              	.LASF47:
 5065 0154 4144435F 		.ascii	"ADC_Start\000"
 5065      53746172 
 5065      7400
 5066              	.LASF4:
 5067 015e 6C6F6E67 		.ascii	"long int\000"
 5067      20696E74 
 5067      00
 5068              	.LASF36:
 5069 0167 66696C74 		.ascii	"filtro\000"
 5069      726F00
 5070              	.LASF55:
 5071 016e 436F6C75 		.ascii	"Columnas_ClearInterrupt\000"
 5071      6D6E6173 
 5071      5F436C65 
 5071      6172496E 
ARM GAS  C:\Users\s_bej\AppData\Local\Temp\cczIgxd7.s 			page 102


 5071      74657272 
 5072              	.LASF45:
 5073 0186 4C43445F 		.ascii	"LCD_PutChar\000"
 5073      50757443 
 5073      68617200 
 5074              	.LASF56:
 5075 0192 4C43445F 		.ascii	"LCD_Start\000"
 5075      53746172 
 5075      7400
 5076              	.LASF16:
 5077 019c 6C6F6E67 		.ascii	"long double\000"
 5077      20646F75 
 5077      626C6500 
 5078              	.LASF1:
 5079 01a8 756E7369 		.ascii	"unsigned char\000"
 5079      676E6564 
 5079      20636861 
 5079      7200
 5080              	.LASF27:
 5081 01b6 636F6E74 		.ascii	"cont_char\000"
 5081      5F636861 
 5081      7200
 5082              	.LASF24:
 5083 01c0 6964656E 		.ascii	"identificarTecla\000"
 5083      74696669 
 5083      63617254 
 5083      65636C61 
 5083      00
 5084              	.LASF48:
 5085 01d1 4441435F 		.ascii	"DAC_Start\000"
 5085      53746172 
 5085      7400
 5086              	.LASF0:
 5087 01db 7369676E 		.ascii	"signed char\000"
 5087      65642063 
 5087      68617200 
 5088              	.LASF7:
 5089 01e7 6C6F6E67 		.ascii	"long long unsigned int\000"
 5089      206C6F6E 
 5089      6720756E 
 5089      7369676E 
 5089      65642069 
 5090              	.LASF8:
 5091 01fe 756E7369 		.ascii	"unsigned int\000"
 5091      676E6564 
 5091      20696E74 
 5091      00
 5092              	.LASF44:
 5093 020b 4C43445F 		.ascii	"LCD_PrintString\000"
 5093      5072696E 
 5093      74537472 
 5093      696E6700 
 5094              	.LASF63:
 5095 021b 43616C63 		.ascii	"Calc_coef\000"
 5095      5F636F65 
 5095      6600
 5096              	.LASF35:
ARM GAS  C:\Users\s_bej\AppData\Local\Temp\cczIgxd7.s 			page 103


 5097 0225 7061736F 		.ascii	"paso\000"
 5097      00
 5098              	.LASF3:
 5099 022a 73686F72 		.ascii	"short unsigned int\000"
 5099      7420756E 
 5099      7369676E 
 5099      65642069 
 5099      6E7400
 5100              	.LASF38:
 5101 023d 4441435F 		.ascii	"DAC_SetValue\000"
 5101      53657456 
 5101      616C7565 
 5101      00
 5102              	.LASF15:
 5103 024a 63686172 		.ascii	"char\000"
 5103      00
 5104              	.LASF31:
 5105 024f 756D5F66 		.ascii	"um_frec\000"
 5105      72656300 
 5106              	.LASF10:
 5107 0257 696E7433 		.ascii	"int32_t\000"
 5107      325F7400 
 5108              	.LASF58:
 5109 025f 696E745F 		.ascii	"int_TeclaOprimida_StartEx\000"
 5109      5465636C 
 5109      614F7072 
 5109      696D6964 
 5109      615F5374 
 5110              	.LASF18:
 5111 0279 6C6C6567 		.ascii	"llegaMuestra\000"
 5111      614D7565 
 5111      73747261 
 5111      00
 5112              	.LASF61:
 5113 0286 6D61696E 		.ascii	"main.c\000"
 5113      2E6300
 5114              	.LASF5:
 5115 028d 6C6F6E67 		.ascii	"long unsigned int\000"
 5115      20756E73 
 5115      69676E65 
 5115      6420696E 
 5115      7400
 5116              	.LASF14:
 5117 029f 646F7562 		.ascii	"double\000"
 5117      6C6500
 5118              	.LASF41:
 5119 02a6 46696C61 		.ascii	"Filas_Write\000"
 5119      735F5772 
 5119      69746500 
 5120              	.LASF9:
 5121 02b2 5F5F696E 		.ascii	"__int32_t\000"
 5121      7433325F 
 5121      7400
 5122              	.LASF29:
 5123 02bc 645F6672 		.ascii	"d_frec\000"
 5123      656300
 5124              	.LASF43:
ARM GAS  C:\Users\s_bej\AppData\Local\Temp\cczIgxd7.s 			page 104


 5125 02c3 4C43445F 		.ascii	"LCD_Position\000"
 5125      506F7369 
 5125      74696F6E 
 5125      00
 5126              	.LASF22:
 5127 02d0 74656D70 		.ascii	"temp1\000"
 5127      3100
 5128              	.LASF21:
 5129 02d6 74656D70 		.ascii	"temp2\000"
 5129      3200
 5130              	.LASF23:
 5131 02dc 74656D70 		.ascii	"temp3\000"
 5131      3300
 5132              	.LASF50:
 5133 02e2 5265636F 		.ascii	"Recorre_Uno_Stop\000"
 5133      7272655F 
 5133      556E6F5F 
 5133      53746F70 
 5133      00
 5134              	.LASF19:
 5135 02f3 63616D62 		.ascii	"cambiarUno\000"
 5135      69617255 
 5135      6E6F00
 5136              	.LASF25:
 5137 02fe 49544D5F 		.ascii	"ITM_RxBuffer\000"
 5137      52784275 
 5137      66666572 
 5137      00
 5138              	.LASF60:
 5139 030b 474E5520 		.ascii	"GNU C11 5.4.1 20160609 (release) [ARM/embedded-5-br"
 5139      43313120 
 5139      352E342E 
 5139      31203230 
 5139      31363036 
 5140 033e 616E6368 		.ascii	"anch revision 237715] -mcpu=cortex-m3 -mthumb -g -O"
 5140      20726576 
 5140      6973696F 
 5140      6E203233 
 5140      37373135 
 5141 0371 67202D66 		.ascii	"g -ffunction-sections -ffat-lto-objects\000"
 5141      66756E63 
 5141      74696F6E 
 5141      2D736563 
 5141      74696F6E 
 5142              	.LASF28:
 5143 0399 755F6672 		.ascii	"u_frec\000"
 5143      656300
 5144              	.LASF46:
 5145 03a0 43794465 		.ascii	"CyDelay\000"
 5145      6C617900 
 5146              	.LASF40:
 5147 03a8 4144435F 		.ascii	"ADC_GetResult16\000"
 5147      47657452 
 5147      6573756C 
 5147      74313600 
 5148              	.LASF39:
 5149 03b8 7472756E 		.ascii	"trunc\000"
ARM GAS  C:\Users\s_bej\AppData\Local\Temp\cczIgxd7.s 			page 105


 5149      6300
 5150              		.ident	"GCC: (GNU Tools for ARM Embedded Processors) 5.4.1 20160609 (release) [ARM/embedded-5-bran
