ARM GAS  C:\Users\nikod\AppData\Local\Temp\ccFbz9mj.s 			page 1


   1              		.syntax unified
   2              		.cpu cortex-m3
   3              		.fpu softvfp
   4              		.eabi_attribute 20, 1
   5              		.eabi_attribute 21, 1
   6              		.eabi_attribute 23, 3
   7              		.eabi_attribute 24, 1
   8              		.eabi_attribute 25, 1
   9              		.eabi_attribute 26, 1
  10              		.eabi_attribute 30, 1
  11              		.eabi_attribute 34, 1
  12              		.eabi_attribute 18, 4
  13              		.thumb
  14              		.syntax unified
  15              		.file	"main.c"
  16              		.text
  17              	.Ltext0:
  18              		.cfi_sections	.debug_frame
  19              		.section	.text.INT_SW,"ax",%progbits
  20              		.align	2
  21              		.global	INT_SW
  22              		.thumb
  23              		.thumb_func
  24              		.type	INT_SW, %function
  25              	INT_SW:
  26              	.LFB63:
  27              		.file 1 "main.c"
   1:main.c        **** /* ========================================
   2:main.c        ****  *
   3:main.c        ****  * Copyright YOUR COMPANY, THE YEAR
   4:main.c        ****  * All Rights Reserved
   5:main.c        ****  * UNPUBLISHED, LICENSED SOFTWARE.
   6:main.c        ****  *
   7:main.c        ****  * CONFIDENTIAL AND PROPRIETARY INFORMATION
   8:main.c        ****  * WHICH IS THE PROPERTY OF your company.
   9:main.c        ****  *
  10:main.c        ****  * ========================================
  11:main.c        **** */
  12:main.c        **** #include "project.h"
  13:main.c        **** #include <math.h>
  14:main.c        **** 
  15:main.c        **** //Creación de variables h para los coeficientes del filtro, x para las muestras, y para la salida,
  16:main.c        **** //tecla para guardar lo recibido del teclado
  17:main.c        **** 
  18:main.c        **** const double g[]={5.7797,-15.6072,25.4760,-27.4067,19.8718,-9.4955,2.7433,-0.3708};//8
  19:main.c        **** const float h[]={0,0.0004,0.0004,-0.0007,-0.0028,-0.0051,-0.0055,-0.0026,0.0031,0.0085,0.0099,0.006
  20:main.c        **** 
  21:main.c        **** volatile uint8 cont=0;
  22:main.c        **** uint16 x[51];
  23:main.c        **** 
  24:main.c        **** 
  25:main.c        **** CY_ISR(INT_SW){
  28              		.loc 1 25 0
  29              		.cfi_startproc
  30              		@ args = 0, pretend = 0, frame = 0
  31              		@ frame_needed = 0, uses_anonymous_args = 0
  32 0000 08B5     		push	{r3, lr}
ARM GAS  C:\Users\nikod\AppData\Local\Temp\ccFbz9mj.s 			page 2


  33              		.cfi_def_cfa_offset 8
  34              		.cfi_offset 3, -8
  35              		.cfi_offset 14, -4
  26:main.c        ****     if(cont==1){
  36              		.loc 1 26 0
  37 0002 094B     		ldr	r3, .L5
  38 0004 1B78     		ldrb	r3, [r3]	@ zero_extendqisi2
  39 0006 DBB2     		uxtb	r3, r3
  40 0008 012B     		cmp	r3, #1
  41 000a 03D1     		bne	.L2
  27:main.c        ****         cont=0;
  42              		.loc 1 27 0
  43 000c 0022     		movs	r2, #0
  44 000e 064B     		ldr	r3, .L5
  45 0010 1A70     		strb	r2, [r3]
  46 0012 02E0     		b	.L3
  47              	.L2:
  28:main.c        ****     }else{
  29:main.c        ****         cont=1;
  48              		.loc 1 29 0
  49 0014 0122     		movs	r2, #1
  50 0016 044B     		ldr	r3, .L5
  51 0018 1A70     		strb	r2, [r3]
  52              	.L3:
  30:main.c        ****     }
  31:main.c        ****     LEDS_Write(cont);
  53              		.loc 1 31 0
  54 001a 034B     		ldr	r3, .L5
  55 001c 1878     		ldrb	r0, [r3]	@ zero_extendqisi2
  56 001e FFF7FEFF 		bl	LEDS_Write
  57              	.LVL0:
  32:main.c        ****     SW_ClearInterrupt();  
  58              		.loc 1 32 0
  59 0022 FFF7FEFF 		bl	SW_ClearInterrupt
  60              	.LVL1:
  61 0026 08BD     		pop	{r3, pc}
  62              	.L6:
  63              		.align	2
  64              	.L5:
  65 0028 00000000 		.word	.LANCHOR0
  66              		.cfi_endproc
  67              	.LFE63:
  68              		.size	INT_SW, .-INT_SW
  69              		.global	__aeabi_i2f
  70              		.global	__aeabi_fmul
  71              		.global	__aeabi_fadd
  72              		.global	__aeabi_f2uiz
  73              		.section	.text.llegaMuestra,"ax",%progbits
  74              		.align	2
  75              		.global	llegaMuestra
  76              		.thumb
  77              		.thumb_func
  78              		.type	llegaMuestra, %function
  79              	llegaMuestra:
  80              	.LFB64:
  33:main.c        **** }
  34:main.c        **** 
ARM GAS  C:\Users\nikod\AppData\Local\Temp\ccFbz9mj.s 			page 3


  35:main.c        **** 
  36:main.c        **** CY_ISR(llegaMuestra)
  37:main.c        **** {   unsigned char y;
  81              		.loc 1 37 0
  82              		.cfi_startproc
  83              		@ args = 0, pretend = 0, frame = 0
  84              		@ frame_needed = 0, uses_anonymous_args = 0
  85 0000 38B5     		push	{r3, r4, r5, lr}
  86              		.cfi_def_cfa_offset 16
  87              		.cfi_offset 3, -16
  88              		.cfi_offset 4, -12
  89              		.cfi_offset 5, -8
  90              		.cfi_offset 14, -4
  38:main.c        ****     if(cont==0){
  91              		.loc 1 38 0
  92 0002 074B     		ldr	r3, .L11
  93 0004 1B78     		ldrb	r3, [r3]	@ zero_extendqisi2
  94 0006 13F0FF0F 		tst	r3, #255
  95 000a 0BD1     		bne	.L8
  39:main.c        ****         ADC_StartConvert();
  96              		.loc 1 39 0
  97 000c FFF7FEFF 		bl	ADC_StartConvert
  98              	.LVL2:
  40:main.c        ****         ADC_IsEndConversion(ADC_WAIT_FOR_RESULT);
  99              		.loc 1 40 0
 100 0010 0020     		movs	r0, #0
 101 0012 FFF7FEFF 		bl	ADC_IsEndConversion
 102              	.LVL3:
  41:main.c        ****         y = ADC_GetResult16();
 103              		.loc 1 41 0
 104 0016 FFF7FEFF 		bl	ADC_GetResult16
 105              	.LVL4:
 106 001a C0B2     		uxtb	r0, r0
 107              	.LVL5:
 108 001c 35E3     		b	.L9
 109              	.L12:
 110 001e 00BF     		.align	2
 111              	.L11:
 112 0020 00000000 		.word	.LANCHOR0
 113              	.LVL6:
 114              	.L8:
  42:main.c        ****     }else{
  43:main.c        ****     x[50] = x[49];
 115              		.loc 1 43 0
 116 0024 AF4C     		ldr	r4, .L13
 117 0026 B4F86230 		ldrh	r3, [r4, #98]
 118 002a A4F86430 		strh	r3, [r4, #100]	@ movhi
  44:main.c        ****     x[49] = x[48];
 119              		.loc 1 44 0
 120 002e B4F86030 		ldrh	r3, [r4, #96]
 121 0032 A4F86230 		strh	r3, [r4, #98]	@ movhi
  45:main.c        ****     x[48] = x[47];
 122              		.loc 1 45 0
 123 0036 B4F85E30 		ldrh	r3, [r4, #94]
 124 003a A4F86030 		strh	r3, [r4, #96]	@ movhi
  46:main.c        ****     x[47] = x[46];
 125              		.loc 1 46 0
ARM GAS  C:\Users\nikod\AppData\Local\Temp\ccFbz9mj.s 			page 4


 126 003e B4F85C30 		ldrh	r3, [r4, #92]
 127 0042 A4F85E30 		strh	r3, [r4, #94]	@ movhi
  47:main.c        ****     x[46] = x[45];
 128              		.loc 1 47 0
 129 0046 B4F85A30 		ldrh	r3, [r4, #90]
 130 004a A4F85C30 		strh	r3, [r4, #92]	@ movhi
  48:main.c        ****     x[45] = x[44];
 131              		.loc 1 48 0
 132 004e B4F85830 		ldrh	r3, [r4, #88]
 133 0052 A4F85A30 		strh	r3, [r4, #90]	@ movhi
  49:main.c        ****     x[44] = x[43];
 134              		.loc 1 49 0
 135 0056 B4F85630 		ldrh	r3, [r4, #86]
 136 005a A4F85830 		strh	r3, [r4, #88]	@ movhi
  50:main.c        ****     x[43] = x[42];
 137              		.loc 1 50 0
 138 005e B4F85430 		ldrh	r3, [r4, #84]
 139 0062 A4F85630 		strh	r3, [r4, #86]	@ movhi
  51:main.c        ****     x[42] = x[41];
 140              		.loc 1 51 0
 141 0066 B4F85230 		ldrh	r3, [r4, #82]
 142 006a A4F85430 		strh	r3, [r4, #84]	@ movhi
  52:main.c        ****     x[41] = x[40];
 143              		.loc 1 52 0
 144 006e B4F85030 		ldrh	r3, [r4, #80]
 145 0072 A4F85230 		strh	r3, [r4, #82]	@ movhi
  53:main.c        ****     x[40] = x[39];
 146              		.loc 1 53 0
 147 0076 B4F84E30 		ldrh	r3, [r4, #78]
 148 007a A4F85030 		strh	r3, [r4, #80]	@ movhi
  54:main.c        ****     x[39] = x[38];
 149              		.loc 1 54 0
 150 007e B4F84C30 		ldrh	r3, [r4, #76]
 151 0082 A4F84E30 		strh	r3, [r4, #78]	@ movhi
  55:main.c        ****     x[38] = x[37];
 152              		.loc 1 55 0
 153 0086 B4F84A30 		ldrh	r3, [r4, #74]
 154 008a A4F84C30 		strh	r3, [r4, #76]	@ movhi
  56:main.c        ****     x[37] = x[36];
 155              		.loc 1 56 0
 156 008e B4F84830 		ldrh	r3, [r4, #72]
 157 0092 A4F84A30 		strh	r3, [r4, #74]	@ movhi
  57:main.c        ****     x[36] = x[35];
 158              		.loc 1 57 0
 159 0096 B4F84630 		ldrh	r3, [r4, #70]
 160 009a A4F84830 		strh	r3, [r4, #72]	@ movhi
  58:main.c        ****     x[35] = x[34];
 161              		.loc 1 58 0
 162 009e B4F84430 		ldrh	r3, [r4, #68]
 163 00a2 A4F84630 		strh	r3, [r4, #70]	@ movhi
  59:main.c        ****     x[34] = x[33];
 164              		.loc 1 59 0
 165 00a6 B4F84230 		ldrh	r3, [r4, #66]
 166 00aa A4F84430 		strh	r3, [r4, #68]	@ movhi
  60:main.c        ****     x[33] = x[32];
 167              		.loc 1 60 0
 168 00ae B4F84030 		ldrh	r3, [r4, #64]
ARM GAS  C:\Users\nikod\AppData\Local\Temp\ccFbz9mj.s 			page 5


 169 00b2 A4F84230 		strh	r3, [r4, #66]	@ movhi
  61:main.c        ****     x[32] = x[31];
 170              		.loc 1 61 0
 171 00b6 E38F     		ldrh	r3, [r4, #62]
 172 00b8 A4F84030 		strh	r3, [r4, #64]	@ movhi
  62:main.c        ****     x[31] = x[30];
 173              		.loc 1 62 0
 174 00bc A38F     		ldrh	r3, [r4, #60]
 175 00be E387     		strh	r3, [r4, #62]	@ movhi
  63:main.c        ****     x[30] = x[29];
 176              		.loc 1 63 0
 177 00c0 638F     		ldrh	r3, [r4, #58]
 178 00c2 A387     		strh	r3, [r4, #60]	@ movhi
  64:main.c        ****     x[29] = x[28];
 179              		.loc 1 64 0
 180 00c4 238F     		ldrh	r3, [r4, #56]
 181 00c6 6387     		strh	r3, [r4, #58]	@ movhi
  65:main.c        ****     x[28] = x[27];
 182              		.loc 1 65 0
 183 00c8 E38E     		ldrh	r3, [r4, #54]
 184 00ca 2387     		strh	r3, [r4, #56]	@ movhi
  66:main.c        ****     x[27] = x[26];
 185              		.loc 1 66 0
 186 00cc A38E     		ldrh	r3, [r4, #52]
 187 00ce E386     		strh	r3, [r4, #54]	@ movhi
  67:main.c        ****     x[26] = x[25];
 188              		.loc 1 67 0
 189 00d0 638E     		ldrh	r3, [r4, #50]
 190 00d2 A386     		strh	r3, [r4, #52]	@ movhi
  68:main.c        ****     x[25] = x[24];
 191              		.loc 1 68 0
 192 00d4 238E     		ldrh	r3, [r4, #48]
 193 00d6 6386     		strh	r3, [r4, #50]	@ movhi
  69:main.c        ****     x[24] = x[23];
 194              		.loc 1 69 0
 195 00d8 E38D     		ldrh	r3, [r4, #46]
 196 00da 2386     		strh	r3, [r4, #48]	@ movhi
  70:main.c        ****     x[23] = x[22];
 197              		.loc 1 70 0
 198 00dc A38D     		ldrh	r3, [r4, #44]
 199 00de E385     		strh	r3, [r4, #46]	@ movhi
  71:main.c        ****     x[22] = x[21];
 200              		.loc 1 71 0
 201 00e0 638D     		ldrh	r3, [r4, #42]
 202 00e2 A385     		strh	r3, [r4, #44]	@ movhi
  72:main.c        ****     x[21] = x[20];
 203              		.loc 1 72 0
 204 00e4 238D     		ldrh	r3, [r4, #40]
 205 00e6 6385     		strh	r3, [r4, #42]	@ movhi
  73:main.c        ****     x[20] = x[19];
 206              		.loc 1 73 0
 207 00e8 E38C     		ldrh	r3, [r4, #38]
 208 00ea 2385     		strh	r3, [r4, #40]	@ movhi
  74:main.c        ****     x[19] = x[18];
 209              		.loc 1 74 0
 210 00ec A38C     		ldrh	r3, [r4, #36]
 211 00ee E384     		strh	r3, [r4, #38]	@ movhi
ARM GAS  C:\Users\nikod\AppData\Local\Temp\ccFbz9mj.s 			page 6


  75:main.c        ****     x[18] = x[17];
 212              		.loc 1 75 0
 213 00f0 638C     		ldrh	r3, [r4, #34]
 214 00f2 A384     		strh	r3, [r4, #36]	@ movhi
  76:main.c        ****     x[17] = x[16];
 215              		.loc 1 76 0
 216 00f4 238C     		ldrh	r3, [r4, #32]
 217 00f6 6384     		strh	r3, [r4, #34]	@ movhi
  77:main.c        ****     x[16] = x[15];
 218              		.loc 1 77 0
 219 00f8 E38B     		ldrh	r3, [r4, #30]
 220 00fa 2384     		strh	r3, [r4, #32]	@ movhi
  78:main.c        ****     x[15] = x[14];
 221              		.loc 1 78 0
 222 00fc A38B     		ldrh	r3, [r4, #28]
 223 00fe E383     		strh	r3, [r4, #30]	@ movhi
  79:main.c        ****     x[14] = x[13];
 224              		.loc 1 79 0
 225 0100 638B     		ldrh	r3, [r4, #26]
 226 0102 A383     		strh	r3, [r4, #28]	@ movhi
  80:main.c        ****     x[13] = x[12];
 227              		.loc 1 80 0
 228 0104 238B     		ldrh	r3, [r4, #24]
 229 0106 6383     		strh	r3, [r4, #26]	@ movhi
  81:main.c        ****     x[12] = x[11];
 230              		.loc 1 81 0
 231 0108 E38A     		ldrh	r3, [r4, #22]
 232 010a 2383     		strh	r3, [r4, #24]	@ movhi
  82:main.c        ****     x[11] = x[10];
 233              		.loc 1 82 0
 234 010c A38A     		ldrh	r3, [r4, #20]
 235 010e E382     		strh	r3, [r4, #22]	@ movhi
  83:main.c        ****     x[10] = x[9];
 236              		.loc 1 83 0
 237 0110 638A     		ldrh	r3, [r4, #18]
 238 0112 A382     		strh	r3, [r4, #20]	@ movhi
  84:main.c        ****     x[9] = x[8];
 239              		.loc 1 84 0
 240 0114 238A     		ldrh	r3, [r4, #16]
 241 0116 6382     		strh	r3, [r4, #18]	@ movhi
  85:main.c        ****     x[8] = x[7];
 242              		.loc 1 85 0
 243 0118 E389     		ldrh	r3, [r4, #14]
 244 011a 2382     		strh	r3, [r4, #16]	@ movhi
  86:main.c        ****     x[7] = x[6];
 245              		.loc 1 86 0
 246 011c A389     		ldrh	r3, [r4, #12]
 247 011e E381     		strh	r3, [r4, #14]	@ movhi
  87:main.c        ****     x[6] = x[5];
 248              		.loc 1 87 0
 249 0120 6389     		ldrh	r3, [r4, #10]
 250 0122 A381     		strh	r3, [r4, #12]	@ movhi
  88:main.c        ****     x[5] = x[4];
 251              		.loc 1 88 0
 252 0124 2389     		ldrh	r3, [r4, #8]
 253 0126 6381     		strh	r3, [r4, #10]	@ movhi
  89:main.c        ****     x[4] = x[3];
ARM GAS  C:\Users\nikod\AppData\Local\Temp\ccFbz9mj.s 			page 7


 254              		.loc 1 89 0
 255 0128 E388     		ldrh	r3, [r4, #6]
 256 012a 2381     		strh	r3, [r4, #8]	@ movhi
  90:main.c        ****     x[3] = x[2];
 257              		.loc 1 90 0
 258 012c A388     		ldrh	r3, [r4, #4]
 259 012e E380     		strh	r3, [r4, #6]	@ movhi
  91:main.c        ****     x[2] = x[1];
 260              		.loc 1 91 0
 261 0130 6388     		ldrh	r3, [r4, #2]
 262 0132 A380     		strh	r3, [r4, #4]	@ movhi
  92:main.c        ****     x[1] = x[0];  
 263              		.loc 1 92 0
 264 0134 2388     		ldrh	r3, [r4]
 265 0136 6380     		strh	r3, [r4, #2]	@ movhi
  93:main.c        ****     ADC_StartConvert();
 266              		.loc 1 93 0
 267 0138 FFF7FEFF 		bl	ADC_StartConvert
 268              	.LVL7:
  94:main.c        ****     ADC_IsEndConversion(ADC_WAIT_FOR_RESULT);
 269              		.loc 1 94 0
 270 013c 0020     		movs	r0, #0
 271 013e FFF7FEFF 		bl	ADC_IsEndConversion
 272              	.LVL8:
  95:main.c        ****     x[0] = ADC_GetResult16();
 273              		.loc 1 95 0
 274 0142 FFF7FEFF 		bl	ADC_GetResult16
 275              	.LVL9:
 276 0146 80B2     		uxth	r0, r0
 277 0148 2080     		strh	r0, [r4]	@ movhi
  96:main.c        ****     y = (x[0]*h[0]+x[1]*h[1]+x[2]*h[2]+x[3]*h[3]+x[4]*h[4]+x[5]*h[5]+x[6]*h[6]+x[7]*h[7]+x[8]*h[8]+
 278              		.loc 1 96 0
 279 014a FFF7FEFF 		bl	__aeabi_i2f
 280              	.LVL10:
 281 014e 0021     		movs	r1, #0
 282 0150 FFF7FEFF 		bl	__aeabi_fmul
 283              	.LVL11:
 284 0154 0546     		mov	r5, r0
 285 0156 6088     		ldrh	r0, [r4, #2]
 286 0158 FFF7FEFF 		bl	__aeabi_i2f
 287              	.LVL12:
 288 015c 6249     		ldr	r1, .L13+4
 289 015e FFF7FEFF 		bl	__aeabi_fmul
 290              	.LVL13:
 291 0162 0146     		mov	r1, r0
 292 0164 2846     		mov	r0, r5
 293 0166 FFF7FEFF 		bl	__aeabi_fadd
 294              	.LVL14:
 295 016a 0546     		mov	r5, r0
 296 016c A088     		ldrh	r0, [r4, #4]
 297 016e FFF7FEFF 		bl	__aeabi_i2f
 298              	.LVL15:
 299 0172 5D49     		ldr	r1, .L13+4
 300 0174 FFF7FEFF 		bl	__aeabi_fmul
 301              	.LVL16:
 302 0178 0146     		mov	r1, r0
 303 017a 2846     		mov	r0, r5
ARM GAS  C:\Users\nikod\AppData\Local\Temp\ccFbz9mj.s 			page 8


 304 017c FFF7FEFF 		bl	__aeabi_fadd
 305              	.LVL17:
 306 0180 0546     		mov	r5, r0
 307 0182 E088     		ldrh	r0, [r4, #6]
 308 0184 FFF7FEFF 		bl	__aeabi_i2f
 309              	.LVL18:
 310 0188 5849     		ldr	r1, .L13+8
 311 018a FFF7FEFF 		bl	__aeabi_fmul
 312              	.LVL19:
 313 018e 0146     		mov	r1, r0
 314 0190 2846     		mov	r0, r5
 315 0192 FFF7FEFF 		bl	__aeabi_fadd
 316              	.LVL20:
 317 0196 0546     		mov	r5, r0
 318 0198 2089     		ldrh	r0, [r4, #8]
 319 019a FFF7FEFF 		bl	__aeabi_i2f
 320              	.LVL21:
 321 019e 5449     		ldr	r1, .L13+12
 322 01a0 FFF7FEFF 		bl	__aeabi_fmul
 323              	.LVL22:
 324 01a4 0146     		mov	r1, r0
 325 01a6 2846     		mov	r0, r5
 326 01a8 FFF7FEFF 		bl	__aeabi_fadd
 327              	.LVL23:
 328 01ac 0546     		mov	r5, r0
 329 01ae 6089     		ldrh	r0, [r4, #10]
 330 01b0 FFF7FEFF 		bl	__aeabi_i2f
 331              	.LVL24:
 332 01b4 4F49     		ldr	r1, .L13+16
 333 01b6 FFF7FEFF 		bl	__aeabi_fmul
 334              	.LVL25:
 335 01ba 0146     		mov	r1, r0
 336 01bc 2846     		mov	r0, r5
 337 01be FFF7FEFF 		bl	__aeabi_fadd
 338              	.LVL26:
 339 01c2 0546     		mov	r5, r0
 340 01c4 A089     		ldrh	r0, [r4, #12]
 341 01c6 FFF7FEFF 		bl	__aeabi_i2f
 342              	.LVL27:
 343 01ca 4B49     		ldr	r1, .L13+20
 344 01cc FFF7FEFF 		bl	__aeabi_fmul
 345              	.LVL28:
 346 01d0 0146     		mov	r1, r0
 347 01d2 2846     		mov	r0, r5
 348 01d4 FFF7FEFF 		bl	__aeabi_fadd
 349              	.LVL29:
 350 01d8 0546     		mov	r5, r0
 351 01da E089     		ldrh	r0, [r4, #14]
 352 01dc FFF7FEFF 		bl	__aeabi_i2f
 353              	.LVL30:
 354 01e0 4649     		ldr	r1, .L13+24
 355 01e2 FFF7FEFF 		bl	__aeabi_fmul
 356              	.LVL31:
 357 01e6 0146     		mov	r1, r0
 358 01e8 2846     		mov	r0, r5
 359 01ea FFF7FEFF 		bl	__aeabi_fadd
 360              	.LVL32:
ARM GAS  C:\Users\nikod\AppData\Local\Temp\ccFbz9mj.s 			page 9


 361 01ee 0546     		mov	r5, r0
 362 01f0 208A     		ldrh	r0, [r4, #16]
 363 01f2 FFF7FEFF 		bl	__aeabi_i2f
 364              	.LVL33:
 365 01f6 4249     		ldr	r1, .L13+28
 366 01f8 FFF7FEFF 		bl	__aeabi_fmul
 367              	.LVL34:
 368 01fc 0146     		mov	r1, r0
 369 01fe 2846     		mov	r0, r5
 370 0200 FFF7FEFF 		bl	__aeabi_fadd
 371              	.LVL35:
 372 0204 0546     		mov	r5, r0
 373 0206 608A     		ldrh	r0, [r4, #18]
 374 0208 FFF7FEFF 		bl	__aeabi_i2f
 375              	.LVL36:
 376 020c 3D49     		ldr	r1, .L13+32
 377 020e FFF7FEFF 		bl	__aeabi_fmul
 378              	.LVL37:
 379 0212 0146     		mov	r1, r0
 380 0214 2846     		mov	r0, r5
 381 0216 FFF7FEFF 		bl	__aeabi_fadd
 382              	.LVL38:
 383 021a 0546     		mov	r5, r0
 384 021c A08A     		ldrh	r0, [r4, #20]
 385 021e FFF7FEFF 		bl	__aeabi_i2f
 386              	.LVL39:
 387 0222 3949     		ldr	r1, .L13+36
 388 0224 FFF7FEFF 		bl	__aeabi_fmul
 389              	.LVL40:
 390 0228 0146     		mov	r1, r0
 391 022a 2846     		mov	r0, r5
 392 022c FFF7FEFF 		bl	__aeabi_fadd
 393              	.LVL41:
 394 0230 0546     		mov	r5, r0
 395 0232 E08A     		ldrh	r0, [r4, #22]
 396 0234 FFF7FEFF 		bl	__aeabi_i2f
 397              	.LVL42:
 398 0238 3449     		ldr	r1, .L13+40
 399 023a FFF7FEFF 		bl	__aeabi_fmul
 400              	.LVL43:
 401 023e 0146     		mov	r1, r0
 402 0240 2846     		mov	r0, r5
 403 0242 FFF7FEFF 		bl	__aeabi_fadd
 404              	.LVL44:
 405 0246 0546     		mov	r5, r0
 406 0248 208B     		ldrh	r0, [r4, #24]
 407 024a FFF7FEFF 		bl	__aeabi_i2f
 408              	.LVL45:
 409 024e 3049     		ldr	r1, .L13+44
 410 0250 FFF7FEFF 		bl	__aeabi_fmul
 411              	.LVL46:
 412 0254 0146     		mov	r1, r0
 413 0256 2846     		mov	r0, r5
 414 0258 FFF7FEFF 		bl	__aeabi_fadd
 415              	.LVL47:
 416 025c 0546     		mov	r5, r0
 417 025e 608B     		ldrh	r0, [r4, #26]
ARM GAS  C:\Users\nikod\AppData\Local\Temp\ccFbz9mj.s 			page 10


 418 0260 FFF7FEFF 		bl	__aeabi_i2f
 419              	.LVL48:
 420 0264 2B49     		ldr	r1, .L13+48
 421 0266 FFF7FEFF 		bl	__aeabi_fmul
 422              	.LVL49:
 423 026a 0146     		mov	r1, r0
 424 026c 2846     		mov	r0, r5
 425 026e FFF7FEFF 		bl	__aeabi_fadd
 426              	.LVL50:
 427 0272 0546     		mov	r5, r0
 428 0274 A08B     		ldrh	r0, [r4, #28]
 429 0276 FFF7FEFF 		bl	__aeabi_i2f
 430              	.LVL51:
 431 027a 2749     		ldr	r1, .L13+52
 432 027c FFF7FEFF 		bl	__aeabi_fmul
 433              	.LVL52:
 434 0280 0146     		mov	r1, r0
 435 0282 2846     		mov	r0, r5
 436 0284 FFF7FEFF 		bl	__aeabi_fadd
 437              	.LVL53:
 438 0288 0546     		mov	r5, r0
 439 028a E08B     		ldrh	r0, [r4, #30]
 440 028c FFF7FEFF 		bl	__aeabi_i2f
 441              	.LVL54:
 442 0290 2249     		ldr	r1, .L13+56
 443 0292 FFF7FEFF 		bl	__aeabi_fmul
 444              	.LVL55:
 445 0296 0146     		mov	r1, r0
 446 0298 2846     		mov	r0, r5
 447 029a FFF7FEFF 		bl	__aeabi_fadd
 448              	.LVL56:
 449 029e 0546     		mov	r5, r0
 450 02a0 208C     		ldrh	r0, [r4, #32]
 451 02a2 FFF7FEFF 		bl	__aeabi_i2f
 452              	.LVL57:
 453 02a6 1E49     		ldr	r1, .L13+60
 454 02a8 FFF7FEFF 		bl	__aeabi_fmul
 455              	.LVL58:
 456 02ac 0146     		mov	r1, r0
 457 02ae 2846     		mov	r0, r5
 458 02b0 FFF7FEFF 		bl	__aeabi_fadd
 459              	.LVL59:
 460 02b4 0546     		mov	r5, r0
 461 02b6 608C     		ldrh	r0, [r4, #34]
 462 02b8 FFF7FEFF 		bl	__aeabi_i2f
 463              	.LVL60:
 464 02bc 1949     		ldr	r1, .L13+64
 465 02be FFF7FEFF 		bl	__aeabi_fmul
 466              	.LVL61:
 467 02c2 0146     		mov	r1, r0
 468 02c4 2846     		mov	r0, r5
 469 02c6 FFF7FEFF 		bl	__aeabi_fadd
 470              	.LVL62:
 471 02ca 0546     		mov	r5, r0
 472 02cc A08C     		ldrh	r0, [r4, #36]
 473 02ce FFF7FEFF 		bl	__aeabi_i2f
 474              	.LVL63:
ARM GAS  C:\Users\nikod\AppData\Local\Temp\ccFbz9mj.s 			page 11


 475 02d2 1549     		ldr	r1, .L13+68
 476 02d4 FFF7FEFF 		bl	__aeabi_fmul
 477              	.LVL64:
 478 02d8 0146     		mov	r1, r0
 479 02da 2846     		mov	r0, r5
 480 02dc FFF7FEFF 		bl	__aeabi_fadd
 481              	.LVL65:
 482 02e0 0546     		mov	r5, r0
 483 02e2 23E0     		b	.L14
 484              	.L15:
 485              		.align	2
 486              	.L13:
 487 02e4 00000000 		.word	x
 488 02e8 17B7D139 		.word	970045207
 489 02ec 348037BA 		.word	-1170767820
 490 02f0 348037BB 		.word	-1153990604
 491 02f4 E71DA7BB 		.word	-1146675737
 492 02f8 5839B4BB 		.word	-1145816744
 493 02fc C3642ABB 		.word	-1154849597
 494 0300 5F294B3B 		.word	994781535
 495 0304 96430B3C 		.word	1007371158
 496 0308 9C33223C 		.word	1008874396
 497 030c 82E2C73B 		.word	1002955394
 498 0310 6F12833A 		.word	981668463
 499 0314 52499D3A 		.word	983386450
 500 0318 0E4F2F3C 		.word	1009733390
 501 031c A913D03C 		.word	1020269481
 502 0320 014D043D 		.word	1023692033
 503 0324 728A8E3C 		.word	1015974514
 504 0328 C898BBBC 		.word	-1128556344
 505              	.L14:
 506 032c E08C     		ldrh	r0, [r4, #38]
 507 032e FFF7FEFF 		bl	__aeabi_i2f
 508              	.LVL66:
 509 0332 B949     		ldr	r1, .L16
 510 0334 FFF7FEFF 		bl	__aeabi_fmul
 511              	.LVL67:
 512 0338 0146     		mov	r1, r0
 513 033a 2846     		mov	r0, r5
 514 033c FFF7FEFF 		bl	__aeabi_fadd
 515              	.LVL68:
 516 0340 0546     		mov	r5, r0
 517 0342 208D     		ldrh	r0, [r4, #40]
 518 0344 FFF7FEFF 		bl	__aeabi_i2f
 519              	.LVL69:
 520 0348 B449     		ldr	r1, .L16+4
 521 034a FFF7FEFF 		bl	__aeabi_fmul
 522              	.LVL70:
 523 034e 0146     		mov	r1, r0
 524 0350 2846     		mov	r0, r5
 525 0352 FFF7FEFF 		bl	__aeabi_fadd
 526              	.LVL71:
 527 0356 0546     		mov	r5, r0
 528 0358 608D     		ldrh	r0, [r4, #42]
 529 035a FFF7FEFF 		bl	__aeabi_i2f
 530              	.LVL72:
 531 035e B049     		ldr	r1, .L16+8
ARM GAS  C:\Users\nikod\AppData\Local\Temp\ccFbz9mj.s 			page 12


 532 0360 FFF7FEFF 		bl	__aeabi_fmul
 533              	.LVL73:
 534 0364 0146     		mov	r1, r0
 535 0366 2846     		mov	r0, r5
 536 0368 FFF7FEFF 		bl	__aeabi_fadd
 537              	.LVL74:
 538 036c 0546     		mov	r5, r0
 539 036e A08D     		ldrh	r0, [r4, #44]
 540 0370 FFF7FEFF 		bl	__aeabi_i2f
 541              	.LVL75:
 542 0374 AB49     		ldr	r1, .L16+12
 543 0376 FFF7FEFF 		bl	__aeabi_fmul
 544              	.LVL76:
 545 037a 0146     		mov	r1, r0
 546 037c 2846     		mov	r0, r5
 547 037e FFF7FEFF 		bl	__aeabi_fadd
 548              	.LVL77:
 549 0382 0546     		mov	r5, r0
 550 0384 E08D     		ldrh	r0, [r4, #46]
 551 0386 FFF7FEFF 		bl	__aeabi_i2f
 552              	.LVL78:
 553 038a A749     		ldr	r1, .L16+16
 554 038c FFF7FEFF 		bl	__aeabi_fmul
 555              	.LVL79:
 556 0390 0146     		mov	r1, r0
 557 0392 2846     		mov	r0, r5
 558 0394 FFF7FEFF 		bl	__aeabi_fadd
 559              	.LVL80:
 560 0398 0546     		mov	r5, r0
 561 039a 208E     		ldrh	r0, [r4, #48]
 562 039c FFF7FEFF 		bl	__aeabi_i2f
 563              	.LVL81:
 564 03a0 A249     		ldr	r1, .L16+20
 565 03a2 FFF7FEFF 		bl	__aeabi_fmul
 566              	.LVL82:
 567 03a6 0146     		mov	r1, r0
 568 03a8 2846     		mov	r0, r5
 569 03aa FFF7FEFF 		bl	__aeabi_fadd
 570              	.LVL83:
 571 03ae 0546     		mov	r5, r0
 572 03b0 608E     		ldrh	r0, [r4, #50]
 573 03b2 FFF7FEFF 		bl	__aeabi_i2f
 574              	.LVL84:
 575 03b6 9E49     		ldr	r1, .L16+24
 576 03b8 FFF7FEFF 		bl	__aeabi_fmul
 577              	.LVL85:
 578 03bc 0146     		mov	r1, r0
 579 03be 2846     		mov	r0, r5
 580 03c0 FFF7FEFF 		bl	__aeabi_fadd
 581              	.LVL86:
 582 03c4 0546     		mov	r5, r0
 583 03c6 A08E     		ldrh	r0, [r4, #52]
 584 03c8 FFF7FEFF 		bl	__aeabi_i2f
 585              	.LVL87:
 586 03cc 9749     		ldr	r1, .L16+20
 587 03ce FFF7FEFF 		bl	__aeabi_fmul
 588              	.LVL88:
ARM GAS  C:\Users\nikod\AppData\Local\Temp\ccFbz9mj.s 			page 13


 589 03d2 0146     		mov	r1, r0
 590 03d4 2846     		mov	r0, r5
 591 03d6 FFF7FEFF 		bl	__aeabi_fadd
 592              	.LVL89:
 593 03da 0546     		mov	r5, r0
 594 03dc E08E     		ldrh	r0, [r4, #54]
 595 03de FFF7FEFF 		bl	__aeabi_i2f
 596              	.LVL90:
 597 03e2 9149     		ldr	r1, .L16+16
 598 03e4 FFF7FEFF 		bl	__aeabi_fmul
 599              	.LVL91:
 600 03e8 0146     		mov	r1, r0
 601 03ea 2846     		mov	r0, r5
 602 03ec FFF7FEFF 		bl	__aeabi_fadd
 603              	.LVL92:
 604 03f0 0546     		mov	r5, r0
 605 03f2 208F     		ldrh	r0, [r4, #56]
 606 03f4 FFF7FEFF 		bl	__aeabi_i2f
 607              	.LVL93:
 608 03f8 8A49     		ldr	r1, .L16+12
 609 03fa FFF7FEFF 		bl	__aeabi_fmul
 610              	.LVL94:
 611 03fe 0146     		mov	r1, r0
 612 0400 2846     		mov	r0, r5
 613 0402 FFF7FEFF 		bl	__aeabi_fadd
 614              	.LVL95:
 615 0406 0546     		mov	r5, r0
 616 0408 608F     		ldrh	r0, [r4, #58]
 617 040a FFF7FEFF 		bl	__aeabi_i2f
 618              	.LVL96:
 619 040e 8449     		ldr	r1, .L16+8
 620 0410 FFF7FEFF 		bl	__aeabi_fmul
 621              	.LVL97:
 622 0414 0146     		mov	r1, r0
 623 0416 2846     		mov	r0, r5
 624 0418 FFF7FEFF 		bl	__aeabi_fadd
 625              	.LVL98:
 626 041c 0546     		mov	r5, r0
 627 041e A08F     		ldrh	r0, [r4, #60]
 628 0420 FFF7FEFF 		bl	__aeabi_i2f
 629              	.LVL99:
 630 0424 7D49     		ldr	r1, .L16+4
 631 0426 FFF7FEFF 		bl	__aeabi_fmul
 632              	.LVL100:
 633 042a 0146     		mov	r1, r0
 634 042c 2846     		mov	r0, r5
 635 042e FFF7FEFF 		bl	__aeabi_fadd
 636              	.LVL101:
 637 0432 0546     		mov	r5, r0
 638 0434 E08F     		ldrh	r0, [r4, #62]
 639 0436 FFF7FEFF 		bl	__aeabi_i2f
 640              	.LVL102:
 641 043a 7749     		ldr	r1, .L16
 642 043c FFF7FEFF 		bl	__aeabi_fmul
 643              	.LVL103:
 644 0440 0146     		mov	r1, r0
 645 0442 2846     		mov	r0, r5
ARM GAS  C:\Users\nikod\AppData\Local\Temp\ccFbz9mj.s 			page 14


 646 0444 FFF7FEFF 		bl	__aeabi_fadd
 647              	.LVL104:
 648 0448 0546     		mov	r5, r0
 649 044a B4F84000 		ldrh	r0, [r4, #64]
 650 044e FFF7FEFF 		bl	__aeabi_i2f
 651              	.LVL105:
 652 0452 7849     		ldr	r1, .L16+28
 653 0454 FFF7FEFF 		bl	__aeabi_fmul
 654              	.LVL106:
 655 0458 0146     		mov	r1, r0
 656 045a 2846     		mov	r0, r5
 657 045c FFF7FEFF 		bl	__aeabi_fadd
 658              	.LVL107:
 659 0460 0546     		mov	r5, r0
 660 0462 B4F84200 		ldrh	r0, [r4, #66]
 661 0466 FFF7FEFF 		bl	__aeabi_i2f
 662              	.LVL108:
 663 046a 7349     		ldr	r1, .L16+32
 664 046c FFF7FEFF 		bl	__aeabi_fmul
 665              	.LVL109:
 666 0470 0146     		mov	r1, r0
 667 0472 2846     		mov	r0, r5
 668 0474 FFF7FEFF 		bl	__aeabi_fadd
 669              	.LVL110:
 670 0478 0546     		mov	r5, r0
 671 047a B4F84400 		ldrh	r0, [r4, #68]
 672 047e FFF7FEFF 		bl	__aeabi_i2f
 673              	.LVL111:
 674 0482 6E49     		ldr	r1, .L16+36
 675 0484 FFF7FEFF 		bl	__aeabi_fmul
 676              	.LVL112:
 677 0488 0146     		mov	r1, r0
 678 048a 2846     		mov	r0, r5
 679 048c FFF7FEFF 		bl	__aeabi_fadd
 680              	.LVL113:
 681 0490 0546     		mov	r5, r0
 682 0492 B4F84600 		ldrh	r0, [r4, #70]
 683 0496 FFF7FEFF 		bl	__aeabi_i2f
 684              	.LVL114:
 685 049a 6949     		ldr	r1, .L16+40
 686 049c FFF7FEFF 		bl	__aeabi_fmul
 687              	.LVL115:
 688 04a0 0146     		mov	r1, r0
 689 04a2 2846     		mov	r0, r5
 690 04a4 FFF7FEFF 		bl	__aeabi_fadd
 691              	.LVL116:
 692 04a8 0546     		mov	r5, r0
 693 04aa B4F84800 		ldrh	r0, [r4, #72]
 694 04ae FFF7FEFF 		bl	__aeabi_i2f
 695              	.LVL117:
 696 04b2 6449     		ldr	r1, .L16+44
 697 04b4 FFF7FEFF 		bl	__aeabi_fmul
 698              	.LVL118:
 699 04b8 0146     		mov	r1, r0
 700 04ba 2846     		mov	r0, r5
 701 04bc FFF7FEFF 		bl	__aeabi_fadd
 702              	.LVL119:
ARM GAS  C:\Users\nikod\AppData\Local\Temp\ccFbz9mj.s 			page 15


 703 04c0 0546     		mov	r5, r0
 704 04c2 B4F84A00 		ldrh	r0, [r4, #74]
 705 04c6 FFF7FEFF 		bl	__aeabi_i2f
 706              	.LVL120:
 707 04ca 5F49     		ldr	r1, .L16+48
 708 04cc FFF7FEFF 		bl	__aeabi_fmul
 709              	.LVL121:
 710 04d0 0146     		mov	r1, r0
 711 04d2 2846     		mov	r0, r5
 712 04d4 FFF7FEFF 		bl	__aeabi_fadd
 713              	.LVL122:
 714 04d8 0546     		mov	r5, r0
 715 04da B4F84C00 		ldrh	r0, [r4, #76]
 716 04de FFF7FEFF 		bl	__aeabi_i2f
 717              	.LVL123:
 718 04e2 5A49     		ldr	r1, .L16+52
 719 04e4 FFF7FEFF 		bl	__aeabi_fmul
 720              	.LVL124:
 721 04e8 0146     		mov	r1, r0
 722 04ea 2846     		mov	r0, r5
 723 04ec FFF7FEFF 		bl	__aeabi_fadd
 724              	.LVL125:
 725 04f0 0546     		mov	r5, r0
 726 04f2 B4F84E00 		ldrh	r0, [r4, #78]
 727 04f6 FFF7FEFF 		bl	__aeabi_i2f
 728              	.LVL126:
 729 04fa 5549     		ldr	r1, .L16+56
 730 04fc FFF7FEFF 		bl	__aeabi_fmul
 731              	.LVL127:
 732 0500 0146     		mov	r1, r0
 733 0502 2846     		mov	r0, r5
 734 0504 FFF7FEFF 		bl	__aeabi_fadd
 735              	.LVL128:
 736 0508 0546     		mov	r5, r0
 737 050a B4F85000 		ldrh	r0, [r4, #80]
 738 050e FFF7FEFF 		bl	__aeabi_i2f
 739              	.LVL129:
 740 0512 5049     		ldr	r1, .L16+60
 741 0514 FFF7FEFF 		bl	__aeabi_fmul
 742              	.LVL130:
 743 0518 0146     		mov	r1, r0
 744 051a 2846     		mov	r0, r5
 745 051c FFF7FEFF 		bl	__aeabi_fadd
 746              	.LVL131:
 747 0520 0546     		mov	r5, r0
 748 0522 B4F85200 		ldrh	r0, [r4, #82]
 749 0526 FFF7FEFF 		bl	__aeabi_i2f
 750              	.LVL132:
 751 052a 4B49     		ldr	r1, .L16+64
 752 052c FFF7FEFF 		bl	__aeabi_fmul
 753              	.LVL133:
 754 0530 0146     		mov	r1, r0
 755 0532 2846     		mov	r0, r5
 756 0534 FFF7FEFF 		bl	__aeabi_fadd
 757              	.LVL134:
 758 0538 0546     		mov	r5, r0
 759 053a B4F85400 		ldrh	r0, [r4, #84]
ARM GAS  C:\Users\nikod\AppData\Local\Temp\ccFbz9mj.s 			page 16


 760 053e FFF7FEFF 		bl	__aeabi_i2f
 761              	.LVL135:
 762 0542 4649     		ldr	r1, .L16+68
 763 0544 FFF7FEFF 		bl	__aeabi_fmul
 764              	.LVL136:
 765 0548 0146     		mov	r1, r0
 766 054a 2846     		mov	r0, r5
 767 054c FFF7FEFF 		bl	__aeabi_fadd
 768              	.LVL137:
 769 0550 0546     		mov	r5, r0
 770 0552 B4F85600 		ldrh	r0, [r4, #86]
 771 0556 FFF7FEFF 		bl	__aeabi_i2f
 772              	.LVL138:
 773 055a 4149     		ldr	r1, .L16+72
 774 055c FFF7FEFF 		bl	__aeabi_fmul
 775              	.LVL139:
 776 0560 0146     		mov	r1, r0
 777 0562 2846     		mov	r0, r5
 778 0564 FFF7FEFF 		bl	__aeabi_fadd
 779              	.LVL140:
 780 0568 0546     		mov	r5, r0
 781 056a B4F85800 		ldrh	r0, [r4, #88]
 782 056e FFF7FEFF 		bl	__aeabi_i2f
 783              	.LVL141:
 784 0572 3C49     		ldr	r1, .L16+76
 785 0574 FFF7FEFF 		bl	__aeabi_fmul
 786              	.LVL142:
 787 0578 0146     		mov	r1, r0
 788 057a 2846     		mov	r0, r5
 789 057c FFF7FEFF 		bl	__aeabi_fadd
 790              	.LVL143:
 791 0580 0546     		mov	r5, r0
 792 0582 B4F85A00 		ldrh	r0, [r4, #90]
 793 0586 FFF7FEFF 		bl	__aeabi_i2f
 794              	.LVL144:
 795 058a 3749     		ldr	r1, .L16+80
 796 058c FFF7FEFF 		bl	__aeabi_fmul
 797              	.LVL145:
 798 0590 0146     		mov	r1, r0
 799 0592 2846     		mov	r0, r5
 800 0594 FFF7FEFF 		bl	__aeabi_fadd
 801              	.LVL146:
 802 0598 0546     		mov	r5, r0
 803 059a B4F85C00 		ldrh	r0, [r4, #92]
 804 059e FFF7FEFF 		bl	__aeabi_i2f
 805              	.LVL147:
 806 05a2 3249     		ldr	r1, .L16+84
 807 05a4 FFF7FEFF 		bl	__aeabi_fmul
 808              	.LVL148:
 809 05a8 0146     		mov	r1, r0
 810 05aa 2846     		mov	r0, r5
 811 05ac FFF7FEFF 		bl	__aeabi_fadd
 812              	.LVL149:
 813 05b0 0546     		mov	r5, r0
 814 05b2 B4F85E00 		ldrh	r0, [r4, #94]
 815 05b6 FFF7FEFF 		bl	__aeabi_i2f
 816              	.LVL150:
ARM GAS  C:\Users\nikod\AppData\Local\Temp\ccFbz9mj.s 			page 17


 817 05ba 2D49     		ldr	r1, .L16+88
 818 05bc FFF7FEFF 		bl	__aeabi_fmul
 819              	.LVL151:
 820 05c0 0146     		mov	r1, r0
 821 05c2 2846     		mov	r0, r5
 822 05c4 FFF7FEFF 		bl	__aeabi_fadd
 823              	.LVL152:
 824 05c8 0546     		mov	r5, r0
 825 05ca B4F86000 		ldrh	r0, [r4, #96]
 826 05ce FFF7FEFF 		bl	__aeabi_i2f
 827              	.LVL153:
 828 05d2 2849     		ldr	r1, .L16+92
 829 05d4 FFF7FEFF 		bl	__aeabi_fmul
 830              	.LVL154:
 831 05d8 0146     		mov	r1, r0
 832 05da 2846     		mov	r0, r5
 833 05dc FFF7FEFF 		bl	__aeabi_fadd
 834              	.LVL155:
 835 05e0 0546     		mov	r5, r0
 836 05e2 B4F86200 		ldrh	r0, [r4, #98]
 837 05e6 FFF7FEFF 		bl	__aeabi_i2f
 838              	.LVL156:
 839 05ea 2249     		ldr	r1, .L16+92
 840 05ec FFF7FEFF 		bl	__aeabi_fmul
 841              	.LVL157:
 842 05f0 0146     		mov	r1, r0
 843 05f2 2846     		mov	r0, r5
 844 05f4 FFF7FEFF 		bl	__aeabi_fadd
 845              	.LVL158:
 846 05f8 0446     		mov	r4, r0
 847 05fa 1F4B     		ldr	r3, .L16+96
 848 05fc B3F86400 		ldrh	r0, [r3, #100]
 849 0600 FFF7FEFF 		bl	__aeabi_i2f
 850              	.LVL159:
 851 0604 4FF00041 		mov	r1, #-2147483648
 852 0608 FFF7FEFF 		bl	__aeabi_fmul
 853              	.LVL160:
 854 060c 0146     		mov	r1, r0
 855 060e 2046     		mov	r0, r4
 856 0610 FFF7FEFF 		bl	__aeabi_fadd
 857              	.LVL161:
 858 0614 32E0     		b	.L17
 859              	.L18:
 860 0616 00BF     		.align	2
 861              	.L16:
 862 0618 50FC98BD 		.word	-1114047408
 863 061c AE47E1BD 		.word	-1109309522
 864 0620 CE19D1BD 		.word	-1110369842
 865 0624 575B31BD 		.word	-1120838825
 866 0628 C9763E3D 		.word	1027503817
 867 062c 8126023E 		.word	1040328321
 868 0630 8A1F233E 		.word	1042489226
 869 0634 C898BBBC 		.word	-1128556344
 870 0638 728A8E3C 		.word	1015974514
 871 063c 014D043D 		.word	1023692033
 872 0640 A913D03C 		.word	1020269481
 873 0644 0E4F2F3C 		.word	1009733390
ARM GAS  C:\Users\nikod\AppData\Local\Temp\ccFbz9mj.s 			page 18


 874 0648 52499D3A 		.word	983386450
 875 064c 6F12833A 		.word	981668463
 876 0650 82E2C73B 		.word	1002955394
 877 0654 9C33223C 		.word	1008874396
 878 0658 96430B3C 		.word	1007371158
 879 065c 5F294B3B 		.word	994781535
 880 0660 C3642ABB 		.word	-1154849597
 881 0664 5839B4BB 		.word	-1145816744
 882 0668 E71DA7BB 		.word	-1146675737
 883 066c 348037BB 		.word	-1153990604
 884 0670 348037BA 		.word	-1170767820
 885 0674 17B7D139 		.word	970045207
 886 0678 00000000 		.word	x
 887              	.L17:
 888 067c 4FF08641 		mov	r1, #1124073472
 889 0680 FFF7FEFF 		bl	__aeabi_fadd
 890              	.LVL162:
 891 0684 FFF7FEFF 		bl	__aeabi_f2uiz
 892              	.LVL163:
 893 0688 C0B2     		uxtb	r0, r0
 894              	.LVL164:
 895              	.L9:
  97:main.c        **** }
  98:main.c        ****     DAC_SetValue(y);
 896              		.loc 1 98 0
 897 068a FFF7FEFF 		bl	DAC_SetValue
 898              	.LVL165:
 899 068e 38BD     		pop	{r3, r4, r5, pc}
 900              		.cfi_endproc
 901              	.LFE64:
 902              		.size	llegaMuestra, .-llegaMuestra
 903              		.section	.text.main,"ax",%progbits
 904              		.align	2
 905              		.global	main
 906              		.thumb
 907              		.thumb_func
 908              		.type	main, %function
 909              	main:
 910              	.LFB65:
  99:main.c        **** }
 100:main.c        **** 
 101:main.c        **** int main(void)
 102:main.c        **** {
 911              		.loc 1 102 0
 912              		.cfi_startproc
 913              		@ Volatile: function does not return.
 914              		@ args = 0, pretend = 0, frame = 0
 915              		@ frame_needed = 0, uses_anonymous_args = 0
 916 0000 08B5     		push	{r3, lr}
 917              		.cfi_def_cfa_offset 8
 918              		.cfi_offset 3, -8
 919              		.cfi_offset 14, -4
 103:main.c        ****     CyGlobalIntEnable; /* Enable global interrupts. */    
 920              		.loc 1 103 0
 921              		.syntax unified
 922              	@ 103 "main.c" 1
 923 0002 62B6     		CPSIE   i
ARM GAS  C:\Users\nikod\AppData\Local\Temp\ccFbz9mj.s 			page 19


 924              	@ 0 "" 2
 104:main.c        ****     /* Place your initialization/startup code here (e.g. MyInst_Start()) */
 105:main.c        ****     //Inicializamos los componentes
 106:main.c        ****     ADC_Start();
 925              		.loc 1 106 0
 926              		.thumb
 927              		.syntax unified
 928 0004 FFF7FEFF 		bl	ADC_Start
 929              	.LVL166:
 107:main.c        ****     DAC_Start();
 930              		.loc 1 107 0
 931 0008 FFF7FEFF 		bl	DAC_Start
 932              	.LVL167:
 108:main.c        ****     Timer_Start();
 933              		.loc 1 108 0
 934 000c FFF7FEFF 		bl	Timer_Start
 935              	.LVL168:
 109:main.c        ****     ISR_StartEx(llegaMuestra);
 936              		.loc 1 109 0
 937 0010 0448     		ldr	r0, .L22
 938 0012 FFF7FEFF 		bl	ISR_StartEx
 939              	.LVL169:
 110:main.c        ****     LEDS_Write(0);
 940              		.loc 1 110 0
 941 0016 0020     		movs	r0, #0
 942 0018 FFF7FEFF 		bl	LEDS_Write
 943              	.LVL170:
 111:main.c        ****     ISR_1_StartEx(INT_SW);
 944              		.loc 1 111 0
 945 001c 0248     		ldr	r0, .L22+4
 946 001e FFF7FEFF 		bl	ISR_1_StartEx
 947              	.LVL171:
 948              	.L20:
 949 0022 FEE7     		b	.L20
 950              	.L23:
 951              		.align	2
 952              	.L22:
 953 0024 00000000 		.word	llegaMuestra
 954 0028 00000000 		.word	INT_SW
 955              		.cfi_endproc
 956              	.LFE65:
 957              		.size	main, .-main
 958              		.comm	x,102,4
 959              		.global	cont
 960              		.global	h
 961              		.global	g
 962              		.section	.rodata
 963              		.align	3
 964              		.type	h, %object
 965              		.size	h, 204
 966              	h:
 967 0000 00000000 		.word	0
 968 0004 17B7D139 		.word	970045207
 969 0008 17B7D139 		.word	970045207
 970 000c 348037BA 		.word	-1170767820
 971 0010 348037BB 		.word	-1153990604
 972 0014 E71DA7BB 		.word	-1146675737
ARM GAS  C:\Users\nikod\AppData\Local\Temp\ccFbz9mj.s 			page 20


 973 0018 5839B4BB 		.word	-1145816744
 974 001c C3642ABB 		.word	-1154849597
 975 0020 5F294B3B 		.word	994781535
 976 0024 96430B3C 		.word	1007371158
 977 0028 9C33223C 		.word	1008874396
 978 002c 82E2C73B 		.word	1002955394
 979 0030 6F12833A 		.word	981668463
 980 0034 52499D3A 		.word	983386450
 981 0038 0E4F2F3C 		.word	1009733390
 982 003c A913D03C 		.word	1020269481
 983 0040 014D043D 		.word	1023692033
 984 0044 728A8E3C 		.word	1015974514
 985 0048 C898BBBC 		.word	-1128556344
 986 004c 50FC98BD 		.word	-1114047408
 987 0050 AE47E1BD 		.word	-1109309522
 988 0054 CE19D1BD 		.word	-1110369842
 989 0058 575B31BD 		.word	-1120838825
 990 005c C9763E3D 		.word	1027503817
 991 0060 8126023E 		.word	1040328321
 992 0064 8A1F233E 		.word	1042489226
 993 0068 8126023E 		.word	1040328321
 994 006c C9763E3D 		.word	1027503817
 995 0070 575B31BD 		.word	-1120838825
 996 0074 CE19D1BD 		.word	-1110369842
 997 0078 AE47E1BD 		.word	-1109309522
 998 007c 50FC98BD 		.word	-1114047408
 999 0080 C898BBBC 		.word	-1128556344
 1000 0084 728A8E3C 		.word	1015974514
 1001 0088 014D043D 		.word	1023692033
 1002 008c A913D03C 		.word	1020269481
 1003 0090 0E4F2F3C 		.word	1009733390
 1004 0094 52499D3A 		.word	983386450
 1005 0098 6F12833A 		.word	981668463
 1006 009c 82E2C73B 		.word	1002955394
 1007 00a0 9C33223C 		.word	1008874396
 1008 00a4 96430B3C 		.word	1007371158
 1009 00a8 5F294B3B 		.word	994781535
 1010 00ac C3642ABB 		.word	-1154849597
 1011 00b0 5839B4BB 		.word	-1145816744
 1012 00b4 E71DA7BB 		.word	-1146675737
 1013 00b8 348037BB 		.word	-1153990604
 1014 00bc 348037BA 		.word	-1170767820
 1015 00c0 17B7D139 		.word	970045207
 1016 00c4 17B7D139 		.word	970045207
 1017 00c8 00000080 		.word	-2147483648
 1018 00cc 00000000 		.space	4
 1019              		.type	g, %object
 1020              		.size	g, 64
 1021              	g:
 1022 00d0 CAC342AD 		.word	-1388133430
 1023 00d4 691E1740 		.word	1075256937
 1024 00d8 2D431CEB 		.word	-350469331
 1025 00dc E2362FC0 		.word	-1070647582
 1026 00e0 60E5D022 		.word	584115552
 1027 00e4 DB793940 		.word	1077508571
 1028 00e8 8048BF7D 		.word	2109687936
 1029 00ec 1D683BC0 		.word	-1069848547
ARM GAS  C:\Users\nikod\AppData\Local\Temp\ccFbz9mj.s 			page 21


 1030 00f0 1EA7E848 		.word	1223206686
 1031 00f4 2EDF3340 		.word	1077141294
 1032 00f8 04560E2D 		.word	755914244
 1033 00fc B2FD22C0 		.word	-1071448654
 1034 0100 35EF3845 		.word	1161359157
 1035 0104 47F20540 		.word	1074131527
 1036 0108 D0D556EC 		.word	-329853488
 1037 010c 2FBBD7BF 		.word	-1076380881
 1038              		.bss
 1039              		.set	.LANCHOR0,. + 0
 1040              		.type	cont, %object
 1041              		.size	cont, 1
 1042              	cont:
 1043 0000 00       		.space	1
 1044              		.text
 1045              	.Letext0:
 1046              		.file 2 "c:\\program files (x86)\\cypress\\psoc creator\\4.2\\psoc creator\\import\\gnu\\arm\\5.4.
 1047              		.file 3 "c:\\program files (x86)\\cypress\\psoc creator\\4.2\\psoc creator\\import\\gnu\\arm\\5.4.
 1048              		.file 4 "Generated_Source\\PSoC5/cytypes.h"
 1049              		.file 5 "Generated_Source\\PSoC5/core_cm3.h"
 1050              		.file 6 "Generated_Source\\PSoC5/LEDS.h"
 1051              		.file 7 "Generated_Source\\PSoC5/SW.h"
 1052              		.file 8 "Generated_Source\\PSoC5/ADC.h"
 1053              		.file 9 "Generated_Source\\PSoC5/DAC.h"
 1054              		.file 10 "Generated_Source\\PSoC5/Timer.h"
 1055              		.file 11 "Generated_Source\\PSoC5/ISR.h"
 1056              		.file 12 "Generated_Source\\PSoC5/ISR_1.h"
 1057              		.section	.debug_info,"",%progbits
 1058              	.Ldebug_info0:
 1059 0000 DA020000 		.4byte	0x2da
 1060 0004 0400     		.2byte	0x4
 1061 0006 00000000 		.4byte	.Ldebug_abbrev0
 1062 000a 04       		.byte	0x4
 1063 000b 01       		.uleb128 0x1
 1064 000c 59000000 		.4byte	.LASF33
 1065 0010 0C       		.byte	0xc
 1066 0011 D4010000 		.4byte	.LASF34
 1067 0015 FE010000 		.4byte	.LASF35
 1068 0019 00000000 		.4byte	.Ldebug_ranges0+0
 1069 001d 00000000 		.4byte	0
 1070 0021 00000000 		.4byte	.Ldebug_line0
 1071 0025 02       		.uleb128 0x2
 1072 0026 01       		.byte	0x1
 1073 0027 06       		.byte	0x6
 1074 0028 5C020000 		.4byte	.LASF0
 1075 002c 02       		.uleb128 0x2
 1076 002d 01       		.byte	0x1
 1077 002e 08       		.byte	0x8
 1078 002f 4B000000 		.4byte	.LASF1
 1079 0033 02       		.uleb128 0x2
 1080 0034 02       		.byte	0x2
 1081 0035 05       		.byte	0x5
 1082 0036 E0010000 		.4byte	.LASF2
 1083 003a 02       		.uleb128 0x2
 1084 003b 02       		.byte	0x2
 1085 003c 07       		.byte	0x7
 1086 003d F8000000 		.4byte	.LASF3
ARM GAS  C:\Users\nikod\AppData\Local\Temp\ccFbz9mj.s 			page 22


 1087 0041 03       		.uleb128 0x3
 1088 0042 12000000 		.4byte	.LASF9
 1089 0046 02       		.byte	0x2
 1090 0047 3F       		.byte	0x3f
 1091 0048 4C000000 		.4byte	0x4c
 1092 004c 02       		.uleb128 0x2
 1093 004d 04       		.byte	0x4
 1094 004e 05       		.byte	0x5
 1095 004f 4E020000 		.4byte	.LASF4
 1096 0053 02       		.uleb128 0x2
 1097 0054 04       		.byte	0x4
 1098 0055 07       		.byte	0x7
 1099 0056 45010000 		.4byte	.LASF5
 1100 005a 02       		.uleb128 0x2
 1101 005b 08       		.byte	0x8
 1102 005c 05       		.byte	0x5
 1103 005d C6010000 		.4byte	.LASF6
 1104 0061 02       		.uleb128 0x2
 1105 0062 08       		.byte	0x8
 1106 0063 07       		.byte	0x7
 1107 0064 90010000 		.4byte	.LASF7
 1108 0068 04       		.uleb128 0x4
 1109 0069 04       		.byte	0x4
 1110 006a 05       		.byte	0x5
 1111 006b 696E7400 		.ascii	"int\000"
 1112 006f 02       		.uleb128 0x2
 1113 0070 04       		.byte	0x4
 1114 0071 07       		.byte	0x7
 1115 0072 83010000 		.4byte	.LASF8
 1116 0076 03       		.uleb128 0x3
 1117 0077 30000000 		.4byte	.LASF10
 1118 007b 03       		.byte	0x3
 1119 007c 2C       		.byte	0x2c
 1120 007d 41000000 		.4byte	0x41
 1121 0081 05       		.uleb128 0x5
 1122 0082 EA010000 		.4byte	.LASF11
 1123 0086 04       		.byte	0x4
 1124 0087 E401     		.2byte	0x1e4
 1125 0089 2C000000 		.4byte	0x2c
 1126 008d 05       		.uleb128 0x5
 1127 008e 5E010000 		.4byte	.LASF12
 1128 0092 04       		.byte	0x4
 1129 0093 E501     		.2byte	0x1e5
 1130 0095 3A000000 		.4byte	0x3a
 1131 0099 02       		.uleb128 0x2
 1132 009a 04       		.byte	0x4
 1133 009b 04       		.byte	0x4
 1134 009c 38000000 		.4byte	.LASF13
 1135 00a0 02       		.uleb128 0x2
 1136 00a1 08       		.byte	0x8
 1137 00a2 04       		.byte	0x4
 1138 00a3 29000000 		.4byte	.LASF14
 1139 00a7 02       		.uleb128 0x2
 1140 00a8 01       		.byte	0x1
 1141 00a9 08       		.byte	0x8
 1142 00aa DB010000 		.4byte	.LASF15
 1143 00ae 06       		.uleb128 0x6
ARM GAS  C:\Users\nikod\AppData\Local\Temp\ccFbz9mj.s 			page 23


 1144 00af 81000000 		.4byte	0x81
 1145 00b3 02       		.uleb128 0x2
 1146 00b4 08       		.byte	0x8
 1147 00b5 04       		.byte	0x4
 1148 00b6 B1010000 		.4byte	.LASF16
 1149 00ba 02       		.uleb128 0x2
 1150 00bb 04       		.byte	0x4
 1151 00bc 07       		.byte	0x7
 1152 00bd BD010000 		.4byte	.LASF17
 1153 00c1 07       		.uleb128 0x7
 1154 00c2 57010000 		.4byte	.LASF18
 1155 00c6 01       		.byte	0x1
 1156 00c7 19       		.byte	0x19
 1157 00c8 00000000 		.4byte	.LFB63
 1158 00cc 2C000000 		.4byte	.LFE63-.LFB63
 1159 00d0 01       		.uleb128 0x1
 1160 00d1 9C       		.byte	0x9c
 1161 00d2 E9000000 		.4byte	0xe9
 1162 00d6 08       		.uleb128 0x8
 1163 00d7 22000000 		.4byte	.LVL0
 1164 00db 64020000 		.4byte	0x264
 1165 00df 08       		.uleb128 0x8
 1166 00e0 26000000 		.4byte	.LVL1
 1167 00e4 6F020000 		.4byte	0x26f
 1168 00e8 00       		.byte	0
 1169 00e9 09       		.uleb128 0x9
 1170 00ea 3E000000 		.4byte	.LASF19
 1171 00ee 01       		.byte	0x1
 1172 00ef 24       		.byte	0x24
 1173 00f0 00000000 		.4byte	.LFB64
 1174 00f4 90060000 		.4byte	.LFE64-.LFB64
 1175 00f8 01       		.uleb128 0x1
 1176 00f9 9C       		.byte	0x9c
 1177 00fa 5F010000 		.4byte	0x15f
 1178 00fe 0A       		.uleb128 0xa
 1179 00ff 7900     		.ascii	"y\000"
 1180 0101 01       		.byte	0x1
 1181 0102 25       		.byte	0x25
 1182 0103 2C000000 		.4byte	0x2c
 1183 0107 00000000 		.4byte	.LLST0
 1184 010b 08       		.uleb128 0x8
 1185 010c 10000000 		.4byte	.LVL2
 1186 0110 7A020000 		.4byte	0x27a
 1187 0114 0B       		.uleb128 0xb
 1188 0115 16000000 		.4byte	.LVL3
 1189 0119 85020000 		.4byte	0x285
 1190 011d 27010000 		.4byte	0x127
 1191 0121 0C       		.uleb128 0xc
 1192 0122 01       		.uleb128 0x1
 1193 0123 50       		.byte	0x50
 1194 0124 01       		.uleb128 0x1
 1195 0125 30       		.byte	0x30
 1196 0126 00       		.byte	0
 1197 0127 08       		.uleb128 0x8
 1198 0128 1A000000 		.4byte	.LVL4
 1199 012c 90020000 		.4byte	0x290
 1200 0130 08       		.uleb128 0x8
ARM GAS  C:\Users\nikod\AppData\Local\Temp\ccFbz9mj.s 			page 24


 1201 0131 3C010000 		.4byte	.LVL7
 1202 0135 7A020000 		.4byte	0x27a
 1203 0139 0B       		.uleb128 0xb
 1204 013a 42010000 		.4byte	.LVL8
 1205 013e 85020000 		.4byte	0x285
 1206 0142 4C010000 		.4byte	0x14c
 1207 0146 0C       		.uleb128 0xc
 1208 0147 01       		.uleb128 0x1
 1209 0148 50       		.byte	0x50
 1210 0149 01       		.uleb128 0x1
 1211 014a 30       		.byte	0x30
 1212 014b 00       		.byte	0
 1213 014c 08       		.uleb128 0x8
 1214 014d 46010000 		.4byte	.LVL9
 1215 0151 90020000 		.4byte	0x290
 1216 0155 08       		.uleb128 0x8
 1217 0156 8E060000 		.4byte	.LVL165
 1218 015a 9B020000 		.4byte	0x29b
 1219 015e 00       		.byte	0
 1220 015f 0D       		.uleb128 0xd
 1221 0160 72010000 		.4byte	.LASF36
 1222 0164 01       		.byte	0x1
 1223 0165 65       		.byte	0x65
 1224 0166 68000000 		.4byte	0x68
 1225 016a 00000000 		.4byte	.LFB65
 1226 016e 2C000000 		.4byte	.LFE65-.LFB65
 1227 0172 01       		.uleb128 0x1
 1228 0173 9C       		.byte	0x9c
 1229 0174 D1010000 		.4byte	0x1d1
 1230 0178 08       		.uleb128 0x8
 1231 0179 08000000 		.4byte	.LVL166
 1232 017d A6020000 		.4byte	0x2a6
 1233 0181 08       		.uleb128 0x8
 1234 0182 0C000000 		.4byte	.LVL167
 1235 0186 B1020000 		.4byte	0x2b1
 1236 018a 08       		.uleb128 0x8
 1237 018b 10000000 		.4byte	.LVL168
 1238 018f BC020000 		.4byte	0x2bc
 1239 0193 0B       		.uleb128 0xb
 1240 0194 16000000 		.4byte	.LVL169
 1241 0198 C7020000 		.4byte	0x2c7
 1242 019c AA010000 		.4byte	0x1aa
 1243 01a0 0C       		.uleb128 0xc
 1244 01a1 01       		.uleb128 0x1
 1245 01a2 50       		.byte	0x50
 1246 01a3 05       		.uleb128 0x5
 1247 01a4 03       		.byte	0x3
 1248 01a5 00000000 		.4byte	llegaMuestra
 1249 01a9 00       		.byte	0
 1250 01aa 0B       		.uleb128 0xb
 1251 01ab 1C000000 		.4byte	.LVL170
 1252 01af 64020000 		.4byte	0x264
 1253 01b3 BD010000 		.4byte	0x1bd
 1254 01b7 0C       		.uleb128 0xc
 1255 01b8 01       		.uleb128 0x1
 1256 01b9 50       		.byte	0x50
 1257 01ba 01       		.uleb128 0x1
ARM GAS  C:\Users\nikod\AppData\Local\Temp\ccFbz9mj.s 			page 25


 1258 01bb 30       		.byte	0x30
 1259 01bc 00       		.byte	0
 1260 01bd 0E       		.uleb128 0xe
 1261 01be 22000000 		.4byte	.LVL171
 1262 01c2 D2020000 		.4byte	0x2d2
 1263 01c6 0C       		.uleb128 0xc
 1264 01c7 01       		.uleb128 0x1
 1265 01c8 50       		.byte	0x50
 1266 01c9 05       		.uleb128 0x5
 1267 01ca 03       		.byte	0x3
 1268 01cb 00000000 		.4byte	INT_SW
 1269 01cf 00       		.byte	0
 1270 01d0 00       		.byte	0
 1271 01d1 0F       		.uleb128 0xf
 1272 01d2 65010000 		.4byte	.LASF20
 1273 01d6 05       		.byte	0x5
 1274 01d7 1207     		.2byte	0x712
 1275 01d9 DD010000 		.4byte	0x1dd
 1276 01dd 06       		.uleb128 0x6
 1277 01de 76000000 		.4byte	0x76
 1278 01e2 10       		.uleb128 0x10
 1279 01e3 F2010000 		.4byte	0x1f2
 1280 01e7 F2010000 		.4byte	0x1f2
 1281 01eb 11       		.uleb128 0x11
 1282 01ec BA000000 		.4byte	0xba
 1283 01f0 07       		.byte	0x7
 1284 01f1 00       		.byte	0
 1285 01f2 12       		.uleb128 0x12
 1286 01f3 A0000000 		.4byte	0xa0
 1287 01f7 13       		.uleb128 0x13
 1288 01f8 6700     		.ascii	"g\000"
 1289 01fa 01       		.byte	0x1
 1290 01fb 12       		.byte	0x12
 1291 01fc 06020000 		.4byte	0x206
 1292 0200 05       		.uleb128 0x5
 1293 0201 03       		.byte	0x3
 1294 0202 00000000 		.4byte	g
 1295 0206 12       		.uleb128 0x12
 1296 0207 E2010000 		.4byte	0x1e2
 1297 020b 10       		.uleb128 0x10
 1298 020c 1B020000 		.4byte	0x21b
 1299 0210 1B020000 		.4byte	0x21b
 1300 0214 11       		.uleb128 0x11
 1301 0215 BA000000 		.4byte	0xba
 1302 0219 32       		.byte	0x32
 1303 021a 00       		.byte	0
 1304 021b 12       		.uleb128 0x12
 1305 021c 99000000 		.4byte	0x99
 1306 0220 13       		.uleb128 0x13
 1307 0221 6800     		.ascii	"h\000"
 1308 0223 01       		.byte	0x1
 1309 0224 13       		.byte	0x13
 1310 0225 2F020000 		.4byte	0x22f
 1311 0229 05       		.uleb128 0x5
 1312 022a 03       		.byte	0x3
 1313 022b 00000000 		.4byte	h
 1314 022f 12       		.uleb128 0x12
ARM GAS  C:\Users\nikod\AppData\Local\Temp\ccFbz9mj.s 			page 26


 1315 0230 0B020000 		.4byte	0x20b
 1316 0234 14       		.uleb128 0x14
 1317 0235 57020000 		.4byte	.LASF21
 1318 0239 01       		.byte	0x1
 1319 023a 15       		.byte	0x15
 1320 023b AE000000 		.4byte	0xae
 1321 023f 05       		.uleb128 0x5
 1322 0240 03       		.byte	0x3
 1323 0241 00000000 		.4byte	cont
 1324 0245 10       		.uleb128 0x10
 1325 0246 8D000000 		.4byte	0x8d
 1326 024a 55020000 		.4byte	0x255
 1327 024e 11       		.uleb128 0x11
 1328 024f BA000000 		.4byte	0xba
 1329 0253 32       		.byte	0x32
 1330 0254 00       		.byte	0
 1331 0255 13       		.uleb128 0x13
 1332 0256 7800     		.ascii	"x\000"
 1333 0258 01       		.byte	0x1
 1334 0259 16       		.byte	0x16
 1335 025a 45020000 		.4byte	0x245
 1336 025e 05       		.uleb128 0x5
 1337 025f 03       		.byte	0x3
 1338 0260 00000000 		.4byte	x
 1339 0264 15       		.uleb128 0x15
 1340 0265 68020000 		.4byte	.LASF22
 1341 0269 68020000 		.4byte	.LASF22
 1342 026d 06       		.byte	0x6
 1343 026e 26       		.byte	0x26
 1344 026f 15       		.uleb128 0x15
 1345 0270 00000000 		.4byte	.LASF23
 1346 0274 00000000 		.4byte	.LASF23
 1347 0278 07       		.byte	0x7
 1348 0279 2B       		.byte	0x2b
 1349 027a 15       		.uleb128 0x15
 1350 027b E7000000 		.4byte	.LASF24
 1351 027f E7000000 		.4byte	.LASF24
 1352 0283 08       		.byte	0x8
 1353 0284 D1       		.byte	0xd1
 1354 0285 15       		.uleb128 0x15
 1355 0286 27010000 		.4byte	.LASF25
 1356 028a 27010000 		.4byte	.LASF25
 1357 028e 08       		.byte	0x8
 1358 028f 39       		.byte	0x39
 1359 0290 15       		.uleb128 0x15
 1360 0291 0B010000 		.4byte	.LASF26
 1361 0295 0B010000 		.4byte	.LASF26
 1362 0299 08       		.byte	0x8
 1363 029a 3B       		.byte	0x3b
 1364 029b 15       		.uleb128 0x15
 1365 029c 1C000000 		.4byte	.LASF27
 1366 02a0 1C000000 		.4byte	.LASF27
 1367 02a4 09       		.byte	0x9
 1368 02a5 37       		.byte	0x37
 1369 02a6 15       		.uleb128 0x15
 1370 02a7 A7010000 		.4byte	.LASF28
 1371 02ab A7010000 		.4byte	.LASF28
ARM GAS  C:\Users\nikod\AppData\Local\Temp\ccFbz9mj.s 			page 27


 1372 02af 08       		.byte	0x8
 1373 02b0 34       		.byte	0x34
 1374 02b1 15       		.uleb128 0x15
 1375 02b2 3B010000 		.4byte	.LASF29
 1376 02b6 3B010000 		.4byte	.LASF29
 1377 02ba 09       		.byte	0x9
 1378 02bb 33       		.byte	0x33
 1379 02bc 15       		.uleb128 0x15
 1380 02bd 77010000 		.4byte	.LASF30
 1381 02c1 77010000 		.4byte	.LASF30
 1382 02c5 0A       		.byte	0xa
 1383 02c6 5A       		.byte	0x5a
 1384 02c7 15       		.uleb128 0x15
 1385 02c8 1B010000 		.4byte	.LASF31
 1386 02cc 1B010000 		.4byte	.LASF31
 1387 02d0 0B       		.byte	0xb
 1388 02d1 18       		.byte	0x18
 1389 02d2 15       		.uleb128 0x15
 1390 02d3 F0010000 		.4byte	.LASF32
 1391 02d7 F0010000 		.4byte	.LASF32
 1392 02db 0C       		.byte	0xc
 1393 02dc 18       		.byte	0x18
 1394 02dd 00       		.byte	0
 1395              		.section	.debug_abbrev,"",%progbits
 1396              	.Ldebug_abbrev0:
 1397 0000 01       		.uleb128 0x1
 1398 0001 11       		.uleb128 0x11
 1399 0002 01       		.byte	0x1
 1400 0003 25       		.uleb128 0x25
 1401 0004 0E       		.uleb128 0xe
 1402 0005 13       		.uleb128 0x13
 1403 0006 0B       		.uleb128 0xb
 1404 0007 03       		.uleb128 0x3
 1405 0008 0E       		.uleb128 0xe
 1406 0009 1B       		.uleb128 0x1b
 1407 000a 0E       		.uleb128 0xe
 1408 000b 55       		.uleb128 0x55
 1409 000c 17       		.uleb128 0x17
 1410 000d 11       		.uleb128 0x11
 1411 000e 01       		.uleb128 0x1
 1412 000f 10       		.uleb128 0x10
 1413 0010 17       		.uleb128 0x17
 1414 0011 00       		.byte	0
 1415 0012 00       		.byte	0
 1416 0013 02       		.uleb128 0x2
 1417 0014 24       		.uleb128 0x24
 1418 0015 00       		.byte	0
 1419 0016 0B       		.uleb128 0xb
 1420 0017 0B       		.uleb128 0xb
 1421 0018 3E       		.uleb128 0x3e
 1422 0019 0B       		.uleb128 0xb
 1423 001a 03       		.uleb128 0x3
 1424 001b 0E       		.uleb128 0xe
 1425 001c 00       		.byte	0
 1426 001d 00       		.byte	0
 1427 001e 03       		.uleb128 0x3
 1428 001f 16       		.uleb128 0x16
ARM GAS  C:\Users\nikod\AppData\Local\Temp\ccFbz9mj.s 			page 28


 1429 0020 00       		.byte	0
 1430 0021 03       		.uleb128 0x3
 1431 0022 0E       		.uleb128 0xe
 1432 0023 3A       		.uleb128 0x3a
 1433 0024 0B       		.uleb128 0xb
 1434 0025 3B       		.uleb128 0x3b
 1435 0026 0B       		.uleb128 0xb
 1436 0027 49       		.uleb128 0x49
 1437 0028 13       		.uleb128 0x13
 1438 0029 00       		.byte	0
 1439 002a 00       		.byte	0
 1440 002b 04       		.uleb128 0x4
 1441 002c 24       		.uleb128 0x24
 1442 002d 00       		.byte	0
 1443 002e 0B       		.uleb128 0xb
 1444 002f 0B       		.uleb128 0xb
 1445 0030 3E       		.uleb128 0x3e
 1446 0031 0B       		.uleb128 0xb
 1447 0032 03       		.uleb128 0x3
 1448 0033 08       		.uleb128 0x8
 1449 0034 00       		.byte	0
 1450 0035 00       		.byte	0
 1451 0036 05       		.uleb128 0x5
 1452 0037 16       		.uleb128 0x16
 1453 0038 00       		.byte	0
 1454 0039 03       		.uleb128 0x3
 1455 003a 0E       		.uleb128 0xe
 1456 003b 3A       		.uleb128 0x3a
 1457 003c 0B       		.uleb128 0xb
 1458 003d 3B       		.uleb128 0x3b
 1459 003e 05       		.uleb128 0x5
 1460 003f 49       		.uleb128 0x49
 1461 0040 13       		.uleb128 0x13
 1462 0041 00       		.byte	0
 1463 0042 00       		.byte	0
 1464 0043 06       		.uleb128 0x6
 1465 0044 35       		.uleb128 0x35
 1466 0045 00       		.byte	0
 1467 0046 49       		.uleb128 0x49
 1468 0047 13       		.uleb128 0x13
 1469 0048 00       		.byte	0
 1470 0049 00       		.byte	0
 1471 004a 07       		.uleb128 0x7
 1472 004b 2E       		.uleb128 0x2e
 1473 004c 01       		.byte	0x1
 1474 004d 3F       		.uleb128 0x3f
 1475 004e 19       		.uleb128 0x19
 1476 004f 03       		.uleb128 0x3
 1477 0050 0E       		.uleb128 0xe
 1478 0051 3A       		.uleb128 0x3a
 1479 0052 0B       		.uleb128 0xb
 1480 0053 3B       		.uleb128 0x3b
 1481 0054 0B       		.uleb128 0xb
 1482 0055 27       		.uleb128 0x27
 1483 0056 19       		.uleb128 0x19
 1484 0057 11       		.uleb128 0x11
 1485 0058 01       		.uleb128 0x1
ARM GAS  C:\Users\nikod\AppData\Local\Temp\ccFbz9mj.s 			page 29


 1486 0059 12       		.uleb128 0x12
 1487 005a 06       		.uleb128 0x6
 1488 005b 40       		.uleb128 0x40
 1489 005c 18       		.uleb128 0x18
 1490 005d 9742     		.uleb128 0x2117
 1491 005f 19       		.uleb128 0x19
 1492 0060 01       		.uleb128 0x1
 1493 0061 13       		.uleb128 0x13
 1494 0062 00       		.byte	0
 1495 0063 00       		.byte	0
 1496 0064 08       		.uleb128 0x8
 1497 0065 898201   		.uleb128 0x4109
 1498 0068 00       		.byte	0
 1499 0069 11       		.uleb128 0x11
 1500 006a 01       		.uleb128 0x1
 1501 006b 31       		.uleb128 0x31
 1502 006c 13       		.uleb128 0x13
 1503 006d 00       		.byte	0
 1504 006e 00       		.byte	0
 1505 006f 09       		.uleb128 0x9
 1506 0070 2E       		.uleb128 0x2e
 1507 0071 01       		.byte	0x1
 1508 0072 3F       		.uleb128 0x3f
 1509 0073 19       		.uleb128 0x19
 1510 0074 03       		.uleb128 0x3
 1511 0075 0E       		.uleb128 0xe
 1512 0076 3A       		.uleb128 0x3a
 1513 0077 0B       		.uleb128 0xb
 1514 0078 3B       		.uleb128 0x3b
 1515 0079 0B       		.uleb128 0xb
 1516 007a 27       		.uleb128 0x27
 1517 007b 19       		.uleb128 0x19
 1518 007c 11       		.uleb128 0x11
 1519 007d 01       		.uleb128 0x1
 1520 007e 12       		.uleb128 0x12
 1521 007f 06       		.uleb128 0x6
 1522 0080 40       		.uleb128 0x40
 1523 0081 18       		.uleb128 0x18
 1524 0082 9642     		.uleb128 0x2116
 1525 0084 19       		.uleb128 0x19
 1526 0085 01       		.uleb128 0x1
 1527 0086 13       		.uleb128 0x13
 1528 0087 00       		.byte	0
 1529 0088 00       		.byte	0
 1530 0089 0A       		.uleb128 0xa
 1531 008a 34       		.uleb128 0x34
 1532 008b 00       		.byte	0
 1533 008c 03       		.uleb128 0x3
 1534 008d 08       		.uleb128 0x8
 1535 008e 3A       		.uleb128 0x3a
 1536 008f 0B       		.uleb128 0xb
 1537 0090 3B       		.uleb128 0x3b
 1538 0091 0B       		.uleb128 0xb
 1539 0092 49       		.uleb128 0x49
 1540 0093 13       		.uleb128 0x13
 1541 0094 02       		.uleb128 0x2
 1542 0095 17       		.uleb128 0x17
ARM GAS  C:\Users\nikod\AppData\Local\Temp\ccFbz9mj.s 			page 30


 1543 0096 00       		.byte	0
 1544 0097 00       		.byte	0
 1545 0098 0B       		.uleb128 0xb
 1546 0099 898201   		.uleb128 0x4109
 1547 009c 01       		.byte	0x1
 1548 009d 11       		.uleb128 0x11
 1549 009e 01       		.uleb128 0x1
 1550 009f 31       		.uleb128 0x31
 1551 00a0 13       		.uleb128 0x13
 1552 00a1 01       		.uleb128 0x1
 1553 00a2 13       		.uleb128 0x13
 1554 00a3 00       		.byte	0
 1555 00a4 00       		.byte	0
 1556 00a5 0C       		.uleb128 0xc
 1557 00a6 8A8201   		.uleb128 0x410a
 1558 00a9 00       		.byte	0
 1559 00aa 02       		.uleb128 0x2
 1560 00ab 18       		.uleb128 0x18
 1561 00ac 9142     		.uleb128 0x2111
 1562 00ae 18       		.uleb128 0x18
 1563 00af 00       		.byte	0
 1564 00b0 00       		.byte	0
 1565 00b1 0D       		.uleb128 0xd
 1566 00b2 2E       		.uleb128 0x2e
 1567 00b3 01       		.byte	0x1
 1568 00b4 3F       		.uleb128 0x3f
 1569 00b5 19       		.uleb128 0x19
 1570 00b6 03       		.uleb128 0x3
 1571 00b7 0E       		.uleb128 0xe
 1572 00b8 3A       		.uleb128 0x3a
 1573 00b9 0B       		.uleb128 0xb
 1574 00ba 3B       		.uleb128 0x3b
 1575 00bb 0B       		.uleb128 0xb
 1576 00bc 27       		.uleb128 0x27
 1577 00bd 19       		.uleb128 0x19
 1578 00be 49       		.uleb128 0x49
 1579 00bf 13       		.uleb128 0x13
 1580 00c0 8701     		.uleb128 0x87
 1581 00c2 19       		.uleb128 0x19
 1582 00c3 11       		.uleb128 0x11
 1583 00c4 01       		.uleb128 0x1
 1584 00c5 12       		.uleb128 0x12
 1585 00c6 06       		.uleb128 0x6
 1586 00c7 40       		.uleb128 0x40
 1587 00c8 18       		.uleb128 0x18
 1588 00c9 9742     		.uleb128 0x2117
 1589 00cb 19       		.uleb128 0x19
 1590 00cc 01       		.uleb128 0x1
 1591 00cd 13       		.uleb128 0x13
 1592 00ce 00       		.byte	0
 1593 00cf 00       		.byte	0
 1594 00d0 0E       		.uleb128 0xe
 1595 00d1 898201   		.uleb128 0x4109
 1596 00d4 01       		.byte	0x1
 1597 00d5 11       		.uleb128 0x11
 1598 00d6 01       		.uleb128 0x1
 1599 00d7 31       		.uleb128 0x31
ARM GAS  C:\Users\nikod\AppData\Local\Temp\ccFbz9mj.s 			page 31


 1600 00d8 13       		.uleb128 0x13
 1601 00d9 00       		.byte	0
 1602 00da 00       		.byte	0
 1603 00db 0F       		.uleb128 0xf
 1604 00dc 34       		.uleb128 0x34
 1605 00dd 00       		.byte	0
 1606 00de 03       		.uleb128 0x3
 1607 00df 0E       		.uleb128 0xe
 1608 00e0 3A       		.uleb128 0x3a
 1609 00e1 0B       		.uleb128 0xb
 1610 00e2 3B       		.uleb128 0x3b
 1611 00e3 05       		.uleb128 0x5
 1612 00e4 49       		.uleb128 0x49
 1613 00e5 13       		.uleb128 0x13
 1614 00e6 3F       		.uleb128 0x3f
 1615 00e7 19       		.uleb128 0x19
 1616 00e8 3C       		.uleb128 0x3c
 1617 00e9 19       		.uleb128 0x19
 1618 00ea 00       		.byte	0
 1619 00eb 00       		.byte	0
 1620 00ec 10       		.uleb128 0x10
 1621 00ed 01       		.uleb128 0x1
 1622 00ee 01       		.byte	0x1
 1623 00ef 49       		.uleb128 0x49
 1624 00f0 13       		.uleb128 0x13
 1625 00f1 01       		.uleb128 0x1
 1626 00f2 13       		.uleb128 0x13
 1627 00f3 00       		.byte	0
 1628 00f4 00       		.byte	0
 1629 00f5 11       		.uleb128 0x11
 1630 00f6 21       		.uleb128 0x21
 1631 00f7 00       		.byte	0
 1632 00f8 49       		.uleb128 0x49
 1633 00f9 13       		.uleb128 0x13
 1634 00fa 2F       		.uleb128 0x2f
 1635 00fb 0B       		.uleb128 0xb
 1636 00fc 00       		.byte	0
 1637 00fd 00       		.byte	0
 1638 00fe 12       		.uleb128 0x12
 1639 00ff 26       		.uleb128 0x26
 1640 0100 00       		.byte	0
 1641 0101 49       		.uleb128 0x49
 1642 0102 13       		.uleb128 0x13
 1643 0103 00       		.byte	0
 1644 0104 00       		.byte	0
 1645 0105 13       		.uleb128 0x13
 1646 0106 34       		.uleb128 0x34
 1647 0107 00       		.byte	0
 1648 0108 03       		.uleb128 0x3
 1649 0109 08       		.uleb128 0x8
 1650 010a 3A       		.uleb128 0x3a
 1651 010b 0B       		.uleb128 0xb
 1652 010c 3B       		.uleb128 0x3b
 1653 010d 0B       		.uleb128 0xb
 1654 010e 49       		.uleb128 0x49
 1655 010f 13       		.uleb128 0x13
 1656 0110 3F       		.uleb128 0x3f
ARM GAS  C:\Users\nikod\AppData\Local\Temp\ccFbz9mj.s 			page 32


 1657 0111 19       		.uleb128 0x19
 1658 0112 02       		.uleb128 0x2
 1659 0113 18       		.uleb128 0x18
 1660 0114 00       		.byte	0
 1661 0115 00       		.byte	0
 1662 0116 14       		.uleb128 0x14
 1663 0117 34       		.uleb128 0x34
 1664 0118 00       		.byte	0
 1665 0119 03       		.uleb128 0x3
 1666 011a 0E       		.uleb128 0xe
 1667 011b 3A       		.uleb128 0x3a
 1668 011c 0B       		.uleb128 0xb
 1669 011d 3B       		.uleb128 0x3b
 1670 011e 0B       		.uleb128 0xb
 1671 011f 49       		.uleb128 0x49
 1672 0120 13       		.uleb128 0x13
 1673 0121 3F       		.uleb128 0x3f
 1674 0122 19       		.uleb128 0x19
 1675 0123 02       		.uleb128 0x2
 1676 0124 18       		.uleb128 0x18
 1677 0125 00       		.byte	0
 1678 0126 00       		.byte	0
 1679 0127 15       		.uleb128 0x15
 1680 0128 2E       		.uleb128 0x2e
 1681 0129 00       		.byte	0
 1682 012a 3F       		.uleb128 0x3f
 1683 012b 19       		.uleb128 0x19
 1684 012c 3C       		.uleb128 0x3c
 1685 012d 19       		.uleb128 0x19
 1686 012e 6E       		.uleb128 0x6e
 1687 012f 0E       		.uleb128 0xe
 1688 0130 03       		.uleb128 0x3
 1689 0131 0E       		.uleb128 0xe
 1690 0132 3A       		.uleb128 0x3a
 1691 0133 0B       		.uleb128 0xb
 1692 0134 3B       		.uleb128 0x3b
 1693 0135 0B       		.uleb128 0xb
 1694 0136 00       		.byte	0
 1695 0137 00       		.byte	0
 1696 0138 00       		.byte	0
 1697              		.section	.debug_loc,"",%progbits
 1698              	.Ldebug_loc0:
 1699              	.LLST0:
 1700 0000 1C000000 		.4byte	.LVL5
 1701 0004 24000000 		.4byte	.LVL6
 1702 0008 0100     		.2byte	0x1
 1703 000a 50       		.byte	0x50
 1704 000b 8A060000 		.4byte	.LVL164
 1705 000f 8D060000 		.4byte	.LVL165-1
 1706 0013 0100     		.2byte	0x1
 1707 0015 50       		.byte	0x50
 1708 0016 00000000 		.4byte	0
 1709 001a 00000000 		.4byte	0
 1710              		.section	.debug_aranges,"",%progbits
 1711 0000 2C000000 		.4byte	0x2c
 1712 0004 0200     		.2byte	0x2
 1713 0006 00000000 		.4byte	.Ldebug_info0
ARM GAS  C:\Users\nikod\AppData\Local\Temp\ccFbz9mj.s 			page 33


 1714 000a 04       		.byte	0x4
 1715 000b 00       		.byte	0
 1716 000c 0000     		.2byte	0
 1717 000e 0000     		.2byte	0
 1718 0010 00000000 		.4byte	.LFB63
 1719 0014 2C000000 		.4byte	.LFE63-.LFB63
 1720 0018 00000000 		.4byte	.LFB64
 1721 001c 90060000 		.4byte	.LFE64-.LFB64
 1722 0020 00000000 		.4byte	.LFB65
 1723 0024 2C000000 		.4byte	.LFE65-.LFB65
 1724 0028 00000000 		.4byte	0
 1725 002c 00000000 		.4byte	0
 1726              		.section	.debug_ranges,"",%progbits
 1727              	.Ldebug_ranges0:
 1728 0000 00000000 		.4byte	.LFB63
 1729 0004 2C000000 		.4byte	.LFE63
 1730 0008 00000000 		.4byte	.LFB64
 1731 000c 90060000 		.4byte	.LFE64
 1732 0010 00000000 		.4byte	.LFB65
 1733 0014 2C000000 		.4byte	.LFE65
 1734 0018 00000000 		.4byte	0
 1735 001c 00000000 		.4byte	0
 1736              		.section	.debug_line,"",%progbits
 1737              	.Ldebug_line0:
 1738 0000 0D020000 		.section	.debug_str,"MS",%progbits,1
 1738      02008F01 
 1738      00000201 
 1738      FB0E0D00 
 1738      01010101 
 1739              	.LASF23:
 1740 0000 53575F43 		.ascii	"SW_ClearInterrupt\000"
 1740      6C656172 
 1740      496E7465 
 1740      72727570 
 1740      7400
 1741              	.LASF9:
 1742 0012 5F5F696E 		.ascii	"__int32_t\000"
 1742      7433325F 
 1742      7400
 1743              	.LASF27:
 1744 001c 4441435F 		.ascii	"DAC_SetValue\000"
 1744      53657456 
 1744      616C7565 
 1744      00
 1745              	.LASF14:
 1746 0029 646F7562 		.ascii	"double\000"
 1746      6C6500
 1747              	.LASF10:
 1748 0030 696E7433 		.ascii	"int32_t\000"
 1748      325F7400 
 1749              	.LASF13:
 1750 0038 666C6F61 		.ascii	"float\000"
 1750      7400
 1751              	.LASF19:
 1752 003e 6C6C6567 		.ascii	"llegaMuestra\000"
 1752      614D7565 
 1752      73747261 
ARM GAS  C:\Users\nikod\AppData\Local\Temp\ccFbz9mj.s 			page 34


 1752      00
 1753              	.LASF1:
 1754 004b 756E7369 		.ascii	"unsigned char\000"
 1754      676E6564 
 1754      20636861 
 1754      7200
 1755              	.LASF33:
 1756 0059 474E5520 		.ascii	"GNU C11 5.4.1 20160609 (release) [ARM/embedded-5-br"
 1756      43313120 
 1756      352E342E 
 1756      31203230 
 1756      31363036 
 1757 008c 616E6368 		.ascii	"anch revision 237715] -mcpu=cortex-m3 -mthumb -g -O"
 1757      20726576 
 1757      6973696F 
 1757      6E203233 
 1757      37373135 
 1758 00bf 67202D66 		.ascii	"g -ffunction-sections -ffat-lto-objects\000"
 1758      66756E63 
 1758      74696F6E 
 1758      2D736563 
 1758      74696F6E 
 1759              	.LASF24:
 1760 00e7 4144435F 		.ascii	"ADC_StartConvert\000"
 1760      53746172 
 1760      74436F6E 
 1760      76657274 
 1760      00
 1761              	.LASF3:
 1762 00f8 73686F72 		.ascii	"short unsigned int\000"
 1762      7420756E 
 1762      7369676E 
 1762      65642069 
 1762      6E7400
 1763              	.LASF26:
 1764 010b 4144435F 		.ascii	"ADC_GetResult16\000"
 1764      47657452 
 1764      6573756C 
 1764      74313600 
 1765              	.LASF31:
 1766 011b 4953525F 		.ascii	"ISR_StartEx\000"
 1766      53746172 
 1766      74457800 
 1767              	.LASF25:
 1768 0127 4144435F 		.ascii	"ADC_IsEndConversion\000"
 1768      4973456E 
 1768      64436F6E 
 1768      76657273 
 1768      696F6E00 
 1769              	.LASF29:
 1770 013b 4441435F 		.ascii	"DAC_Start\000"
 1770      53746172 
 1770      7400
 1771              	.LASF5:
 1772 0145 6C6F6E67 		.ascii	"long unsigned int\000"
 1772      20756E73 
 1772      69676E65 
ARM GAS  C:\Users\nikod\AppData\Local\Temp\ccFbz9mj.s 			page 35


 1772      6420696E 
 1772      7400
 1773              	.LASF18:
 1774 0157 494E545F 		.ascii	"INT_SW\000"
 1774      535700
 1775              	.LASF12:
 1776 015e 75696E74 		.ascii	"uint16\000"
 1776      313600
 1777              	.LASF20:
 1778 0165 49544D5F 		.ascii	"ITM_RxBuffer\000"
 1778      52784275 
 1778      66666572 
 1778      00
 1779              	.LASF36:
 1780 0172 6D61696E 		.ascii	"main\000"
 1780      00
 1781              	.LASF30:
 1782 0177 54696D65 		.ascii	"Timer_Start\000"
 1782      725F5374 
 1782      61727400 
 1783              	.LASF8:
 1784 0183 756E7369 		.ascii	"unsigned int\000"
 1784      676E6564 
 1784      20696E74 
 1784      00
 1785              	.LASF7:
 1786 0190 6C6F6E67 		.ascii	"long long unsigned int\000"
 1786      206C6F6E 
 1786      6720756E 
 1786      7369676E 
 1786      65642069 
 1787              	.LASF28:
 1788 01a7 4144435F 		.ascii	"ADC_Start\000"
 1788      53746172 
 1788      7400
 1789              	.LASF16:
 1790 01b1 6C6F6E67 		.ascii	"long double\000"
 1790      20646F75 
 1790      626C6500 
 1791              	.LASF17:
 1792 01bd 73697A65 		.ascii	"sizetype\000"
 1792      74797065 
 1792      00
 1793              	.LASF6:
 1794 01c6 6C6F6E67 		.ascii	"long long int\000"
 1794      206C6F6E 
 1794      6720696E 
 1794      7400
 1795              	.LASF34:
 1796 01d4 6D61696E 		.ascii	"main.c\000"
 1796      2E6300
 1797              	.LASF15:
 1798 01db 63686172 		.ascii	"char\000"
 1798      00
 1799              	.LASF2:
 1800 01e0 73686F72 		.ascii	"short int\000"
 1800      7420696E 
ARM GAS  C:\Users\nikod\AppData\Local\Temp\ccFbz9mj.s 			page 36


 1800      7400
 1801              	.LASF11:
 1802 01ea 75696E74 		.ascii	"uint8\000"
 1802      3800
 1803              	.LASF32:
 1804 01f0 4953525F 		.ascii	"ISR_1_StartEx\000"
 1804      315F5374 
 1804      61727445 
 1804      7800
 1805              	.LASF35:
 1806 01fe 433A5C55 		.ascii	"C:\\Users\\nikod\\Documents\\PSoC Creator\\FiltroFI"
 1806      73657273 
 1806      5C6E696B 
 1806      6F645C44 
 1806      6F63756D 
 1807 022c 52446967 		.ascii	"RDigitalProgramable\\Proy3_1.cydsn\000"
 1807      6974616C 
 1807      50726F67 
 1807      72616D61 
 1807      626C655C 
 1808              	.LASF4:
 1809 024e 6C6F6E67 		.ascii	"long int\000"
 1809      20696E74 
 1809      00
 1810              	.LASF21:
 1811 0257 636F6E74 		.ascii	"cont\000"
 1811      00
 1812              	.LASF0:
 1813 025c 7369676E 		.ascii	"signed char\000"
 1813      65642063 
 1813      68617200 
 1814              	.LASF22:
 1815 0268 4C454453 		.ascii	"LEDS_Write\000"
 1815      5F577269 
 1815      746500
 1816              		.ident	"GCC: (GNU Tools for ARM Embedded Processors) 5.4.1 20160609 (release) [ARM/embedded-5-bran
